   1               		.file	"HIDParser.c"
   2               	__SP_H__ = 0x3e
   3               	__SP_L__ = 0x3d
   4               	__SREG__ = 0x3f
   5               	__RAMPZ__ = 0x3b
   6               	__tmp_reg__ = 0
   7               	__zero_reg__ = 1
   8               		.text
   9               	.Ltext0:
  10               		.cfi_sections	.debug_frame
  11               		.section	.text.USB_ProcessHIDReport,"ax",@progbits
  12               	.global	USB_ProcessHIDReport
  14               	USB_ProcessHIDReport:
  15               	.LFB16:
  16               		.file 1 "../../../../tmk_core/protocol/lufa/LUFA-git/LUFA/Drivers/USB/Class/Common/HIDParser.c"
   1:../../../../tmk_core/protocol/lufa/LUFA-git/LUFA/Drivers/USB/Class/Common/HIDParser.c **** /*
   2:../../../../tmk_core/protocol/lufa/LUFA-git/LUFA/Drivers/USB/Class/Common/HIDParser.c ****              LUFA Library
   3:../../../../tmk_core/protocol/lufa/LUFA-git/LUFA/Drivers/USB/Class/Common/HIDParser.c ****      Copyright (C) Dean Camera, 2014.
   4:../../../../tmk_core/protocol/lufa/LUFA-git/LUFA/Drivers/USB/Class/Common/HIDParser.c **** 
   5:../../../../tmk_core/protocol/lufa/LUFA-git/LUFA/Drivers/USB/Class/Common/HIDParser.c ****   dean [at] fourwalledcubicle [dot] com
   6:../../../../tmk_core/protocol/lufa/LUFA-git/LUFA/Drivers/USB/Class/Common/HIDParser.c ****            www.lufa-lib.org
   7:../../../../tmk_core/protocol/lufa/LUFA-git/LUFA/Drivers/USB/Class/Common/HIDParser.c **** */
   8:../../../../tmk_core/protocol/lufa/LUFA-git/LUFA/Drivers/USB/Class/Common/HIDParser.c **** 
   9:../../../../tmk_core/protocol/lufa/LUFA-git/LUFA/Drivers/USB/Class/Common/HIDParser.c **** /*
  10:../../../../tmk_core/protocol/lufa/LUFA-git/LUFA/Drivers/USB/Class/Common/HIDParser.c ****   Copyright 2014  Dean Camera (dean [at] fourwalledcubicle [dot] com)
  11:../../../../tmk_core/protocol/lufa/LUFA-git/LUFA/Drivers/USB/Class/Common/HIDParser.c **** 
  12:../../../../tmk_core/protocol/lufa/LUFA-git/LUFA/Drivers/USB/Class/Common/HIDParser.c ****   Permission to use, copy, modify, distribute, and sell this
  13:../../../../tmk_core/protocol/lufa/LUFA-git/LUFA/Drivers/USB/Class/Common/HIDParser.c ****   software and its documentation for any purpose is hereby granted
  14:../../../../tmk_core/protocol/lufa/LUFA-git/LUFA/Drivers/USB/Class/Common/HIDParser.c ****   without fee, provided that the above copyright notice appear in
  15:../../../../tmk_core/protocol/lufa/LUFA-git/LUFA/Drivers/USB/Class/Common/HIDParser.c ****   all copies and that both that the copyright notice and this
  16:../../../../tmk_core/protocol/lufa/LUFA-git/LUFA/Drivers/USB/Class/Common/HIDParser.c ****   permission notice and warranty disclaimer appear in supporting
  17:../../../../tmk_core/protocol/lufa/LUFA-git/LUFA/Drivers/USB/Class/Common/HIDParser.c ****   documentation, and that the name of the author not be used in
  18:../../../../tmk_core/protocol/lufa/LUFA-git/LUFA/Drivers/USB/Class/Common/HIDParser.c ****   advertising or publicity pertaining to distribution of the
  19:../../../../tmk_core/protocol/lufa/LUFA-git/LUFA/Drivers/USB/Class/Common/HIDParser.c ****   software without specific, written prior permission.
  20:../../../../tmk_core/protocol/lufa/LUFA-git/LUFA/Drivers/USB/Class/Common/HIDParser.c **** 
  21:../../../../tmk_core/protocol/lufa/LUFA-git/LUFA/Drivers/USB/Class/Common/HIDParser.c ****   The author disclaims all warranties with regard to this
  22:../../../../tmk_core/protocol/lufa/LUFA-git/LUFA/Drivers/USB/Class/Common/HIDParser.c ****   software, including all implied warranties of merchantability
  23:../../../../tmk_core/protocol/lufa/LUFA-git/LUFA/Drivers/USB/Class/Common/HIDParser.c ****   and fitness.  In no event shall the author be liable for any
  24:../../../../tmk_core/protocol/lufa/LUFA-git/LUFA/Drivers/USB/Class/Common/HIDParser.c ****   special, indirect or consequential damages or any damages
  25:../../../../tmk_core/protocol/lufa/LUFA-git/LUFA/Drivers/USB/Class/Common/HIDParser.c ****   whatsoever resulting from loss of use, data or profits, whether
  26:../../../../tmk_core/protocol/lufa/LUFA-git/LUFA/Drivers/USB/Class/Common/HIDParser.c ****   in an action of contract, negligence or other tortious action,
  27:../../../../tmk_core/protocol/lufa/LUFA-git/LUFA/Drivers/USB/Class/Common/HIDParser.c ****   arising out of or in connection with the use or performance of
  28:../../../../tmk_core/protocol/lufa/LUFA-git/LUFA/Drivers/USB/Class/Common/HIDParser.c ****   this software.
  29:../../../../tmk_core/protocol/lufa/LUFA-git/LUFA/Drivers/USB/Class/Common/HIDParser.c **** */
  30:../../../../tmk_core/protocol/lufa/LUFA-git/LUFA/Drivers/USB/Class/Common/HIDParser.c **** 
  31:../../../../tmk_core/protocol/lufa/LUFA-git/LUFA/Drivers/USB/Class/Common/HIDParser.c **** #define  __INCLUDE_FROM_USB_DRIVER
  32:../../../../tmk_core/protocol/lufa/LUFA-git/LUFA/Drivers/USB/Class/Common/HIDParser.c **** #define  __INCLUDE_FROM_HID_DRIVER
  33:../../../../tmk_core/protocol/lufa/LUFA-git/LUFA/Drivers/USB/Class/Common/HIDParser.c **** #include "HIDParser.h"
  34:../../../../tmk_core/protocol/lufa/LUFA-git/LUFA/Drivers/USB/Class/Common/HIDParser.c **** 
  35:../../../../tmk_core/protocol/lufa/LUFA-git/LUFA/Drivers/USB/Class/Common/HIDParser.c **** uint8_t USB_ProcessHIDReport(const uint8_t* ReportData,
  36:../../../../tmk_core/protocol/lufa/LUFA-git/LUFA/Drivers/USB/Class/Common/HIDParser.c ****                              uint16_t ReportSize,
  37:../../../../tmk_core/protocol/lufa/LUFA-git/LUFA/Drivers/USB/Class/Common/HIDParser.c ****                              HID_ReportInfo_t* const ParserData)
  38:../../../../tmk_core/protocol/lufa/LUFA-git/LUFA/Drivers/USB/Class/Common/HIDParser.c **** {
  17               		.loc 1 38 0
  18               		.cfi_startproc
  19               	.LVL0:
  20 0000 2F92      		push r2
  21               	.LCFI0:
  22               		.cfi_def_cfa_offset 3
  23               		.cfi_offset 2, -2
  24 0002 3F92      		push r3
  25               	.LCFI1:
  26               		.cfi_def_cfa_offset 4
  27               		.cfi_offset 3, -3
  28 0004 4F92      		push r4
  29               	.LCFI2:
  30               		.cfi_def_cfa_offset 5
  31               		.cfi_offset 4, -4
  32 0006 5F92      		push r5
  33               	.LCFI3:
  34               		.cfi_def_cfa_offset 6
  35               		.cfi_offset 5, -5
  36 0008 6F92      		push r6
  37               	.LCFI4:
  38               		.cfi_def_cfa_offset 7
  39               		.cfi_offset 6, -6
  40 000a 7F92      		push r7
  41               	.LCFI5:
  42               		.cfi_def_cfa_offset 8
  43               		.cfi_offset 7, -7
  44 000c 8F92      		push r8
  45               	.LCFI6:
  46               		.cfi_def_cfa_offset 9
  47               		.cfi_offset 8, -8
  48 000e 9F92      		push r9
  49               	.LCFI7:
  50               		.cfi_def_cfa_offset 10
  51               		.cfi_offset 9, -9
  52 0010 AF92      		push r10
  53               	.LCFI8:
  54               		.cfi_def_cfa_offset 11
  55               		.cfi_offset 10, -10
  56 0012 BF92      		push r11
  57               	.LCFI9:
  58               		.cfi_def_cfa_offset 12
  59               		.cfi_offset 11, -11
  60 0014 CF92      		push r12
  61               	.LCFI10:
  62               		.cfi_def_cfa_offset 13
  63               		.cfi_offset 12, -12
  64 0016 DF92      		push r13
  65               	.LCFI11:
  66               		.cfi_def_cfa_offset 14
  67               		.cfi_offset 13, -13
  68 0018 EF92      		push r14
  69               	.LCFI12:
  70               		.cfi_def_cfa_offset 15
  71               		.cfi_offset 14, -14
  72 001a FF92      		push r15
  73               	.LCFI13:
  74               		.cfi_def_cfa_offset 16
  75               		.cfi_offset 15, -15
  76 001c 0F93      		push r16
  77               	.LCFI14:
  78               		.cfi_def_cfa_offset 17
  79               		.cfi_offset 16, -16
  80 001e 1F93      		push r17
  81               	.LCFI15:
  82               		.cfi_def_cfa_offset 18
  83               		.cfi_offset 17, -17
  84 0020 CF93      		push r28
  85               	.LCFI16:
  86               		.cfi_def_cfa_offset 19
  87               		.cfi_offset 28, -18
  88 0022 DF93      		push r29
  89               	.LCFI17:
  90               		.cfi_def_cfa_offset 20
  91               		.cfi_offset 29, -19
  92 0024 CDB7      		in r28,__SP_L__
  93 0026 DEB7      		in r29,__SP_H__
  94               	.LCFI18:
  95               		.cfi_def_cfa_register 28
  96 0028 CF58      		subi r28,-113
  97 002a D109      		sbc r29,__zero_reg__
  98               	.LCFI19:
  99               		.cfi_def_cfa_offset 163
 100 002c 0FB6      		in __tmp_reg__,__SREG__
 101 002e F894      		cli
 102 0030 DEBF      		out __SP_H__,r29
 103 0032 0FBE      		out __SREG__,__tmp_reg__
 104 0034 CDBF      		out __SP_L__,r28
 105               	/* prologue: function */
 106               	/* frame size = 143 */
 107               	/* stack size = 161 */
 108               	.L__stack_usage = 161
 109 0036 1C01      		movw r2,r24
 110 0038 6A01      		movw r12,r20
 111               	.LVL1:
  39:../../../../tmk_core/protocol/lufa/LUFA-git/LUFA/Drivers/USB/Class/Common/HIDParser.c **** 	HID_StateTable_t      StateTable[HID_STATETABLE_STACK_DEPTH];
  40:../../../../tmk_core/protocol/lufa/LUFA-git/LUFA/Drivers/USB/Class/Common/HIDParser.c **** 	HID_StateTable_t*     CurrStateTable     = &StateTable[0];
  41:../../../../tmk_core/protocol/lufa/LUFA-git/LUFA/Drivers/USB/Class/Common/HIDParser.c **** 	HID_CollectionPath_t* CurrCollectionPath = NULL;
  42:../../../../tmk_core/protocol/lufa/LUFA-git/LUFA/Drivers/USB/Class/Common/HIDParser.c **** 	HID_ReportSizeInfo_t* CurrReportIDInfo   = &ParserData->ReportIDSizes[0];
 112               		.loc 1 42 0
 113 003a 9A01      		movw r18,r20
 114 003c 2057      		subi r18,112
 115 003e 3C4F      		sbci r19,-4
 116               	.LVL2:
  43:../../../../tmk_core/protocol/lufa/LUFA-git/LUFA/Drivers/USB/Class/Common/HIDParser.c **** 	uint16_t              UsageList[HID_USAGE_STACK_DEPTH];
  44:../../../../tmk_core/protocol/lufa/LUFA-git/LUFA/Drivers/USB/Class/Common/HIDParser.c **** 	uint8_t               UsageListSize      = 0;
  45:../../../../tmk_core/protocol/lufa/LUFA-git/LUFA/Drivers/USB/Class/Common/HIDParser.c **** 	HID_MinMax_t          UsageMinMax        = {0, 0};
  46:../../../../tmk_core/protocol/lufa/LUFA-git/LUFA/Drivers/USB/Class/Common/HIDParser.c **** 
  47:../../../../tmk_core/protocol/lufa/LUFA-git/LUFA/Drivers/USB/Class/Common/HIDParser.c **** 	memset(ParserData,       0x00, sizeof(HID_ReportInfo_t));
 117               		.loc 1 47 0
 118 0040 89ED      		ldi r24,lo8(-39)
 119 0042 93E0      		ldi r25,lo8(3)
 120               	.LVL3:
 121 0044 DA01      		movw r26,r20
 122 0046 FC01      		movw r30,r24
 123               		0:
 124 0048 1D92      		st X+,__zero_reg__
 125 004a 3197      		sbiw r30,1
 126 004c 01F4      		brne 0b
  48:../../../../tmk_core/protocol/lufa/LUFA-git/LUFA/Drivers/USB/Class/Common/HIDParser.c **** 	memset(CurrStateTable,   0x00, sizeof(HID_StateTable_t));
 127               		.loc 1 48 0
 128 004e FE01      		movw r30,r28
 129 0050 3196      		adiw r30,1
 130 0052 8CE1      		ldi r24,lo8(28)
 131 0054 DF01      		movw r26,r30
 132               		0:
 133 0056 1D92      		st X+,__zero_reg__
 134 0058 8A95      		dec r24
 135 005a 01F4      		brne 0b
  49:../../../../tmk_core/protocol/lufa/LUFA-git/LUFA/Drivers/USB/Class/Common/HIDParser.c **** 	memset(CurrReportIDInfo, 0x00, sizeof(HID_ReportSizeInfo_t));
 136               		.loc 1 49 0
 137 005c 87E0      		ldi r24,lo8(7)
 138 005e D901      		movw r26,r18
 139               		0:
 140 0060 1D92      		st X+,__zero_reg__
 141 0062 8A95      		dec r24
 142 0064 01F4      		brne 0b
  50:../../../../tmk_core/protocol/lufa/LUFA-git/LUFA/Drivers/USB/Class/Common/HIDParser.c **** 
  51:../../../../tmk_core/protocol/lufa/LUFA-git/LUFA/Drivers/USB/Class/Common/HIDParser.c **** 	ParserData->TotalDeviceReports = 1;
 143               		.loc 1 51 0
 144 0066 DA01      		movw r26,r20
 145 0068 A157      		subi r26,113
 146 006a BC4F      		sbci r27,-4
 147 006c 81E0      		ldi r24,lo8(1)
 148 006e 8C93      		st X,r24
  45:../../../../tmk_core/protocol/lufa/LUFA-git/LUFA/Drivers/USB/Class/Common/HIDParser.c **** 	HID_MinMax_t          UsageMinMax        = {0, 0};
 149               		.loc 1 45 0
 150 0070 E896      		adiw r28,116-60
 151 0072 1CAE      		std Y+60,__zero_reg__
 152 0074 1DAE      		std Y+61,__zero_reg__
 153 0076 1EAE      		std Y+62,__zero_reg__
 154 0078 1FAE      		std Y+63,__zero_reg__
 155 007a E897      		sbiw r28,116-60
 156 007c 412C      		mov r4,__zero_reg__
 157 007e 512C      		mov r5,__zero_reg__
 158 0080 3201      		movw r6,r4
  44:../../../../tmk_core/protocol/lufa/LUFA-git/LUFA/Drivers/USB/Class/Common/HIDParser.c **** 	uint8_t               UsageListSize      = 0;
 159               		.loc 1 44 0
 160 0082 E496      		adiw r28,115-63
 161 0084 1FAE      		std Y+63,__zero_reg__
 162 0086 E497      		sbiw r28,115-63
  41:../../../../tmk_core/protocol/lufa/LUFA-git/LUFA/Drivers/USB/Class/Common/HIDParser.c **** 	HID_CollectionPath_t* CurrCollectionPath = NULL;
 163               		.loc 1 41 0
 164 0088 40E0      		ldi r20,0
 165 008a 50E0      		ldi r21,0
 166               	.LVL4:
  40:../../../../tmk_core/protocol/lufa/LUFA-git/LUFA/Drivers/USB/Class/Common/HIDParser.c **** 	HID_StateTable_t*     CurrStateTable     = &StateTable[0];
 167               		.loc 1 40 0
 168 008c 7F01      		movw r14,r30
 169               	.LBB2:
 170               	.LBB3:
 171               	.LBB4:
  52:../../../../tmk_core/protocol/lufa/LUFA-git/LUFA/Drivers/USB/Class/Common/HIDParser.c **** 
  53:../../../../tmk_core/protocol/lufa/LUFA-git/LUFA/Drivers/USB/Class/Common/HIDParser.c **** 	while (ReportSize)
  54:../../../../tmk_core/protocol/lufa/LUFA-git/LUFA/Drivers/USB/Class/Common/HIDParser.c **** 	{
  55:../../../../tmk_core/protocol/lufa/LUFA-git/LUFA/Drivers/USB/Class/Common/HIDParser.c **** 		uint8_t  HIDReportItem  = *ReportData;
  56:../../../../tmk_core/protocol/lufa/LUFA-git/LUFA/Drivers/USB/Class/Common/HIDParser.c **** 		uint32_t ReportItemData;
  57:../../../../tmk_core/protocol/lufa/LUFA-git/LUFA/Drivers/USB/Class/Common/HIDParser.c **** 
  58:../../../../tmk_core/protocol/lufa/LUFA-git/LUFA/Drivers/USB/Class/Common/HIDParser.c **** 		ReportData++;
  59:../../../../tmk_core/protocol/lufa/LUFA-git/LUFA/Drivers/USB/Class/Common/HIDParser.c **** 		ReportSize--;
  60:../../../../tmk_core/protocol/lufa/LUFA-git/LUFA/Drivers/USB/Class/Common/HIDParser.c **** 
  61:../../../../tmk_core/protocol/lufa/LUFA-git/LUFA/Drivers/USB/Class/Common/HIDParser.c **** 		switch (HIDReportItem & HID_RI_DATA_SIZE_MASK)
  62:../../../../tmk_core/protocol/lufa/LUFA-git/LUFA/Drivers/USB/Class/Common/HIDParser.c **** 		{
  63:../../../../tmk_core/protocol/lufa/LUFA-git/LUFA/Drivers/USB/Class/Common/HIDParser.c **** 			case HID_RI_DATA_BITS_32:
  64:../../../../tmk_core/protocol/lufa/LUFA-git/LUFA/Drivers/USB/Class/Common/HIDParser.c **** 				ReportItemData  = (((uint32_t)ReportData[3] << 24) | ((uint32_t)ReportData[2] << 16) |
  65:../../../../tmk_core/protocol/lufa/LUFA-git/LUFA/Drivers/USB/Class/Common/HIDParser.c **** 			                       ((uint16_t)ReportData[1] << 8)  | ReportData[0]);
  66:../../../../tmk_core/protocol/lufa/LUFA-git/LUFA/Drivers/USB/Class/Common/HIDParser.c **** 				ReportSize     -= 4;
  67:../../../../tmk_core/protocol/lufa/LUFA-git/LUFA/Drivers/USB/Class/Common/HIDParser.c **** 				ReportData     += 4;
  68:../../../../tmk_core/protocol/lufa/LUFA-git/LUFA/Drivers/USB/Class/Common/HIDParser.c **** 				break;
  69:../../../../tmk_core/protocol/lufa/LUFA-git/LUFA/Drivers/USB/Class/Common/HIDParser.c **** 
  70:../../../../tmk_core/protocol/lufa/LUFA-git/LUFA/Drivers/USB/Class/Common/HIDParser.c **** 			case HID_RI_DATA_BITS_16:
  71:../../../../tmk_core/protocol/lufa/LUFA-git/LUFA/Drivers/USB/Class/Common/HIDParser.c **** 				ReportItemData  = (((uint16_t)ReportData[1] << 8) | (ReportData[0]));
  72:../../../../tmk_core/protocol/lufa/LUFA-git/LUFA/Drivers/USB/Class/Common/HIDParser.c **** 				ReportSize     -= 2;
  73:../../../../tmk_core/protocol/lufa/LUFA-git/LUFA/Drivers/USB/Class/Common/HIDParser.c **** 				ReportData     += 2;
  74:../../../../tmk_core/protocol/lufa/LUFA-git/LUFA/Drivers/USB/Class/Common/HIDParser.c **** 				break;
  75:../../../../tmk_core/protocol/lufa/LUFA-git/LUFA/Drivers/USB/Class/Common/HIDParser.c **** 
  76:../../../../tmk_core/protocol/lufa/LUFA-git/LUFA/Drivers/USB/Class/Common/HIDParser.c **** 			case HID_RI_DATA_BITS_8:
  77:../../../../tmk_core/protocol/lufa/LUFA-git/LUFA/Drivers/USB/Class/Common/HIDParser.c **** 				ReportItemData  = ReportData[0];
  78:../../../../tmk_core/protocol/lufa/LUFA-git/LUFA/Drivers/USB/Class/Common/HIDParser.c **** 				ReportSize     -= 1;
  79:../../../../tmk_core/protocol/lufa/LUFA-git/LUFA/Drivers/USB/Class/Common/HIDParser.c **** 				ReportData     += 1;
  80:../../../../tmk_core/protocol/lufa/LUFA-git/LUFA/Drivers/USB/Class/Common/HIDParser.c **** 				break;
  81:../../../../tmk_core/protocol/lufa/LUFA-git/LUFA/Drivers/USB/Class/Common/HIDParser.c **** 
  82:../../../../tmk_core/protocol/lufa/LUFA-git/LUFA/Drivers/USB/Class/Common/HIDParser.c **** 			default:
  83:../../../../tmk_core/protocol/lufa/LUFA-git/LUFA/Drivers/USB/Class/Common/HIDParser.c **** 				ReportItemData  = 0;
  84:../../../../tmk_core/protocol/lufa/LUFA-git/LUFA/Drivers/USB/Class/Common/HIDParser.c **** 				break;
  85:../../../../tmk_core/protocol/lufa/LUFA-git/LUFA/Drivers/USB/Class/Common/HIDParser.c **** 		}
  86:../../../../tmk_core/protocol/lufa/LUFA-git/LUFA/Drivers/USB/Class/Common/HIDParser.c **** 
  87:../../../../tmk_core/protocol/lufa/LUFA-git/LUFA/Drivers/USB/Class/Common/HIDParser.c **** 		switch (HIDReportItem & (HID_RI_TYPE_MASK | HID_RI_TAG_MASK))
  88:../../../../tmk_core/protocol/lufa/LUFA-git/LUFA/Drivers/USB/Class/Common/HIDParser.c **** 		{
  89:../../../../tmk_core/protocol/lufa/LUFA-git/LUFA/Drivers/USB/Class/Common/HIDParser.c **** 			case HID_RI_PUSH(0):
  90:../../../../tmk_core/protocol/lufa/LUFA-git/LUFA/Drivers/USB/Class/Common/HIDParser.c **** 				if (CurrStateTable == &StateTable[HID_STATETABLE_STACK_DEPTH - 1])
  91:../../../../tmk_core/protocol/lufa/LUFA-git/LUFA/Drivers/USB/Class/Common/HIDParser.c **** 				  return HID_PARSE_HIDStackOverflow;
  92:../../../../tmk_core/protocol/lufa/LUFA-git/LUFA/Drivers/USB/Class/Common/HIDParser.c **** 
  93:../../../../tmk_core/protocol/lufa/LUFA-git/LUFA/Drivers/USB/Class/Common/HIDParser.c **** 				memcpy((CurrStateTable + 1),
  94:../../../../tmk_core/protocol/lufa/LUFA-git/LUFA/Drivers/USB/Class/Common/HIDParser.c **** 				       CurrStateTable,
  95:../../../../tmk_core/protocol/lufa/LUFA-git/LUFA/Drivers/USB/Class/Common/HIDParser.c **** 				       sizeof(HID_ReportItem_t));
  96:../../../../tmk_core/protocol/lufa/LUFA-git/LUFA/Drivers/USB/Class/Common/HIDParser.c **** 
  97:../../../../tmk_core/protocol/lufa/LUFA-git/LUFA/Drivers/USB/Class/Common/HIDParser.c **** 				CurrStateTable++;
  98:../../../../tmk_core/protocol/lufa/LUFA-git/LUFA/Drivers/USB/Class/Common/HIDParser.c **** 				break;
  99:../../../../tmk_core/protocol/lufa/LUFA-git/LUFA/Drivers/USB/Class/Common/HIDParser.c **** 
 100:../../../../tmk_core/protocol/lufa/LUFA-git/LUFA/Drivers/USB/Class/Common/HIDParser.c **** 			case HID_RI_POP(0):
 101:../../../../tmk_core/protocol/lufa/LUFA-git/LUFA/Drivers/USB/Class/Common/HIDParser.c **** 				if (CurrStateTable == &StateTable[0])
 102:../../../../tmk_core/protocol/lufa/LUFA-git/LUFA/Drivers/USB/Class/Common/HIDParser.c **** 				  return HID_PARSE_HIDStackUnderflow;
 103:../../../../tmk_core/protocol/lufa/LUFA-git/LUFA/Drivers/USB/Class/Common/HIDParser.c **** 
 104:../../../../tmk_core/protocol/lufa/LUFA-git/LUFA/Drivers/USB/Class/Common/HIDParser.c **** 				CurrStateTable--;
 105:../../../../tmk_core/protocol/lufa/LUFA-git/LUFA/Drivers/USB/Class/Common/HIDParser.c **** 				break;
 106:../../../../tmk_core/protocol/lufa/LUFA-git/LUFA/Drivers/USB/Class/Common/HIDParser.c **** 
 107:../../../../tmk_core/protocol/lufa/LUFA-git/LUFA/Drivers/USB/Class/Common/HIDParser.c **** 			case HID_RI_USAGE_PAGE(0):
 108:../../../../tmk_core/protocol/lufa/LUFA-git/LUFA/Drivers/USB/Class/Common/HIDParser.c **** 				if ((HIDReportItem & HID_RI_DATA_SIZE_MASK) == HID_RI_DATA_BITS_32)
 109:../../../../tmk_core/protocol/lufa/LUFA-git/LUFA/Drivers/USB/Class/Common/HIDParser.c **** 				  CurrStateTable->Attributes.Usage.Page = (ReportItemData >> 16);
 110:../../../../tmk_core/protocol/lufa/LUFA-git/LUFA/Drivers/USB/Class/Common/HIDParser.c **** 
 111:../../../../tmk_core/protocol/lufa/LUFA-git/LUFA/Drivers/USB/Class/Common/HIDParser.c **** 				CurrStateTable->Attributes.Usage.Page       = ReportItemData;
 112:../../../../tmk_core/protocol/lufa/LUFA-git/LUFA/Drivers/USB/Class/Common/HIDParser.c **** 				break;
 113:../../../../tmk_core/protocol/lufa/LUFA-git/LUFA/Drivers/USB/Class/Common/HIDParser.c **** 
 114:../../../../tmk_core/protocol/lufa/LUFA-git/LUFA/Drivers/USB/Class/Common/HIDParser.c **** 			case HID_RI_LOGICAL_MINIMUM(0):
 115:../../../../tmk_core/protocol/lufa/LUFA-git/LUFA/Drivers/USB/Class/Common/HIDParser.c **** 				CurrStateTable->Attributes.Logical.Minimum  = ReportItemData;
 116:../../../../tmk_core/protocol/lufa/LUFA-git/LUFA/Drivers/USB/Class/Common/HIDParser.c **** 				break;
 117:../../../../tmk_core/protocol/lufa/LUFA-git/LUFA/Drivers/USB/Class/Common/HIDParser.c **** 
 118:../../../../tmk_core/protocol/lufa/LUFA-git/LUFA/Drivers/USB/Class/Common/HIDParser.c **** 			case HID_RI_LOGICAL_MAXIMUM(0):
 119:../../../../tmk_core/protocol/lufa/LUFA-git/LUFA/Drivers/USB/Class/Common/HIDParser.c **** 				CurrStateTable->Attributes.Logical.Maximum  = ReportItemData;
 120:../../../../tmk_core/protocol/lufa/LUFA-git/LUFA/Drivers/USB/Class/Common/HIDParser.c **** 				break;
 121:../../../../tmk_core/protocol/lufa/LUFA-git/LUFA/Drivers/USB/Class/Common/HIDParser.c **** 
 122:../../../../tmk_core/protocol/lufa/LUFA-git/LUFA/Drivers/USB/Class/Common/HIDParser.c **** 			case HID_RI_PHYSICAL_MINIMUM(0):
 123:../../../../tmk_core/protocol/lufa/LUFA-git/LUFA/Drivers/USB/Class/Common/HIDParser.c **** 				CurrStateTable->Attributes.Physical.Minimum = ReportItemData;
 124:../../../../tmk_core/protocol/lufa/LUFA-git/LUFA/Drivers/USB/Class/Common/HIDParser.c **** 				break;
 125:../../../../tmk_core/protocol/lufa/LUFA-git/LUFA/Drivers/USB/Class/Common/HIDParser.c **** 
 126:../../../../tmk_core/protocol/lufa/LUFA-git/LUFA/Drivers/USB/Class/Common/HIDParser.c **** 			case HID_RI_PHYSICAL_MAXIMUM(0):
 127:../../../../tmk_core/protocol/lufa/LUFA-git/LUFA/Drivers/USB/Class/Common/HIDParser.c **** 				CurrStateTable->Attributes.Physical.Maximum = ReportItemData;
 128:../../../../tmk_core/protocol/lufa/LUFA-git/LUFA/Drivers/USB/Class/Common/HIDParser.c **** 				break;
 129:../../../../tmk_core/protocol/lufa/LUFA-git/LUFA/Drivers/USB/Class/Common/HIDParser.c **** 
 130:../../../../tmk_core/protocol/lufa/LUFA-git/LUFA/Drivers/USB/Class/Common/HIDParser.c **** 			case HID_RI_UNIT_EXPONENT(0):
 131:../../../../tmk_core/protocol/lufa/LUFA-git/LUFA/Drivers/USB/Class/Common/HIDParser.c **** 				CurrStateTable->Attributes.Unit.Exponent    = ReportItemData;
 132:../../../../tmk_core/protocol/lufa/LUFA-git/LUFA/Drivers/USB/Class/Common/HIDParser.c **** 				break;
 133:../../../../tmk_core/protocol/lufa/LUFA-git/LUFA/Drivers/USB/Class/Common/HIDParser.c **** 
 134:../../../../tmk_core/protocol/lufa/LUFA-git/LUFA/Drivers/USB/Class/Common/HIDParser.c **** 			case HID_RI_UNIT(0):
 135:../../../../tmk_core/protocol/lufa/LUFA-git/LUFA/Drivers/USB/Class/Common/HIDParser.c **** 				CurrStateTable->Attributes.Unit.Type        = ReportItemData;
 136:../../../../tmk_core/protocol/lufa/LUFA-git/LUFA/Drivers/USB/Class/Common/HIDParser.c **** 				break;
 137:../../../../tmk_core/protocol/lufa/LUFA-git/LUFA/Drivers/USB/Class/Common/HIDParser.c **** 
 138:../../../../tmk_core/protocol/lufa/LUFA-git/LUFA/Drivers/USB/Class/Common/HIDParser.c **** 			case HID_RI_REPORT_SIZE(0):
 139:../../../../tmk_core/protocol/lufa/LUFA-git/LUFA/Drivers/USB/Class/Common/HIDParser.c **** 				CurrStateTable->Attributes.BitSize          = ReportItemData;
 140:../../../../tmk_core/protocol/lufa/LUFA-git/LUFA/Drivers/USB/Class/Common/HIDParser.c **** 				break;
 141:../../../../tmk_core/protocol/lufa/LUFA-git/LUFA/Drivers/USB/Class/Common/HIDParser.c **** 
 142:../../../../tmk_core/protocol/lufa/LUFA-git/LUFA/Drivers/USB/Class/Common/HIDParser.c **** 			case HID_RI_REPORT_COUNT(0):
 143:../../../../tmk_core/protocol/lufa/LUFA-git/LUFA/Drivers/USB/Class/Common/HIDParser.c **** 				CurrStateTable->ReportCount                 = ReportItemData;
 144:../../../../tmk_core/protocol/lufa/LUFA-git/LUFA/Drivers/USB/Class/Common/HIDParser.c **** 				break;
 145:../../../../tmk_core/protocol/lufa/LUFA-git/LUFA/Drivers/USB/Class/Common/HIDParser.c **** 
 146:../../../../tmk_core/protocol/lufa/LUFA-git/LUFA/Drivers/USB/Class/Common/HIDParser.c **** 			case HID_RI_REPORT_ID(0):
 147:../../../../tmk_core/protocol/lufa/LUFA-git/LUFA/Drivers/USB/Class/Common/HIDParser.c **** 				CurrStateTable->ReportID                    = ReportItemData;
 148:../../../../tmk_core/protocol/lufa/LUFA-git/LUFA/Drivers/USB/Class/Common/HIDParser.c **** 
 149:../../../../tmk_core/protocol/lufa/LUFA-git/LUFA/Drivers/USB/Class/Common/HIDParser.c **** 				if (ParserData->UsingReportIDs)
 150:../../../../tmk_core/protocol/lufa/LUFA-git/LUFA/Drivers/USB/Class/Common/HIDParser.c **** 				{
 151:../../../../tmk_core/protocol/lufa/LUFA-git/LUFA/Drivers/USB/Class/Common/HIDParser.c **** 					CurrReportIDInfo = NULL;
 152:../../../../tmk_core/protocol/lufa/LUFA-git/LUFA/Drivers/USB/Class/Common/HIDParser.c **** 
 153:../../../../tmk_core/protocol/lufa/LUFA-git/LUFA/Drivers/USB/Class/Common/HIDParser.c **** 					for (uint8_t i = 0; i < ParserData->TotalDeviceReports; i++)
 154:../../../../tmk_core/protocol/lufa/LUFA-git/LUFA/Drivers/USB/Class/Common/HIDParser.c **** 					{
 155:../../../../tmk_core/protocol/lufa/LUFA-git/LUFA/Drivers/USB/Class/Common/HIDParser.c **** 						if (ParserData->ReportIDSizes[i].ReportID == CurrStateTable->ReportID)
 156:../../../../tmk_core/protocol/lufa/LUFA-git/LUFA/Drivers/USB/Class/Common/HIDParser.c **** 						{
 157:../../../../tmk_core/protocol/lufa/LUFA-git/LUFA/Drivers/USB/Class/Common/HIDParser.c **** 							CurrReportIDInfo = &ParserData->ReportIDSizes[i];
 158:../../../../tmk_core/protocol/lufa/LUFA-git/LUFA/Drivers/USB/Class/Common/HIDParser.c **** 							break;
 159:../../../../tmk_core/protocol/lufa/LUFA-git/LUFA/Drivers/USB/Class/Common/HIDParser.c **** 						}
 160:../../../../tmk_core/protocol/lufa/LUFA-git/LUFA/Drivers/USB/Class/Common/HIDParser.c **** 					}
 161:../../../../tmk_core/protocol/lufa/LUFA-git/LUFA/Drivers/USB/Class/Common/HIDParser.c **** 
 162:../../../../tmk_core/protocol/lufa/LUFA-git/LUFA/Drivers/USB/Class/Common/HIDParser.c **** 					if (CurrReportIDInfo == NULL)
 163:../../../../tmk_core/protocol/lufa/LUFA-git/LUFA/Drivers/USB/Class/Common/HIDParser.c **** 					{
 164:../../../../tmk_core/protocol/lufa/LUFA-git/LUFA/Drivers/USB/Class/Common/HIDParser.c **** 						if (ParserData->TotalDeviceReports == HID_MAX_REPORT_IDS)
 165:../../../../tmk_core/protocol/lufa/LUFA-git/LUFA/Drivers/USB/Class/Common/HIDParser.c **** 						  return HID_PARSE_InsufficientReportIDItems;
 166:../../../../tmk_core/protocol/lufa/LUFA-git/LUFA/Drivers/USB/Class/Common/HIDParser.c **** 
 167:../../../../tmk_core/protocol/lufa/LUFA-git/LUFA/Drivers/USB/Class/Common/HIDParser.c **** 						CurrReportIDInfo = &ParserData->ReportIDSizes[ParserData->TotalDeviceReports++];
 168:../../../../tmk_core/protocol/lufa/LUFA-git/LUFA/Drivers/USB/Class/Common/HIDParser.c **** 						memset(CurrReportIDInfo, 0x00, sizeof(HID_ReportSizeInfo_t));
 169:../../../../tmk_core/protocol/lufa/LUFA-git/LUFA/Drivers/USB/Class/Common/HIDParser.c **** 					}
 170:../../../../tmk_core/protocol/lufa/LUFA-git/LUFA/Drivers/USB/Class/Common/HIDParser.c **** 				}
 171:../../../../tmk_core/protocol/lufa/LUFA-git/LUFA/Drivers/USB/Class/Common/HIDParser.c **** 
 172:../../../../tmk_core/protocol/lufa/LUFA-git/LUFA/Drivers/USB/Class/Common/HIDParser.c **** 				ParserData->UsingReportIDs = true;
 173:../../../../tmk_core/protocol/lufa/LUFA-git/LUFA/Drivers/USB/Class/Common/HIDParser.c **** 
 174:../../../../tmk_core/protocol/lufa/LUFA-git/LUFA/Drivers/USB/Class/Common/HIDParser.c **** 				CurrReportIDInfo->ReportID = CurrStateTable->ReportID;
 175:../../../../tmk_core/protocol/lufa/LUFA-git/LUFA/Drivers/USB/Class/Common/HIDParser.c **** 				break;
 176:../../../../tmk_core/protocol/lufa/LUFA-git/LUFA/Drivers/USB/Class/Common/HIDParser.c **** 
 177:../../../../tmk_core/protocol/lufa/LUFA-git/LUFA/Drivers/USB/Class/Common/HIDParser.c **** 			case HID_RI_USAGE(0):
 178:../../../../tmk_core/protocol/lufa/LUFA-git/LUFA/Drivers/USB/Class/Common/HIDParser.c **** 				if (UsageListSize == HID_USAGE_STACK_DEPTH)
 179:../../../../tmk_core/protocol/lufa/LUFA-git/LUFA/Drivers/USB/Class/Common/HIDParser.c **** 				  return HID_PARSE_UsageListOverflow;
 180:../../../../tmk_core/protocol/lufa/LUFA-git/LUFA/Drivers/USB/Class/Common/HIDParser.c **** 
 181:../../../../tmk_core/protocol/lufa/LUFA-git/LUFA/Drivers/USB/Class/Common/HIDParser.c **** 				UsageList[UsageListSize++] = ReportItemData;
 182:../../../../tmk_core/protocol/lufa/LUFA-git/LUFA/Drivers/USB/Class/Common/HIDParser.c **** 				break;
 183:../../../../tmk_core/protocol/lufa/LUFA-git/LUFA/Drivers/USB/Class/Common/HIDParser.c **** 
 184:../../../../tmk_core/protocol/lufa/LUFA-git/LUFA/Drivers/USB/Class/Common/HIDParser.c **** 			case HID_RI_USAGE_MINIMUM(0):
 185:../../../../tmk_core/protocol/lufa/LUFA-git/LUFA/Drivers/USB/Class/Common/HIDParser.c **** 				UsageMinMax.Minimum = ReportItemData;
 186:../../../../tmk_core/protocol/lufa/LUFA-git/LUFA/Drivers/USB/Class/Common/HIDParser.c **** 				break;
 187:../../../../tmk_core/protocol/lufa/LUFA-git/LUFA/Drivers/USB/Class/Common/HIDParser.c **** 
 188:../../../../tmk_core/protocol/lufa/LUFA-git/LUFA/Drivers/USB/Class/Common/HIDParser.c **** 			case HID_RI_USAGE_MAXIMUM(0):
 189:../../../../tmk_core/protocol/lufa/LUFA-git/LUFA/Drivers/USB/Class/Common/HIDParser.c **** 				UsageMinMax.Maximum = ReportItemData;
 190:../../../../tmk_core/protocol/lufa/LUFA-git/LUFA/Drivers/USB/Class/Common/HIDParser.c **** 				break;
 191:../../../../tmk_core/protocol/lufa/LUFA-git/LUFA/Drivers/USB/Class/Common/HIDParser.c **** 
 192:../../../../tmk_core/protocol/lufa/LUFA-git/LUFA/Drivers/USB/Class/Common/HIDParser.c **** 			case HID_RI_COLLECTION(0):
 193:../../../../tmk_core/protocol/lufa/LUFA-git/LUFA/Drivers/USB/Class/Common/HIDParser.c **** 				if (CurrCollectionPath == NULL)
 194:../../../../tmk_core/protocol/lufa/LUFA-git/LUFA/Drivers/USB/Class/Common/HIDParser.c **** 				{
 195:../../../../tmk_core/protocol/lufa/LUFA-git/LUFA/Drivers/USB/Class/Common/HIDParser.c **** 					CurrCollectionPath = &ParserData->CollectionPaths[0];
 196:../../../../tmk_core/protocol/lufa/LUFA-git/LUFA/Drivers/USB/Class/Common/HIDParser.c **** 				}
 197:../../../../tmk_core/protocol/lufa/LUFA-git/LUFA/Drivers/USB/Class/Common/HIDParser.c **** 				else
 198:../../../../tmk_core/protocol/lufa/LUFA-git/LUFA/Drivers/USB/Class/Common/HIDParser.c **** 				{
 199:../../../../tmk_core/protocol/lufa/LUFA-git/LUFA/Drivers/USB/Class/Common/HIDParser.c **** 					HID_CollectionPath_t* ParentCollectionPath = CurrCollectionPath;
 200:../../../../tmk_core/protocol/lufa/LUFA-git/LUFA/Drivers/USB/Class/Common/HIDParser.c **** 
 201:../../../../tmk_core/protocol/lufa/LUFA-git/LUFA/Drivers/USB/Class/Common/HIDParser.c **** 					CurrCollectionPath = &ParserData->CollectionPaths[1];
 202:../../../../tmk_core/protocol/lufa/LUFA-git/LUFA/Drivers/USB/Class/Common/HIDParser.c **** 
 203:../../../../tmk_core/protocol/lufa/LUFA-git/LUFA/Drivers/USB/Class/Common/HIDParser.c **** 					while (CurrCollectionPath->Parent != NULL)
 204:../../../../tmk_core/protocol/lufa/LUFA-git/LUFA/Drivers/USB/Class/Common/HIDParser.c **** 					{
 205:../../../../tmk_core/protocol/lufa/LUFA-git/LUFA/Drivers/USB/Class/Common/HIDParser.c **** 						if (CurrCollectionPath == &ParserData->CollectionPaths[HID_MAX_COLLECTIONS - 1])
 206:../../../../tmk_core/protocol/lufa/LUFA-git/LUFA/Drivers/USB/Class/Common/HIDParser.c **** 						  return HID_PARSE_InsufficientCollectionPaths;
 207:../../../../tmk_core/protocol/lufa/LUFA-git/LUFA/Drivers/USB/Class/Common/HIDParser.c **** 
 208:../../../../tmk_core/protocol/lufa/LUFA-git/LUFA/Drivers/USB/Class/Common/HIDParser.c **** 						CurrCollectionPath++;
 209:../../../../tmk_core/protocol/lufa/LUFA-git/LUFA/Drivers/USB/Class/Common/HIDParser.c **** 					}
 210:../../../../tmk_core/protocol/lufa/LUFA-git/LUFA/Drivers/USB/Class/Common/HIDParser.c **** 
 211:../../../../tmk_core/protocol/lufa/LUFA-git/LUFA/Drivers/USB/Class/Common/HIDParser.c **** 					CurrCollectionPath->Parent = ParentCollectionPath;
 212:../../../../tmk_core/protocol/lufa/LUFA-git/LUFA/Drivers/USB/Class/Common/HIDParser.c **** 				}
 213:../../../../tmk_core/protocol/lufa/LUFA-git/LUFA/Drivers/USB/Class/Common/HIDParser.c **** 
 214:../../../../tmk_core/protocol/lufa/LUFA-git/LUFA/Drivers/USB/Class/Common/HIDParser.c **** 				CurrCollectionPath->Type       = ReportItemData;
 215:../../../../tmk_core/protocol/lufa/LUFA-git/LUFA/Drivers/USB/Class/Common/HIDParser.c **** 				CurrCollectionPath->Usage.Page = CurrStateTable->Attributes.Usage.Page;
 216:../../../../tmk_core/protocol/lufa/LUFA-git/LUFA/Drivers/USB/Class/Common/HIDParser.c **** 
 217:../../../../tmk_core/protocol/lufa/LUFA-git/LUFA/Drivers/USB/Class/Common/HIDParser.c **** 				if (UsageListSize)
 218:../../../../tmk_core/protocol/lufa/LUFA-git/LUFA/Drivers/USB/Class/Common/HIDParser.c **** 				{
 219:../../../../tmk_core/protocol/lufa/LUFA-git/LUFA/Drivers/USB/Class/Common/HIDParser.c **** 					CurrCollectionPath->Usage.Usage = UsageList[0];
 220:../../../../tmk_core/protocol/lufa/LUFA-git/LUFA/Drivers/USB/Class/Common/HIDParser.c **** 
 221:../../../../tmk_core/protocol/lufa/LUFA-git/LUFA/Drivers/USB/Class/Common/HIDParser.c **** 					for (uint8_t i = 1; i < UsageListSize; i++)
 222:../../../../tmk_core/protocol/lufa/LUFA-git/LUFA/Drivers/USB/Class/Common/HIDParser.c **** 					  UsageList[i - 1] = UsageList[i];
 223:../../../../tmk_core/protocol/lufa/LUFA-git/LUFA/Drivers/USB/Class/Common/HIDParser.c **** 
 224:../../../../tmk_core/protocol/lufa/LUFA-git/LUFA/Drivers/USB/Class/Common/HIDParser.c **** 					UsageListSize--;
 225:../../../../tmk_core/protocol/lufa/LUFA-git/LUFA/Drivers/USB/Class/Common/HIDParser.c **** 				}
 226:../../../../tmk_core/protocol/lufa/LUFA-git/LUFA/Drivers/USB/Class/Common/HIDParser.c **** 				else if (UsageMinMax.Minimum <= UsageMinMax.Maximum)
 227:../../../../tmk_core/protocol/lufa/LUFA-git/LUFA/Drivers/USB/Class/Common/HIDParser.c **** 				{
 228:../../../../tmk_core/protocol/lufa/LUFA-git/LUFA/Drivers/USB/Class/Common/HIDParser.c **** 					CurrCollectionPath->Usage.Usage = UsageMinMax.Minimum++;
 229:../../../../tmk_core/protocol/lufa/LUFA-git/LUFA/Drivers/USB/Class/Common/HIDParser.c **** 				}
 230:../../../../tmk_core/protocol/lufa/LUFA-git/LUFA/Drivers/USB/Class/Common/HIDParser.c **** 
 231:../../../../tmk_core/protocol/lufa/LUFA-git/LUFA/Drivers/USB/Class/Common/HIDParser.c **** 				break;
 232:../../../../tmk_core/protocol/lufa/LUFA-git/LUFA/Drivers/USB/Class/Common/HIDParser.c **** 
 233:../../../../tmk_core/protocol/lufa/LUFA-git/LUFA/Drivers/USB/Class/Common/HIDParser.c **** 			case HID_RI_END_COLLECTION(0):
 234:../../../../tmk_core/protocol/lufa/LUFA-git/LUFA/Drivers/USB/Class/Common/HIDParser.c **** 				if (CurrCollectionPath == NULL)
 235:../../../../tmk_core/protocol/lufa/LUFA-git/LUFA/Drivers/USB/Class/Common/HIDParser.c **** 				  return HID_PARSE_UnexpectedEndCollection;
 236:../../../../tmk_core/protocol/lufa/LUFA-git/LUFA/Drivers/USB/Class/Common/HIDParser.c **** 
 237:../../../../tmk_core/protocol/lufa/LUFA-git/LUFA/Drivers/USB/Class/Common/HIDParser.c **** 				CurrCollectionPath = CurrCollectionPath->Parent;
 238:../../../../tmk_core/protocol/lufa/LUFA-git/LUFA/Drivers/USB/Class/Common/HIDParser.c **** 				break;
 239:../../../../tmk_core/protocol/lufa/LUFA-git/LUFA/Drivers/USB/Class/Common/HIDParser.c **** 
 240:../../../../tmk_core/protocol/lufa/LUFA-git/LUFA/Drivers/USB/Class/Common/HIDParser.c **** 			case HID_RI_INPUT(0):
 241:../../../../tmk_core/protocol/lufa/LUFA-git/LUFA/Drivers/USB/Class/Common/HIDParser.c **** 			case HID_RI_OUTPUT(0):
 242:../../../../tmk_core/protocol/lufa/LUFA-git/LUFA/Drivers/USB/Class/Common/HIDParser.c **** 			case HID_RI_FEATURE(0):
 243:../../../../tmk_core/protocol/lufa/LUFA-git/LUFA/Drivers/USB/Class/Common/HIDParser.c **** 				for (uint8_t ReportItemNum = 0; ReportItemNum < CurrStateTable->ReportCount; ReportItemNum++)
 244:../../../../tmk_core/protocol/lufa/LUFA-git/LUFA/Drivers/USB/Class/Common/HIDParser.c **** 				{
 245:../../../../tmk_core/protocol/lufa/LUFA-git/LUFA/Drivers/USB/Class/Common/HIDParser.c **** 					HID_ReportItem_t NewReportItem;
 246:../../../../tmk_core/protocol/lufa/LUFA-git/LUFA/Drivers/USB/Class/Common/HIDParser.c **** 
 247:../../../../tmk_core/protocol/lufa/LUFA-git/LUFA/Drivers/USB/Class/Common/HIDParser.c **** 					memcpy(&NewReportItem.Attributes,
 248:../../../../tmk_core/protocol/lufa/LUFA-git/LUFA/Drivers/USB/Class/Common/HIDParser.c **** 					       &CurrStateTable->Attributes,
 249:../../../../tmk_core/protocol/lufa/LUFA-git/LUFA/Drivers/USB/Class/Common/HIDParser.c **** 					       sizeof(HID_ReportItem_Attributes_t));
 250:../../../../tmk_core/protocol/lufa/LUFA-git/LUFA/Drivers/USB/Class/Common/HIDParser.c **** 
 251:../../../../tmk_core/protocol/lufa/LUFA-git/LUFA/Drivers/USB/Class/Common/HIDParser.c **** 					NewReportItem.ItemFlags      = ReportItemData;
 252:../../../../tmk_core/protocol/lufa/LUFA-git/LUFA/Drivers/USB/Class/Common/HIDParser.c **** 					NewReportItem.CollectionPath = CurrCollectionPath;
 253:../../../../tmk_core/protocol/lufa/LUFA-git/LUFA/Drivers/USB/Class/Common/HIDParser.c **** 					NewReportItem.ReportID       = CurrStateTable->ReportID;
 254:../../../../tmk_core/protocol/lufa/LUFA-git/LUFA/Drivers/USB/Class/Common/HIDParser.c **** 
 255:../../../../tmk_core/protocol/lufa/LUFA-git/LUFA/Drivers/USB/Class/Common/HIDParser.c **** 					if (UsageListSize)
 256:../../../../tmk_core/protocol/lufa/LUFA-git/LUFA/Drivers/USB/Class/Common/HIDParser.c **** 					{
 257:../../../../tmk_core/protocol/lufa/LUFA-git/LUFA/Drivers/USB/Class/Common/HIDParser.c **** 						NewReportItem.Attributes.Usage.Usage = UsageList[0];
 258:../../../../tmk_core/protocol/lufa/LUFA-git/LUFA/Drivers/USB/Class/Common/HIDParser.c **** 
 259:../../../../tmk_core/protocol/lufa/LUFA-git/LUFA/Drivers/USB/Class/Common/HIDParser.c **** 						for (uint8_t i = 1; i < UsageListSize; i++)
 260:../../../../tmk_core/protocol/lufa/LUFA-git/LUFA/Drivers/USB/Class/Common/HIDParser.c **** 						  UsageList[i - 1] = UsageList[i];
 261:../../../../tmk_core/protocol/lufa/LUFA-git/LUFA/Drivers/USB/Class/Common/HIDParser.c **** 
 262:../../../../tmk_core/protocol/lufa/LUFA-git/LUFA/Drivers/USB/Class/Common/HIDParser.c **** 						UsageListSize--;
 263:../../../../tmk_core/protocol/lufa/LUFA-git/LUFA/Drivers/USB/Class/Common/HIDParser.c **** 					}
 264:../../../../tmk_core/protocol/lufa/LUFA-git/LUFA/Drivers/USB/Class/Common/HIDParser.c **** 					else if (UsageMinMax.Minimum <= UsageMinMax.Maximum)
 265:../../../../tmk_core/protocol/lufa/LUFA-git/LUFA/Drivers/USB/Class/Common/HIDParser.c **** 					{
 266:../../../../tmk_core/protocol/lufa/LUFA-git/LUFA/Drivers/USB/Class/Common/HIDParser.c **** 						NewReportItem.Attributes.Usage.Usage = UsageMinMax.Minimum++;
 267:../../../../tmk_core/protocol/lufa/LUFA-git/LUFA/Drivers/USB/Class/Common/HIDParser.c **** 					}
 268:../../../../tmk_core/protocol/lufa/LUFA-git/LUFA/Drivers/USB/Class/Common/HIDParser.c **** 
 269:../../../../tmk_core/protocol/lufa/LUFA-git/LUFA/Drivers/USB/Class/Common/HIDParser.c **** 					uint8_t ItemTypeTag = (HIDReportItem & (HID_RI_TYPE_MASK | HID_RI_TAG_MASK));
 270:../../../../tmk_core/protocol/lufa/LUFA-git/LUFA/Drivers/USB/Class/Common/HIDParser.c **** 
 271:../../../../tmk_core/protocol/lufa/LUFA-git/LUFA/Drivers/USB/Class/Common/HIDParser.c **** 					if (ItemTypeTag == HID_RI_INPUT(0))
 272:../../../../tmk_core/protocol/lufa/LUFA-git/LUFA/Drivers/USB/Class/Common/HIDParser.c **** 					  NewReportItem.ItemType = HID_REPORT_ITEM_In;
 273:../../../../tmk_core/protocol/lufa/LUFA-git/LUFA/Drivers/USB/Class/Common/HIDParser.c **** 					else if (ItemTypeTag == HID_RI_OUTPUT(0))
 274:../../../../tmk_core/protocol/lufa/LUFA-git/LUFA/Drivers/USB/Class/Common/HIDParser.c **** 					  NewReportItem.ItemType = HID_REPORT_ITEM_Out;
 275:../../../../tmk_core/protocol/lufa/LUFA-git/LUFA/Drivers/USB/Class/Common/HIDParser.c **** 					else
 276:../../../../tmk_core/protocol/lufa/LUFA-git/LUFA/Drivers/USB/Class/Common/HIDParser.c **** 					  NewReportItem.ItemType = HID_REPORT_ITEM_Feature;
 277:../../../../tmk_core/protocol/lufa/LUFA-git/LUFA/Drivers/USB/Class/Common/HIDParser.c **** 
 278:../../../../tmk_core/protocol/lufa/LUFA-git/LUFA/Drivers/USB/Class/Common/HIDParser.c **** 					NewReportItem.BitOffset = CurrReportIDInfo->ReportSizeBits[NewReportItem.ItemType];
 279:../../../../tmk_core/protocol/lufa/LUFA-git/LUFA/Drivers/USB/Class/Common/HIDParser.c **** 
 280:../../../../tmk_core/protocol/lufa/LUFA-git/LUFA/Drivers/USB/Class/Common/HIDParser.c **** 					CurrReportIDInfo->ReportSizeBits[NewReportItem.ItemType] += CurrStateTable->Attributes.BitSize
 281:../../../../tmk_core/protocol/lufa/LUFA-git/LUFA/Drivers/USB/Class/Common/HIDParser.c **** 
 282:../../../../tmk_core/protocol/lufa/LUFA-git/LUFA/Drivers/USB/Class/Common/HIDParser.c **** 					ParserData->LargestReportSizeBits = MAX(ParserData->LargestReportSizeBits, CurrReportIDInfo->R
 172               		.loc 1 282 0
 173 008e F601      		movw r30,r12
 174 0090 EA52      		subi r30,42
 175 0092 FC4F      		sbci r31,-4
 176 0094 EF96      		adiw r28,125-62
 177 0096 FFAF      		std Y+63,r31
 178 0098 EEAF      		std Y+62,r30
 179 009a EF97      		sbiw r28,125-62
 180               	.LBE4:
 181               	.LBE3:
 182               	.LBB8:
 201:../../../../tmk_core/protocol/lufa/LUFA-git/LUFA/Drivers/USB/Class/Common/HIDParser.c **** 					CurrCollectionPath = &ParserData->CollectionPaths[1];
 183               		.loc 1 201 0
 184 009c C601      		movw r24,r12
 185 009e 805B      		subi r24,-80
 186 00a0 9C4F      		sbci r25,-4
 187 00a2 CD57      		subi r28,lo8(-131)
 188 00a4 DF4F      		sbci r29,hi8(-131)
 189 00a6 9983      		std Y+1,r25
 190 00a8 8883      		st Y,r24
 191 00aa C358      		subi r28,lo8(131)
 192 00ac D040      		sbci r29,hi8(131)
 205:../../../../tmk_core/protocol/lufa/LUFA-git/LUFA/Drivers/USB/Class/Common/HIDParser.c **** 						if (CurrCollectionPath == &ParserData->CollectionPaths[HID_MAX_COLLECTIONS - 1])
 193               		.loc 1 205 0
 194 00ae D601      		movw r26,r12
 195 00b0 A857      		subi r26,120
 196 00b2 BC4F      		sbci r27,-4
 197 00b4 CB57      		subi r28,lo8(-133)
 198 00b6 DF4F      		sbci r29,hi8(-133)
 199 00b8 B983      		std Y+1,r27
 200 00ba A883      		st Y,r26
 201 00bc C558      		subi r28,lo8(133)
 202 00be D040      		sbci r29,hi8(133)
 203               	.LBE8:
 204               	.LBE2:
  53:../../../../tmk_core/protocol/lufa/LUFA-git/LUFA/Drivers/USB/Class/Common/HIDParser.c **** 	while (ReportSize)
 205               		.loc 1 53 0
 206 00c0 00C0      		rjmp .L88
 207               	.LVL5:
 208               	.L60:
 209               	.LBB15:
  55:../../../../tmk_core/protocol/lufa/LUFA-git/LUFA/Drivers/USB/Class/Common/HIDParser.c **** 		uint8_t  HIDReportItem  = *ReportData;
 210               		.loc 1 55 0
 211 00c2 F101      		movw r30,r2
 212 00c4 F081      		ld r31,Z
 213 00c6 E996      		adiw r28,120-63
 214 00c8 FFAF      		std Y+63,r31
 215 00ca E997      		sbiw r28,120-63
 216               	.LVL6:
  59:../../../../tmk_core/protocol/lufa/LUFA-git/LUFA/Drivers/USB/Class/Common/HIDParser.c **** 		ReportSize--;
 217               		.loc 1 59 0
 218 00cc 6150      		subi r22,1
 219 00ce 7109      		sbc r23,__zero_reg__
 220               	.LVL7:
  61:../../../../tmk_core/protocol/lufa/LUFA-git/LUFA/Drivers/USB/Class/Common/HIDParser.c **** 		switch (HIDReportItem & HID_RI_DATA_SIZE_MASK)
 221               		.loc 1 61 0
 222 00d0 8F2F      		mov r24,r31
 223 00d2 8370      		andi r24,lo8(3)
 224 00d4 8230      		cpi r24,lo8(2)
 225 00d6 01F0      		breq .L5
 226               	.LVL8:
 227 00d8 8330      		cpi r24,lo8(3)
 228 00da 01F0      		breq .L6
 229 00dc 8130      		cpi r24,lo8(1)
 230 00de 01F4      		brne .+2
 231 00e0 00C0      		rjmp .L4
  58:../../../../tmk_core/protocol/lufa/LUFA-git/LUFA/Drivers/USB/Class/Common/HIDParser.c **** 		ReportData++;
 232               		.loc 1 58 0
 233 00e2 8FEF      		ldi r24,-1
 234 00e4 281A      		sub r2,r24
 235 00e6 380A      		sbc r3,r24
 236               	.LVL9:
  83:../../../../tmk_core/protocol/lufa/LUFA-git/LUFA/Drivers/USB/Class/Common/HIDParser.c **** 				ReportItemData  = 0;
 237               		.loc 1 83 0
 238 00e8 812C      		mov r8,__zero_reg__
 239 00ea 912C      		mov r9,__zero_reg__
 240 00ec 5401      		movw r10,r8
 241 00ee 00C0      		rjmp .L7
 242               	.LVL10:
 243               	.L6:
  64:../../../../tmk_core/protocol/lufa/LUFA-git/LUFA/Drivers/USB/Class/Common/HIDParser.c **** 				ReportItemData  = (((uint32_t)ReportData[3] << 24) | ((uint32_t)ReportData[2] << 16) |
 244               		.loc 1 64 0
 245 00f0 D101      		movw r26,r2
 246 00f2 1496      		adiw r26,4
 247 00f4 8C91      		ld r24,X
 248 00f6 1497      		sbiw r26,4
 249 00f8 1396      		adiw r26,3
 250 00fa 8C90      		ld r8,X
 251 00fc 1397      		sbiw r26,3
 252 00fe 912C      		mov r9,__zero_reg__
 253 0100 A12C      		mov r10,__zero_reg__
 254 0102 B12C      		mov r11,__zero_reg__
 255 0104 5401      		movw r10,r8
 256 0106 9924      		clr r9
 257 0108 8824      		clr r8
 258 010a B82A      		or r11,r24
  65:../../../../tmk_core/protocol/lufa/LUFA-git/LUFA/Drivers/USB/Class/Common/HIDParser.c **** 			                       ((uint16_t)ReportData[1] << 8)  | ReportData[0]);
 259               		.loc 1 65 0
 260 010c 1196      		adiw r26,1
 261 010e 8C91      		ld r24,X
 262 0110 1197      		sbiw r26,1
  64:../../../../tmk_core/protocol/lufa/LUFA-git/LUFA/Drivers/USB/Class/Common/HIDParser.c **** 				ReportItemData  = (((uint32_t)ReportData[3] << 24) | ((uint32_t)ReportData[2] << 16) |
 263               		.loc 1 64 0
 264 0112 882A      		or r8,r24
  65:../../../../tmk_core/protocol/lufa/LUFA-git/LUFA/Drivers/USB/Class/Common/HIDParser.c **** 			                       ((uint16_t)ReportData[1] << 8)  | ReportData[0]);
 265               		.loc 1 65 0
 266 0114 1296      		adiw r26,2
 267 0116 BC91      		ld r27,X
 268 0118 EB96      		adiw r28,122-63
 269 011a BFAF      		std Y+63,r27
 270 011c EB97      		sbiw r28,122-63
 271 011e EA96      		adiw r28,121-63
 272 0120 1FAE      		std Y+63,__zero_reg__
 273 0122 EA97      		sbiw r28,121-63
  64:../../../../tmk_core/protocol/lufa/LUFA-git/LUFA/Drivers/USB/Class/Common/HIDParser.c **** 				ReportItemData  = (((uint32_t)ReportData[3] << 24) | ((uint32_t)ReportData[2] << 16) |
 274               		.loc 1 64 0
 275 0124 EB96      		adiw r28,121-62
 276 0126 EEAD      		ldd r30,Y+62
 277 0128 FFAD      		ldd r31,Y+63
 278 012a EB97      		sbiw r28,121-62
 279 012c CF01      		movw r24,r30
 280 012e A0E0      		ldi r26,0
 281 0130 B0E0      		ldi r27,0
 282 0132 882A      		or r8,r24
 283 0134 992A      		or r9,r25
 284 0136 AA2A      		or r10,r26
 285 0138 BB2A      		or r11,r27
 286               	.LVL11:
  66:../../../../tmk_core/protocol/lufa/LUFA-git/LUFA/Drivers/USB/Class/Common/HIDParser.c **** 				ReportSize     -= 4;
 287               		.loc 1 66 0
 288 013a 6450      		subi r22,4
 289 013c 7109      		sbc r23,__zero_reg__
 290               	.LVL12:
  67:../../../../tmk_core/protocol/lufa/LUFA-git/LUFA/Drivers/USB/Class/Common/HIDParser.c **** 				ReportData     += 4;
 291               		.loc 1 67 0
 292 013e F5E0      		ldi r31,5
 293 0140 2F0E      		add r2,r31
 294 0142 311C      		adc r3,__zero_reg__
 295               	.LVL13:
  68:../../../../tmk_core/protocol/lufa/LUFA-git/LUFA/Drivers/USB/Class/Common/HIDParser.c **** 				break;
 296               		.loc 1 68 0
 297 0144 00C0      		rjmp .L7
 298               	.LVL14:
 299               	.L5:
  71:../../../../tmk_core/protocol/lufa/LUFA-git/LUFA/Drivers/USB/Class/Common/HIDParser.c **** 				ReportItemData  = (((uint16_t)ReportData[1] << 8) | (ReportData[0]));
 300               		.loc 1 71 0
 301 0146 D101      		movw r26,r2
 302 0148 1296      		adiw r26,2
 303 014a BC91      		ld r27,X
 304 014c ED96      		adiw r28,124-63
 305 014e BFAF      		std Y+63,r27
 306 0150 ED97      		sbiw r28,124-63
 307 0152 EC96      		adiw r28,123-63
 308 0154 1FAE      		std Y+63,__zero_reg__
 309 0156 EC97      		sbiw r28,123-63
 310 0158 F101      		movw r30,r2
 311 015a 8181      		ldd r24,Z+1
 312 015c ED96      		adiw r28,123-62
 313 015e 8EAC      		ldd r8,Y+62
 314 0160 9FAC      		ldd r9,Y+63
 315 0162 ED97      		sbiw r28,123-62
 316 0164 882A      		or r8,r24
 317 0166 A12C      		mov r10,__zero_reg__
 318 0168 B12C      		mov r11,__zero_reg__
 319               	.LVL15:
  72:../../../../tmk_core/protocol/lufa/LUFA-git/LUFA/Drivers/USB/Class/Common/HIDParser.c **** 				ReportSize     -= 2;
 320               		.loc 1 72 0
 321 016a 6250      		subi r22,2
 322 016c 7109      		sbc r23,__zero_reg__
 323               	.LVL16:
  73:../../../../tmk_core/protocol/lufa/LUFA-git/LUFA/Drivers/USB/Class/Common/HIDParser.c **** 				ReportData     += 2;
 324               		.loc 1 73 0
 325 016e F3E0      		ldi r31,3
 326 0170 2F0E      		add r2,r31
 327 0172 311C      		adc r3,__zero_reg__
 328               	.LVL17:
  74:../../../../tmk_core/protocol/lufa/LUFA-git/LUFA/Drivers/USB/Class/Common/HIDParser.c **** 				break;
 329               		.loc 1 74 0
 330 0174 00C0      		rjmp .L7
 331               	.LVL18:
 332               	.L4:
  77:../../../../tmk_core/protocol/lufa/LUFA-git/LUFA/Drivers/USB/Class/Common/HIDParser.c **** 				ReportItemData  = ReportData[0];
 333               		.loc 1 77 0
 334 0176 D101      		movw r26,r2
 335 0178 1196      		adiw r26,1
 336 017a 8C90      		ld r8,X
 337 017c 912C      		mov r9,__zero_reg__
 338 017e A12C      		mov r10,__zero_reg__
 339 0180 B12C      		mov r11,__zero_reg__
 340               	.LVL19:
  78:../../../../tmk_core/protocol/lufa/LUFA-git/LUFA/Drivers/USB/Class/Common/HIDParser.c **** 				ReportSize     -= 1;
 341               		.loc 1 78 0
 342 0182 6150      		subi r22,1
 343 0184 7109      		sbc r23,__zero_reg__
 344               	.LVL20:
  79:../../../../tmk_core/protocol/lufa/LUFA-git/LUFA/Drivers/USB/Class/Common/HIDParser.c **** 				ReportData     += 1;
 345               		.loc 1 79 0
 346 0186 B2E0      		ldi r27,2
 347 0188 2B0E      		add r2,r27
 348 018a 311C      		adc r3,__zero_reg__
 349               	.LVL21:
 350               	.L7:
  87:../../../../tmk_core/protocol/lufa/LUFA-git/LUFA/Drivers/USB/Class/Common/HIDParser.c **** 		switch (HIDReportItem & (HID_RI_TYPE_MASK | HID_RI_TAG_MASK))
 351               		.loc 1 87 0
 352 018c E996      		adiw r28,120-63
 353 018e 1FAD      		ldd r17,Y+63
 354 0190 E997      		sbiw r28,120-63
 355 0192 1C7F      		andi r17,lo8(-4)
 356 0194 1436      		cpi r17,lo8(100)
 357 0196 01F4      		brne .+2
 358 0198 00C0      		rjmp .L18
 359 019a 00F4      		brsh .L27
 360 019c 1432      		cpi r17,lo8(36)
 361 019e 01F4      		brne .+2
 362 01a0 00C0      		rjmp .L13
 363 01a2 00F4      		brsh .L28
 364 01a4 1830      		cpi r17,lo8(8)
 365 01a6 01F4      		brne .+2
 366 01a8 00C0      		rjmp .L10
 367 01aa 00F4      		brsh .L29
 368 01ac 1430      		cpi r17,lo8(4)
 369 01ae 01F0      		breq .+2
 370 01b0 00C0      		rjmp .L12
 371 01b2 00C0      		rjmp .L9
 372               	.L29:
 373 01b4 1431      		cpi r17,lo8(20)
 374 01b6 01F4      		brne .+2
 375 01b8 00C0      		rjmp .L11
 376 01ba 1831      		cpi r17,lo8(24)
 377 01bc 01F0      		breq .+2
 378 01be 00C0      		rjmp .L12
 379 01c0 00C0      		rjmp .L62
 380               	.L28:
 381 01c2 1433      		cpi r17,lo8(52)
 382 01c4 01F4      		brne .+2
 383 01c6 00C0      		rjmp .L15
 384 01c8 00F4      		brsh .L30
 385 01ca 1832      		cpi r17,lo8(40)
 386 01cc 01F0      		breq .+2
 387 01ce 00C0      		rjmp .L12
 388 01d0 00C0      		rjmp .L14
 389               	.L30:
 390 01d2 1434      		cpi r17,lo8(68)
 391 01d4 01F4      		brne .+2
 392 01d6 00C0      		rjmp .L16
 393 01d8 1435      		cpi r17,lo8(84)
 394 01da 01F0      		breq .+2
 395 01dc 00C0      		rjmp .L12
 396 01de 00C0      		rjmp .L17
 397               	.L27:
 398 01e0 1439      		cpi r17,lo8(-108)
 399 01e2 01F4      		brne .+2
 400 01e4 00C0      		rjmp .L22
 401 01e6 00F4      		brsh .L31
 402 01e8 1038      		cpi r17,lo8(-128)
 403 01ea 01F4      		brne .+2
 404 01ec 00C0      		rjmp .L63
 405 01ee 00F4      		brsh .L32
 406 01f0 1437      		cpi r17,lo8(116)
 407 01f2 01F0      		breq .+2
 408 01f4 00C0      		rjmp .L12
 409 01f6 00C0      		rjmp .L19
 410               	.L32:
 411 01f8 1438      		cpi r17,lo8(-124)
 412 01fa 01F4      		brne .+2
 413 01fc 00C0      		rjmp .L21
 414 01fe 1039      		cpi r17,lo8(-112)
 415 0200 01F0      		breq .+2
 416 0202 00C0      		rjmp .L12
 417 0204 00C0      		rjmp .L63
 418               	.L31:
 419 0206 103B      		cpi r17,lo8(-80)
 420 0208 01F4      		brne .+2
 421 020a 00C0      		rjmp .L63
 422 020c 00F4      		brsh .L33
 423 020e 103A      		cpi r17,lo8(-96)
 424 0210 01F4      		brne .+2
 425 0212 00C0      		rjmp .L23
 426 0214 143A      		cpi r17,lo8(-92)
 427 0216 01F0      		breq .+2
 428 0218 00C0      		rjmp .L12
 429 021a 00C0      		rjmp .L24
 430               	.L33:
 431 021c 143B      		cpi r17,lo8(-76)
 432 021e 01F0      		breq .L25
 433 0220 103C      		cpi r17,lo8(-64)
 434 0222 01F0      		breq .+2
 435 0224 00C0      		rjmp .L12
 436 0226 00C0      		rjmp .L26
 437               	.L24:
  90:../../../../tmk_core/protocol/lufa/LUFA-git/LUFA/Drivers/USB/Class/Common/HIDParser.c **** 				if (CurrStateTable == &StateTable[HID_STATETABLE_STACK_DEPTH - 1])
 438               		.loc 1 90 0
 439 0228 CE01      		movw r24,r28
 440 022a 4D96      		adiw r24,29
 441 022c E816      		cp r14,r24
 442 022e F906      		cpc r15,r25
 443 0230 01F4      		brne .+2
 444 0232 00C0      		rjmp .L64
  93:../../../../tmk_core/protocol/lufa/LUFA-git/LUFA/Drivers/USB/Class/Common/HIDParser.c **** 				memcpy((CurrStateTable + 1),
 445               		.loc 1 93 0
 446 0234 C701      		movw r24,r14
 447 0236 4C96      		adiw r24,28
 448 0238 1AE2      		ldi r17,lo8(42)
 449 023a F701      		movw r30,r14
 450 023c DC01      		movw r26,r24
 451               		0:
 452 023e 0190      		ld r0,Z+
 453 0240 0D92      		st X+,r0
 454 0242 1A95      		dec r17
 455 0244 01F4      		brne 0b
 456               	.LVL22:
  97:../../../../tmk_core/protocol/lufa/LUFA-git/LUFA/Drivers/USB/Class/Common/HIDParser.c **** 				CurrStateTable++;
 457               		.loc 1 97 0
 458 0246 7C01      		movw r14,r24
  98:../../../../tmk_core/protocol/lufa/LUFA-git/LUFA/Drivers/USB/Class/Common/HIDParser.c **** 				break;
 459               		.loc 1 98 0
 460 0248 00C0      		rjmp .L12
 461               	.LVL23:
 462               	.L25:
 101:../../../../tmk_core/protocol/lufa/LUFA-git/LUFA/Drivers/USB/Class/Common/HIDParser.c **** 				if (CurrStateTable == &StateTable[0])
 463               		.loc 1 101 0
 464 024a CE01      		movw r24,r28
 465 024c 0196      		adiw r24,1
 466 024e E816      		cp r14,r24
 467 0250 F906      		cpc r15,r25
 468 0252 01F4      		brne .+2
 469 0254 00C0      		rjmp .L65
 104:../../../../tmk_core/protocol/lufa/LUFA-git/LUFA/Drivers/USB/Class/Common/HIDParser.c **** 				CurrStateTable--;
 470               		.loc 1 104 0
 471 0256 ECE1      		ldi r30,28
 472 0258 EE1A      		sub r14,r30
 473 025a F108      		sbc r15,__zero_reg__
 474               	.LVL24:
 105:../../../../tmk_core/protocol/lufa/LUFA-git/LUFA/Drivers/USB/Class/Common/HIDParser.c **** 				break;
 475               		.loc 1 105 0
 476 025c 00C0      		rjmp .L12
 477               	.L9:
 111:../../../../tmk_core/protocol/lufa/LUFA-git/LUFA/Drivers/USB/Class/Common/HIDParser.c **** 				CurrStateTable->Attributes.Usage.Page       = ReportItemData;
 478               		.loc 1 111 0
 479 025e D701      		movw r26,r14
 480 0260 1296      		adiw r26,1+1
 481 0262 9C92      		st X,r9
 482 0264 8E92      		st -X,r8
 483 0266 1197      		sbiw r26,1
 112:../../../../tmk_core/protocol/lufa/LUFA-git/LUFA/Drivers/USB/Class/Common/HIDParser.c **** 				break;
 484               		.loc 1 112 0
 485 0268 00C0      		rjmp .L12
 486               	.L11:
 115:../../../../tmk_core/protocol/lufa/LUFA-git/LUFA/Drivers/USB/Class/Common/HIDParser.c **** 				CurrStateTable->Attributes.Logical.Minimum  = ReportItemData;
 487               		.loc 1 115 0
 488 026a F701      		movw r30,r14
 489 026c 8286      		std Z+10,r8
 490 026e 9386      		std Z+11,r9
 491 0270 A486      		std Z+12,r10
 492 0272 B586      		std Z+13,r11
 116:../../../../tmk_core/protocol/lufa/LUFA-git/LUFA/Drivers/USB/Class/Common/HIDParser.c **** 				break;
 493               		.loc 1 116 0
 494 0274 00C0      		rjmp .L12
 495               	.L13:
 119:../../../../tmk_core/protocol/lufa/LUFA-git/LUFA/Drivers/USB/Class/Common/HIDParser.c **** 				CurrStateTable->Attributes.Logical.Maximum  = ReportItemData;
 496               		.loc 1 119 0
 497 0276 D701      		movw r26,r14
 498 0278 1E96      		adiw r26,14
 499 027a 8D92      		st X+,r8
 500 027c 9D92      		st X+,r9
 501 027e AD92      		st X+,r10
 502 0280 BC92      		st X,r11
 503 0282 5197      		sbiw r26,14+3
 120:../../../../tmk_core/protocol/lufa/LUFA-git/LUFA/Drivers/USB/Class/Common/HIDParser.c **** 				break;
 504               		.loc 1 120 0
 505 0284 00C0      		rjmp .L12
 506               	.L15:
 123:../../../../tmk_core/protocol/lufa/LUFA-git/LUFA/Drivers/USB/Class/Common/HIDParser.c **** 				CurrStateTable->Attributes.Physical.Minimum = ReportItemData;
 507               		.loc 1 123 0
 508 0286 F701      		movw r30,r14
 509 0288 828A      		std Z+18,r8
 510 028a 938A      		std Z+19,r9
 511 028c A48A      		std Z+20,r10
 512 028e B58A      		std Z+21,r11
 124:../../../../tmk_core/protocol/lufa/LUFA-git/LUFA/Drivers/USB/Class/Common/HIDParser.c **** 				break;
 513               		.loc 1 124 0
 514 0290 00C0      		rjmp .L12
 515               	.L16:
 127:../../../../tmk_core/protocol/lufa/LUFA-git/LUFA/Drivers/USB/Class/Common/HIDParser.c **** 				CurrStateTable->Attributes.Physical.Maximum = ReportItemData;
 516               		.loc 1 127 0
 517 0292 D701      		movw r26,r14
 518 0294 5696      		adiw r26,22
 519 0296 8D92      		st X+,r8
 520 0298 9D92      		st X+,r9
 521 029a AD92      		st X+,r10
 522 029c BC92      		st X,r11
 523 029e 5997      		sbiw r26,22+3
 128:../../../../tmk_core/protocol/lufa/LUFA-git/LUFA/Drivers/USB/Class/Common/HIDParser.c **** 				break;
 524               		.loc 1 128 0
 525 02a0 00C0      		rjmp .L12
 526               	.L17:
 131:../../../../tmk_core/protocol/lufa/LUFA-git/LUFA/Drivers/USB/Class/Common/HIDParser.c **** 				CurrStateTable->Attributes.Unit.Exponent    = ReportItemData;
 527               		.loc 1 131 0
 528 02a2 F701      		movw r30,r14
 529 02a4 8186      		std Z+9,r8
 132:../../../../tmk_core/protocol/lufa/LUFA-git/LUFA/Drivers/USB/Class/Common/HIDParser.c **** 				break;
 530               		.loc 1 132 0
 531 02a6 00C0      		rjmp .L12
 532               	.L18:
 135:../../../../tmk_core/protocol/lufa/LUFA-git/LUFA/Drivers/USB/Class/Common/HIDParser.c **** 				CurrStateTable->Attributes.Unit.Type        = ReportItemData;
 533               		.loc 1 135 0
 534 02a8 D701      		movw r26,r14
 535 02aa 1596      		adiw r26,5
 536 02ac 8D92      		st X+,r8
 537 02ae 9D92      		st X+,r9
 538 02b0 AD92      		st X+,r10
 539 02b2 BC92      		st X,r11
 540 02b4 1897      		sbiw r26,5+3
 136:../../../../tmk_core/protocol/lufa/LUFA-git/LUFA/Drivers/USB/Class/Common/HIDParser.c **** 				break;
 541               		.loc 1 136 0
 542 02b6 00C0      		rjmp .L12
 543               	.L19:
 139:../../../../tmk_core/protocol/lufa/LUFA-git/LUFA/Drivers/USB/Class/Common/HIDParser.c **** 				CurrStateTable->Attributes.BitSize          = ReportItemData;
 544               		.loc 1 139 0
 545 02b8 F701      		movw r30,r14
 546 02ba 8082      		st Z,r8
 140:../../../../tmk_core/protocol/lufa/LUFA-git/LUFA/Drivers/USB/Class/Common/HIDParser.c **** 				break;
 547               		.loc 1 140 0
 548 02bc 00C0      		rjmp .L12
 549               	.L22:
 143:../../../../tmk_core/protocol/lufa/LUFA-git/LUFA/Drivers/USB/Class/Common/HIDParser.c **** 				CurrStateTable->ReportCount                 = ReportItemData;
 550               		.loc 1 143 0
 551 02be D701      		movw r26,r14
 552 02c0 5A96      		adiw r26,26
 553 02c2 8C92      		st X,r8
 144:../../../../tmk_core/protocol/lufa/LUFA-git/LUFA/Drivers/USB/Class/Common/HIDParser.c **** 				break;
 554               		.loc 1 144 0
 555 02c4 00C0      		rjmp .L12
 556               	.L21:
 147:../../../../tmk_core/protocol/lufa/LUFA-git/LUFA/Drivers/USB/Class/Common/HIDParser.c **** 				CurrStateTable->ReportID                    = ReportItemData;
 557               		.loc 1 147 0
 558 02c6 182D      		mov r17,r8
 559 02c8 F701      		movw r30,r14
 560 02ca 838E      		std Z+27,r8
 149:../../../../tmk_core/protocol/lufa/LUFA-git/LUFA/Drivers/USB/Class/Common/HIDParser.c **** 				if (ParserData->UsingReportIDs)
 561               		.loc 1 149 0
 562 02cc F601      		movw r30,r12
 563 02ce E852      		subi r30,40
 564 02d0 FC4F      		sbci r31,-4
 565 02d2 8081      		ld r24,Z
 566 02d4 8823      		tst r24
 567 02d6 01F0      		breq .L35
 568               	.LBB9:
 153:../../../../tmk_core/protocol/lufa/LUFA-git/LUFA/Drivers/USB/Class/Common/HIDParser.c **** 					for (uint8_t i = 0; i < ParserData->TotalDeviceReports; i++)
 569               		.loc 1 153 0
 570 02d8 F601      		movw r30,r12
 571 02da E157      		subi r30,113
 572 02dc FC4F      		sbci r31,-4
 573 02de 0081      		ld r16,Z
 574 02e0 9601      		movw r18,r12
 575               	.LVL25:
 576 02e2 80E0      		ldi r24,0
 577 02e4 90E0      		ldi r25,0
 578 02e6 00C0      		rjmp .L36
 579               	.L37:
 155:../../../../tmk_core/protocol/lufa/LUFA-git/LUFA/Drivers/USB/Class/Common/HIDParser.c **** 						if (ParserData->ReportIDSizes[i].ReportID == CurrStateTable->ReportID)
 580               		.loc 1 155 0
 581 02e8 FC01      		movw r30,r24
  35:../../../../tmk_core/protocol/lufa/LUFA-git/LUFA/Drivers/USB/Class/Common/HIDParser.c **** uint8_t USB_ProcessHIDReport(const uint8_t* ReportData,
 582               		.loc 1 35 0
 583 02ea D901      		movw r26,r18
 584 02ec A057      		subi r26,112
 585 02ee BC4F      		sbci r27,-4
 155:../../../../tmk_core/protocol/lufa/LUFA-git/LUFA/Drivers/USB/Class/Common/HIDParser.c **** 						if (ParserData->ReportIDSizes[i].ReportID == CurrStateTable->ReportID)
 586               		.loc 1 155 0
 587 02f0 AC91      		ld r26,X
 588 02f2 0196      		adiw r24,1
 589 02f4 295F      		subi r18,-7
 590 02f6 3F4F      		sbci r19,-1
 591 02f8 A113      		cpse r26,r17
 592 02fa 00C0      		rjmp .L36
 157:../../../../tmk_core/protocol/lufa/LUFA-git/LUFA/Drivers/USB/Class/Common/HIDParser.c **** 							CurrReportIDInfo = &ParserData->ReportIDSizes[i];
 593               		.loc 1 157 0
 594 02fc 27E0      		ldi r18,lo8(7)
 595 02fe 2E9F      		mul r18,r30
 596 0300 C001      		movw r24,r0
 597 0302 2F9F      		mul r18,r31
 598 0304 900D      		add r25,r0
 599 0306 1124      		clr __zero_reg__
 600 0308 9C01      		movw r18,r24
 601 030a 2057      		subi r18,112
 602 030c 3C4F      		sbci r19,-4
 603 030e 2C0D      		add r18,r12
 604 0310 3D1D      		adc r19,r13
 605               	.LVL26:
 606 0312 00C0      		rjmp .L35
 607               	.LVL27:
 608               	.L36:
 153:../../../../tmk_core/protocol/lufa/LUFA-git/LUFA/Drivers/USB/Class/Common/HIDParser.c **** 					for (uint8_t i = 0; i < ParserData->TotalDeviceReports; i++)
 609               		.loc 1 153 0 discriminator 1
 610 0314 8017      		cp r24,r16
 611 0316 00F0      		brlo .L37
 612 0318 00C0      		rjmp .L89
 613               	.LVL28:
 614               	.L91:
 615               	.LBE9:
 167:../../../../tmk_core/protocol/lufa/LUFA-git/LUFA/Drivers/USB/Class/Common/HIDParser.c **** 						CurrReportIDInfo = &ParserData->ReportIDSizes[ParserData->TotalDeviceReports++];
 616               		.loc 1 167 0
 617 031a 87E0      		ldi r24,lo8(7)
 618 031c 9601      		movw r18,r12
 619 031e 809F      		mul r24,r16
 620 0320 200D      		add r18,r0
 621 0322 311D      		adc r19,r1
 622 0324 1124      		clr __zero_reg__
 623 0326 2057      		subi r18,112
 624 0328 3C4F      		sbci r19,-4
 625               	.LVL29:
 626 032a F601      		movw r30,r12
 627 032c E157      		subi r30,113
 628 032e FC4F      		sbci r31,-4
 629 0330 0F5F      		subi r16,lo8(-(1))
 630 0332 0083      		st Z,r16
 168:../../../../tmk_core/protocol/lufa/LUFA-git/LUFA/Drivers/USB/Class/Common/HIDParser.c **** 						memset(CurrReportIDInfo, 0x00, sizeof(HID_ReportSizeInfo_t));
 631               		.loc 1 168 0
 632 0334 D901      		movw r26,r18
 633               		0:
 634 0336 1D92      		st X+,__zero_reg__
 635 0338 8A95      		dec r24
 636 033a 01F4      		brne 0b
 637               	.L35:
 172:../../../../tmk_core/protocol/lufa/LUFA-git/LUFA/Drivers/USB/Class/Common/HIDParser.c **** 				ParserData->UsingReportIDs = true;
 638               		.loc 1 172 0
 639 033c F601      		movw r30,r12
 640 033e E852      		subi r30,40
 641 0340 FC4F      		sbci r31,-4
 642 0342 81E0      		ldi r24,lo8(1)
 643 0344 8083      		st Z,r24
 174:../../../../tmk_core/protocol/lufa/LUFA-git/LUFA/Drivers/USB/Class/Common/HIDParser.c **** 				CurrReportIDInfo->ReportID = CurrStateTable->ReportID;
 644               		.loc 1 174 0
 645 0346 F701      		movw r30,r14
 646 0348 838D      		ldd r24,Z+27
 647 034a D901      		movw r26,r18
 648 034c 8C93      		st X,r24
 175:../../../../tmk_core/protocol/lufa/LUFA-git/LUFA/Drivers/USB/Class/Common/HIDParser.c **** 				break;
 649               		.loc 1 175 0
 650 034e 00C0      		rjmp .L12
 651               	.L10:
 178:../../../../tmk_core/protocol/lufa/LUFA-git/LUFA/Drivers/USB/Class/Common/HIDParser.c **** 				if (UsageListSize == HID_USAGE_STACK_DEPTH)
 652               		.loc 1 178 0
 653 0350 E496      		adiw r28,115-63
 654 0352 BFAD      		ldd r27,Y+63
 655 0354 E497      		sbiw r28,115-63
 656 0356 B830      		cpi r27,lo8(8)
 657 0358 01F4      		brne .+2
 658 035a 00C0      		rjmp .L66
 181:../../../../tmk_core/protocol/lufa/LUFA-git/LUFA/Drivers/USB/Class/Common/HIDParser.c **** 				UsageList[UsageListSize++] = ReportItemData;
 659               		.loc 1 181 0
 660 035c FE01      		movw r30,r28
 661 035e ED59      		subi r30,-99
 662 0360 FF4F      		sbci r31,-1
 663 0362 EB0F      		add r30,r27
 664 0364 F11D      		adc r31,__zero_reg__
 665 0366 EB0F      		add r30,r27
 666 0368 F11D      		adc r31,__zero_reg__
 667 036a 9182      		std Z+1,r9
 668 036c 8082      		st Z,r8
 669 036e BF5F      		subi r27,lo8(-(1))
 670 0370 E496      		adiw r28,115-63
 671 0372 BFAF      		std Y+63,r27
 672 0374 E497      		sbiw r28,115-63
 673               	.LVL30:
 182:../../../../tmk_core/protocol/lufa/LUFA-git/LUFA/Drivers/USB/Class/Common/HIDParser.c **** 				break;
 674               		.loc 1 182 0
 675 0376 00C0      		rjmp .L12
 676               	.LVL31:
 677               	.L14:
 190:../../../../tmk_core/protocol/lufa/LUFA-git/LUFA/Drivers/USB/Class/Common/HIDParser.c **** 				break;
 678               		.loc 1 190 0
 679 0378 E896      		adiw r28,116-60
 680 037a 8CAE      		std Y+60,r8
 681 037c 9DAE      		std Y+61,r9
 682 037e AEAE      		std Y+62,r10
 683 0380 BFAE      		std Y+63,r11
 684 0382 E897      		sbiw r28,116-60
 685 0384 00C0      		rjmp .L12
 686               	.LVL32:
 687               	.L23:
 193:../../../../tmk_core/protocol/lufa/LUFA-git/LUFA/Drivers/USB/Class/Common/HIDParser.c **** 				if (CurrCollectionPath == NULL)
 688               		.loc 1 193 0
 689 0386 4115      		cp r20,__zero_reg__
 690 0388 5105      		cpc r21,__zero_reg__
 691 038a 01F4      		brne .L39
 195:../../../../tmk_core/protocol/lufa/LUFA-git/LUFA/Drivers/USB/Class/Common/HIDParser.c **** 					CurrCollectionPath = &ParserData->CollectionPaths[0];
 692               		.loc 1 195 0
 693 038c A601      		movw r20,r12
 694               	.LVL33:
 695 038e 475B      		subi r20,-73
 696 0390 5C4F      		sbci r21,-4
 697               	.LVL34:
 698 0392 00C0      		rjmp .L40
 699               	.L39:
 700               	.LVL35:
 701               	.LBB10:
 201:../../../../tmk_core/protocol/lufa/LUFA-git/LUFA/Drivers/USB/Class/Common/HIDParser.c **** 					CurrCollectionPath = &ParserData->CollectionPaths[1];
 702               		.loc 1 201 0
 703 0394 CD57      		subi r28,lo8(-131)
 704 0396 DF4F      		sbci r29,hi8(-131)
 705 0398 E881      		ld r30,Y
 706 039a F981      		ldd r31,Y+1
 707 039c C358      		subi r28,lo8(131)
 708 039e D040      		sbci r29,hi8(131)
 709               	.LVL36:
 203:../../../../tmk_core/protocol/lufa/LUFA-git/LUFA/Drivers/USB/Class/Common/HIDParser.c **** 					while (CurrCollectionPath->Parent != NULL)
 710               		.loc 1 203 0
 711 03a0 00C0      		rjmp .L41
 712               	.L42:
 205:../../../../tmk_core/protocol/lufa/LUFA-git/LUFA/Drivers/USB/Class/Common/HIDParser.c **** 						if (CurrCollectionPath == &ParserData->CollectionPaths[HID_MAX_COLLECTIONS - 1])
 713               		.loc 1 205 0
 714 03a2 CB57      		subi r28,lo8(-133)
 715 03a4 DF4F      		sbci r29,hi8(-133)
 716 03a6 8881      		ld r24,Y
 717 03a8 9981      		ldd r25,Y+1
 718 03aa C558      		subi r28,lo8(133)
 719 03ac D040      		sbci r29,hi8(133)
 720 03ae E817      		cp r30,r24
 721 03b0 F907      		cpc r31,r25
 722 03b2 01F4      		brne .+2
 723 03b4 00C0      		rjmp .L67
 208:../../../../tmk_core/protocol/lufa/LUFA-git/LUFA/Drivers/USB/Class/Common/HIDParser.c **** 						CurrCollectionPath++;
 724               		.loc 1 208 0
 725 03b6 3796      		adiw r30,7
 726               	.LVL37:
 727               	.L41:
 203:../../../../tmk_core/protocol/lufa/LUFA-git/LUFA/Drivers/USB/Class/Common/HIDParser.c **** 					while (CurrCollectionPath->Parent != NULL)
 728               		.loc 1 203 0 discriminator 1
 729 03b8 8581      		ldd r24,Z+5
 730 03ba 9681      		ldd r25,Z+6
 731 03bc 892B      		or r24,r25
 732 03be 01F4      		brne .L42
 211:../../../../tmk_core/protocol/lufa/LUFA-git/LUFA/Drivers/USB/Class/Common/HIDParser.c **** 					CurrCollectionPath->Parent = ParentCollectionPath;
 733               		.loc 1 211 0
 734 03c0 5683      		std Z+6,r21
 735 03c2 4583      		std Z+5,r20
 736 03c4 AF01      		movw r20,r30
 737               	.LVL38:
 738               	.L40:
 739               	.LBE10:
 214:../../../../tmk_core/protocol/lufa/LUFA-git/LUFA/Drivers/USB/Class/Common/HIDParser.c **** 				CurrCollectionPath->Type       = ReportItemData;
 740               		.loc 1 214 0
 741 03c6 DA01      		movw r26,r20
 742 03c8 8C92      		st X,r8
 215:../../../../tmk_core/protocol/lufa/LUFA-git/LUFA/Drivers/USB/Class/Common/HIDParser.c **** 				CurrCollectionPath->Usage.Page = CurrStateTable->Attributes.Usage.Page;
 743               		.loc 1 215 0
 744 03ca F701      		movw r30,r14
 745 03cc 8181      		ldd r24,Z+1
 746 03ce 9281      		ldd r25,Z+2
 747 03d0 1296      		adiw r26,1+1
 748 03d2 9C93      		st X,r25
 749 03d4 8E93      		st -X,r24
 750 03d6 1197      		sbiw r26,1
 217:../../../../tmk_core/protocol/lufa/LUFA-git/LUFA/Drivers/USB/Class/Common/HIDParser.c **** 				if (UsageListSize)
 751               		.loc 1 217 0
 752 03d8 E496      		adiw r28,115-63
 753 03da FFAD      		ldd r31,Y+63
 754 03dc E497      		sbiw r28,115-63
 755 03de FF23      		tst r31
 756 03e0 01F0      		breq .L43
 219:../../../../tmk_core/protocol/lufa/LUFA-git/LUFA/Drivers/USB/Class/Common/HIDParser.c **** 					CurrCollectionPath->Usage.Usage = UsageList[0];
 757               		.loc 1 219 0
 758 03e2 A596      		adiw r28,99-62
 759 03e4 8EAD      		ldd r24,Y+62
 760 03e6 9FAD      		ldd r25,Y+63
 761 03e8 A597      		sbiw r28,99-62
 762 03ea 1496      		adiw r26,3+1
 763 03ec 9C93      		st X,r25
 764 03ee 8E93      		st -X,r24
 765 03f0 1397      		sbiw r26,3
 766               	.LVL39:
 767 03f2 FE01      		movw r30,r28
 768 03f4 ED59      		subi r30,-99
 769 03f6 FF4F      		sbci r31,-1
 770               	.LBB11:
 221:../../../../tmk_core/protocol/lufa/LUFA-git/LUFA/Drivers/USB/Class/Common/HIDParser.c **** 					for (uint8_t i = 1; i < UsageListSize; i++)
 771               		.loc 1 221 0
 772 03f8 A1E0      		ldi r26,lo8(1)
 773 03fa 00C0      		rjmp .L44
 774               	.LVL40:
 775               	.L45:
 222:../../../../tmk_core/protocol/lufa/LUFA-git/LUFA/Drivers/USB/Class/Common/HIDParser.c **** 					  UsageList[i - 1] = UsageList[i];
 776               		.loc 1 222 0 discriminator 2
 777 03fc 8281      		ldd r24,Z+2
 778 03fe 9381      		ldd r25,Z+3
 779 0400 8193      		st Z+,r24
 780 0402 9193      		st Z+,r25
 221:../../../../tmk_core/protocol/lufa/LUFA-git/LUFA/Drivers/USB/Class/Common/HIDParser.c **** 					for (uint8_t i = 1; i < UsageListSize; i++)
 781               		.loc 1 221 0 discriminator 2
 782 0404 AF5F      		subi r26,lo8(-(1))
 783               	.LVL41:
 784               	.L44:
 221:../../../../tmk_core/protocol/lufa/LUFA-git/LUFA/Drivers/USB/Class/Common/HIDParser.c **** 					for (uint8_t i = 1; i < UsageListSize; i++)
 785               		.loc 1 221 0 is_stmt 0 discriminator 1
 786 0406 E496      		adiw r28,115-63
 787 0408 8FAD      		ldd r24,Y+63
 788 040a E497      		sbiw r28,115-63
 789 040c A813      		cpse r26,r24
 790 040e 00C0      		rjmp .L45
 791               	.LBE11:
 224:../../../../tmk_core/protocol/lufa/LUFA-git/LUFA/Drivers/USB/Class/Common/HIDParser.c **** 					UsageListSize--;
 792               		.loc 1 224 0 is_stmt 1
 793 0410 8150      		subi r24,lo8(-(-1))
 794 0412 E496      		adiw r28,115-63
 795 0414 8FAF      		std Y+63,r24
 796 0416 E497      		sbiw r28,115-63
 797               	.LVL42:
 798 0418 00C0      		rjmp .L12
 799               	.LVL43:
 800               	.L43:
 226:../../../../tmk_core/protocol/lufa/LUFA-git/LUFA/Drivers/USB/Class/Common/HIDParser.c **** 				else if (UsageMinMax.Minimum <= UsageMinMax.Maximum)
 801               		.loc 1 226 0
 802 041a E896      		adiw r28,116-60
 803 041c 8CAD      		ldd r24,Y+60
 804 041e 9DAD      		ldd r25,Y+61
 805 0420 AEAD      		ldd r26,Y+62
 806 0422 BFAD      		ldd r27,Y+63
 807 0424 E897      		sbiw r28,116-60
 808 0426 8415      		cp r24,r4
 809 0428 9505      		cpc r25,r5
 810 042a A605      		cpc r26,r6
 811 042c B705      		cpc r27,r7
 812 042e 00F4      		brsh .+2
 813 0430 00C0      		rjmp .L12
 228:../../../../tmk_core/protocol/lufa/LUFA-git/LUFA/Drivers/USB/Class/Common/HIDParser.c **** 					CurrCollectionPath->Usage.Usage = UsageMinMax.Minimum++;
 814               		.loc 1 228 0
 815 0432 DA01      		movw r26,r20
 816 0434 1496      		adiw r26,3+1
 817 0436 5C92      		st X,r5
 818 0438 4E92      		st -X,r4
 819 043a 1397      		sbiw r26,3
 820 043c BFEF      		ldi r27,-1
 821 043e 4B1A      		sub r4,r27
 822 0440 5B0A      		sbc r5,r27
 823 0442 6B0A      		sbc r6,r27
 824 0444 7B0A      		sbc r7,r27
 825               	.LVL44:
 826 0446 00C0      		rjmp .L12
 827               	.L26:
 234:../../../../tmk_core/protocol/lufa/LUFA-git/LUFA/Drivers/USB/Class/Common/HIDParser.c **** 				if (CurrCollectionPath == NULL)
 828               		.loc 1 234 0
 829 0448 4115      		cp r20,__zero_reg__
 830 044a 5105      		cpc r21,__zero_reg__
 831 044c 01F4      		brne .+2
 832 044e 00C0      		rjmp .L68
 237:../../../../tmk_core/protocol/lufa/LUFA-git/LUFA/Drivers/USB/Class/Common/HIDParser.c **** 				CurrCollectionPath = CurrCollectionPath->Parent;
 833               		.loc 1 237 0
 834 0450 FA01      		movw r30,r20
 835 0452 4581      		ldd r20,Z+5
 836 0454 5681      		ldd r21,Z+6
 837               	.LVL45:
 238:../../../../tmk_core/protocol/lufa/LUFA-git/LUFA/Drivers/USB/Class/Common/HIDParser.c **** 				break;
 838               		.loc 1 238 0
 839 0456 00C0      		rjmp .L12
 840               	.LVL46:
 841               	.L58:
 842               	.LBB12:
 843               	.LBB6:
 247:../../../../tmk_core/protocol/lufa/LUFA-git/LUFA/Drivers/USB/Class/Common/HIDParser.c **** 					memcpy(&NewReportItem.Attributes,
 844               		.loc 1 247 0
 845 0458 F701      		movw r30,r14
 846 045a DE01      		movw r26,r28
 847 045c AF5B      		subi r26,-65
 848 045e BF4F      		sbci r27,-1
 849 0460 8AE1      		ldi r24,lo8(26)
 850               		0:
 851 0462 0190      		ld r0,Z+
 852 0464 0D92      		st X+,r0
 853 0466 8A95      		dec r24
 854 0468 01F4      		brne 0b
 251:../../../../tmk_core/protocol/lufa/LUFA-git/LUFA/Drivers/USB/Class/Common/HIDParser.c **** 					NewReportItem.ItemFlags      = ReportItemData;
 855               		.loc 1 251 0
 856 046a 9DAE      		std Y+61,r9
 857 046c 8CAE      		std Y+60,r8
 252:../../../../tmk_core/protocol/lufa/LUFA-git/LUFA/Drivers/USB/Class/Common/HIDParser.c **** 					NewReportItem.CollectionPath = CurrCollectionPath;
 858               		.loc 1 252 0
 859 046e 2196      		adiw r28,63-62
 860 0470 5FAF      		std Y+63,r21
 861 0472 4EAF      		std Y+62,r20
 862 0474 2197      		sbiw r28,63-62
 253:../../../../tmk_core/protocol/lufa/LUFA-git/LUFA/Drivers/USB/Class/Common/HIDParser.c **** 					NewReportItem.ReportID       = CurrStateTable->ReportID;
 863               		.loc 1 253 0
 864 0476 D701      		movw r26,r14
 865 0478 5B96      		adiw r26,27
 866 047a 8C91      		ld r24,X
 867 047c 8EAF      		std Y+62,r24
 255:../../../../tmk_core/protocol/lufa/LUFA-git/LUFA/Drivers/USB/Class/Common/HIDParser.c **** 					if (UsageListSize)
 868               		.loc 1 255 0
 869 047e E496      		adiw r28,115-63
 870 0480 BFAD      		ldd r27,Y+63
 871 0482 E497      		sbiw r28,115-63
 872 0484 BB23      		tst r27
 873 0486 01F0      		breq .L46
 257:../../../../tmk_core/protocol/lufa/LUFA-git/LUFA/Drivers/USB/Class/Common/HIDParser.c **** 						NewReportItem.Attributes.Usage.Usage = UsageList[0];
 874               		.loc 1 257 0
 875 0488 A596      		adiw r28,99-62
 876 048a 8EAD      		ldd r24,Y+62
 877 048c 9FAD      		ldd r25,Y+63
 878 048e A597      		sbiw r28,99-62
 879 0490 2696      		adiw r28,68-62
 880 0492 9FAF      		std Y+63,r25
 881 0494 8EAF      		std Y+62,r24
 882 0496 2697      		sbiw r28,68-62
 883               	.LVL47:
 884 0498 FE01      		movw r30,r28
 885 049a ED59      		subi r30,-99
 886 049c FF4F      		sbci r31,-1
 887               	.LBB5:
 259:../../../../tmk_core/protocol/lufa/LUFA-git/LUFA/Drivers/USB/Class/Common/HIDParser.c **** 						for (uint8_t i = 1; i < UsageListSize; i++)
 888               		.loc 1 259 0
 889 049e A1E0      		ldi r26,lo8(1)
 890 04a0 00C0      		rjmp .L47
 891               	.LVL48:
 892               	.L48:
 260:../../../../tmk_core/protocol/lufa/LUFA-git/LUFA/Drivers/USB/Class/Common/HIDParser.c **** 						  UsageList[i - 1] = UsageList[i];
 893               		.loc 1 260 0 discriminator 2
 894 04a2 8281      		ldd r24,Z+2
 895 04a4 9381      		ldd r25,Z+3
 896 04a6 8193      		st Z+,r24
 897 04a8 9193      		st Z+,r25
 259:../../../../tmk_core/protocol/lufa/LUFA-git/LUFA/Drivers/USB/Class/Common/HIDParser.c **** 						for (uint8_t i = 1; i < UsageListSize; i++)
 898               		.loc 1 259 0 discriminator 2
 899 04aa AF5F      		subi r26,lo8(-(1))
 900               	.LVL49:
 901               	.L47:
 259:../../../../tmk_core/protocol/lufa/LUFA-git/LUFA/Drivers/USB/Class/Common/HIDParser.c **** 						for (uint8_t i = 1; i < UsageListSize; i++)
 902               		.loc 1 259 0 is_stmt 0 discriminator 1
 903 04ac E496      		adiw r28,115-63
 904 04ae 8FAD      		ldd r24,Y+63
 905 04b0 E497      		sbiw r28,115-63
 906 04b2 A813      		cpse r26,r24
 907 04b4 00C0      		rjmp .L48
 908               	.LBE5:
 262:../../../../tmk_core/protocol/lufa/LUFA-git/LUFA/Drivers/USB/Class/Common/HIDParser.c **** 						UsageListSize--;
 909               		.loc 1 262 0 is_stmt 1
 910 04b6 8150      		subi r24,lo8(-(-1))
 911 04b8 E496      		adiw r28,115-63
 912 04ba 8FAF      		std Y+63,r24
 913 04bc E497      		sbiw r28,115-63
 914               	.LVL50:
 915 04be 00C0      		rjmp .L49
 916               	.LVL51:
 917               	.L46:
 264:../../../../tmk_core/protocol/lufa/LUFA-git/LUFA/Drivers/USB/Class/Common/HIDParser.c **** 					else if (UsageMinMax.Minimum <= UsageMinMax.Maximum)
 918               		.loc 1 264 0
 919 04c0 E896      		adiw r28,116-60
 920 04c2 8CAD      		ldd r24,Y+60
 921 04c4 9DAD      		ldd r25,Y+61
 922 04c6 AEAD      		ldd r26,Y+62
 923 04c8 BFAD      		ldd r27,Y+63
 924 04ca E897      		sbiw r28,116-60
 925 04cc 8415      		cp r24,r4
 926 04ce 9505      		cpc r25,r5
 927 04d0 A605      		cpc r26,r6
 928 04d2 B705      		cpc r27,r7
 929 04d4 00F0      		brlo .L49
 266:../../../../tmk_core/protocol/lufa/LUFA-git/LUFA/Drivers/USB/Class/Common/HIDParser.c **** 						NewReportItem.Attributes.Usage.Usage = UsageMinMax.Minimum++;
 930               		.loc 1 266 0
 931 04d6 2696      		adiw r28,68-62
 932 04d8 5FAE      		std Y+63,r5
 933 04da 4EAE      		std Y+62,r4
 934 04dc 2697      		sbiw r28,68-62
 935 04de 9FEF      		ldi r25,-1
 936 04e0 491A      		sub r4,r25
 937 04e2 590A      		sbc r5,r25
 938 04e4 690A      		sbc r6,r25
 939 04e6 790A      		sbc r7,r25
 940               	.LVL52:
 941               	.L49:
 271:../../../../tmk_core/protocol/lufa/LUFA-git/LUFA/Drivers/USB/Class/Common/HIDParser.c **** 					if (ItemTypeTag == HID_RI_INPUT(0))
 942               		.loc 1 271 0
 943 04e8 1038      		cpi r17,lo8(-128)
 944 04ea 01F4      		brne .L50
 272:../../../../tmk_core/protocol/lufa/LUFA-git/LUFA/Drivers/USB/Class/Common/HIDParser.c **** 					  NewReportItem.ItemType = HID_REPORT_ITEM_In;
 945               		.loc 1 272 0
 946 04ec 1BAE      		std Y+59,__zero_reg__
 947 04ee 00C0      		rjmp .L51
 948               	.L50:
 273:../../../../tmk_core/protocol/lufa/LUFA-git/LUFA/Drivers/USB/Class/Common/HIDParser.c **** 					else if (ItemTypeTag == HID_RI_OUTPUT(0))
 949               		.loc 1 273 0
 950 04f0 1039      		cpi r17,lo8(-112)
 951 04f2 01F4      		brne .L52
 274:../../../../tmk_core/protocol/lufa/LUFA-git/LUFA/Drivers/USB/Class/Common/HIDParser.c **** 					  NewReportItem.ItemType = HID_REPORT_ITEM_Out;
 952               		.loc 1 274 0
 953 04f4 A1E0      		ldi r26,lo8(1)
 954 04f6 ABAF      		std Y+59,r26
 955 04f8 00C0      		rjmp .L51
 956               	.L52:
 276:../../../../tmk_core/protocol/lufa/LUFA-git/LUFA/Drivers/USB/Class/Common/HIDParser.c **** 					  NewReportItem.ItemType = HID_REPORT_ITEM_Feature;
 957               		.loc 1 276 0
 958 04fa B2E0      		ldi r27,lo8(2)
 959 04fc BBAF      		std Y+59,r27
 960               	.L51:
 278:../../../../tmk_core/protocol/lufa/LUFA-git/LUFA/Drivers/USB/Class/Common/HIDParser.c **** 					NewReportItem.BitOffset = CurrReportIDInfo->ReportSizeBits[NewReportItem.ItemType];
 961               		.loc 1 278 0
 962 04fe 8BAD      		ldd r24,Y+59
 963 0500 F901      		movw r30,r18
 964 0502 E80F      		add r30,r24
 965 0504 F11D      		adc r31,__zero_reg__
 966 0506 E80F      		add r30,r24
 967 0508 F11D      		adc r31,__zero_reg__
 968 050a 8181      		ldd r24,Z+1
 969 050c 9281      		ldd r25,Z+2
 970 050e 9AAF      		std Y+58,r25
 971 0510 89AF      		std Y+57,r24
 280:../../../../tmk_core/protocol/lufa/LUFA-git/LUFA/Drivers/USB/Class/Common/HIDParser.c **** 					CurrReportIDInfo->ReportSizeBits[NewReportItem.ItemType] += CurrStateTable->Attributes.BitSize
 972               		.loc 1 280 0
 973 0512 D701      		movw r26,r14
 974 0514 BC91      		ld r27,X
 975 0516 8181      		ldd r24,Z+1
 976 0518 9281      		ldd r25,Z+2
 977 051a 8B0F      		add r24,r27
 978 051c 911D      		adc r25,__zero_reg__
 979 051e 9283      		std Z+2,r25
 980 0520 8183      		std Z+1,r24
 981               		.loc 1 282 0
 982 0522 8BAD      		ldd r24,Y+59
 983 0524 F901      		movw r30,r18
 984 0526 E80F      		add r30,r24
 985 0528 F11D      		adc r31,__zero_reg__
 986 052a E80F      		add r30,r24
 987 052c F11D      		adc r31,__zero_reg__
 988 052e EF96      		adiw r28,125-62
 989 0530 AEAD      		ldd r26,Y+62
 990 0532 BFAD      		ldd r27,Y+63
 991 0534 EF97      		sbiw r28,125-62
 992 0536 0D90      		ld __tmp_reg__,X+
 993 0538 BC91      		ld r27,X
 994 053a A02D      		mov r26,__tmp_reg__
 995 053c C257      		subi r28,lo8(-142)
 996 053e DF4F      		sbci r29,hi8(-142)
 997 0540 B983      		std Y+1,r27
 998 0542 A883      		st Y,r26
 999 0544 CE58      		subi r28,lo8(142)
 1000 0546 D040      		sbci r29,hi8(142)
 1001 0548 8181      		ldd r24,Z+1
 1002 054a 9281      		ldd r25,Z+2
 1003 054c 8A17      		cp r24,r26
 1004 054e 9B07      		cpc r25,r27
 1005 0550 00F4      		brsh .L53
 1006 0552 CD01      		movw r24,r26
 1007               	.L53:
 1008 0554 EF96      		adiw r28,125-62
 1009 0556 EEAD      		ldd r30,Y+62
 1010 0558 FFAD      		ldd r31,Y+63
 1011 055a EF97      		sbiw r28,125-62
 1012 055c 9183      		std Z+1,r25
 1013 055e 8083      		st Z,r24
 283:../../../../tmk_core/protocol/lufa/LUFA-git/LUFA/Drivers/USB/Class/Common/HIDParser.c **** 
 284:../../../../tmk_core/protocol/lufa/LUFA-git/LUFA/Drivers/USB/Class/Common/HIDParser.c **** 					if (ParserData->TotalReportItems == HID_MAX_REPORTITEMS)
 1014               		.loc 1 284 0
 1015 0560 D601      		movw r26,r12
 1016 0562 8C91      		ld r24,X
 1017 0564 8431      		cpi r24,lo8(20)
 1018 0566 01F4      		brne .L54
 285:../../../../tmk_core/protocol/lufa/LUFA-git/LUFA/Drivers/USB/Class/Common/HIDParser.c **** 					  return HID_PARSE_InsufficientReportItems;
 1019               		.loc 1 285 0
 1020 0568 83E0      		ldi r24,lo8(3)
 1021 056a 00C0      		rjmp .L90
 1022               	.L54:
 286:../../../../tmk_core/protocol/lufa/LUFA-git/LUFA/Drivers/USB/Class/Common/HIDParser.c **** 
 287:../../../../tmk_core/protocol/lufa/LUFA-git/LUFA/Drivers/USB/Class/Common/HIDParser.c **** 					memcpy(&ParserData->ReportItems[ParserData->TotalReportItems],
 1023               		.loc 1 287 0
 1024 056c D601      		movw r26,r12
 1025 056e EAE2      		ldi r30,lo8(42)
 1026 0570 E89F      		mul r30,r24
 1027 0572 A00D      		add r26,r0
 1028 0574 B11D      		adc r27,r1
 1029 0576 1124      		clr __zero_reg__
 1030 0578 1196      		adiw r26,1
 1031 057a FE01      		movw r30,r28
 1032 057c F996      		adiw r30,57
 1033 057e 8AE2      		ldi r24,lo8(42)
 1034               		0:
 1035 0580 0190      		ld r0,Z+
 1036 0582 0D92      		st X+,r0
 1037 0584 8A95      		dec r24
 1038 0586 01F4      		brne 0b
 288:../../../../tmk_core/protocol/lufa/LUFA-git/LUFA/Drivers/USB/Class/Common/HIDParser.c **** 					       &NewReportItem, sizeof(HID_ReportItem_t));
 289:../../../../tmk_core/protocol/lufa/LUFA-git/LUFA/Drivers/USB/Class/Common/HIDParser.c **** 
 290:../../../../tmk_core/protocol/lufa/LUFA-git/LUFA/Drivers/USB/Class/Common/HIDParser.c **** 					if (!(ReportItemData & HID_IOF_CONSTANT) && CALLBACK_HIDParser_FilterHIDReportItem(&NewReportI
 1039               		.loc 1 290 0
 1040 0588 C158      		subi r28,lo8(-127)
 1041 058a DF4F      		sbci r29,hi8(-127)
 1042 058c 8881      		ld r24,Y
 1043 058e 9981      		ldd r25,Y+1
 1044 0590 AA81      		ldd r26,Y+2
 1045 0592 BB81      		ldd r27,Y+3
 1046 0594 CF57      		subi r28,lo8(127)
 1047 0596 D040      		sbci r29,hi8(127)
 1048 0598 892B      		or r24,r25
 1049 059a 8A2B      		or r24,r26
 1050 059c 8B2B      		or r24,r27
 1051 059e 01F0      		breq .+2
 1052 05a0 00C0      		rjmp .L56
 1053               		.loc 1 290 0 is_stmt 0 discriminator 1
 1054 05a2 CE01      		movw r24,r28
 1055 05a4 C996      		adiw r24,57
 1056 05a6 C757      		subi r28,lo8(-137)
 1057 05a8 DF4F      		sbci r29,hi8(-137)
 1058 05aa 2883      		st Y,r18
 1059 05ac C958      		subi r28,lo8(137)
 1060 05ae D040      		sbci r29,hi8(137)
 1061 05b0 C657      		subi r28,lo8(-138)
 1062 05b2 DF4F      		sbci r29,hi8(-138)
 1063 05b4 3883      		st Y,r19
 1064 05b6 CA58      		subi r28,lo8(138)
 1065 05b8 D040      		sbci r29,hi8(138)
 1066 05ba C957      		subi r28,lo8(-135)
 1067 05bc DF4F      		sbci r29,hi8(-135)
 1068 05be 4883      		st Y,r20
 1069 05c0 C758      		subi r28,lo8(135)
 1070 05c2 D040      		sbci r29,hi8(135)
 1071 05c4 C857      		subi r28,lo8(-136)
 1072 05c6 DF4F      		sbci r29,hi8(-136)
 1073 05c8 5883      		st Y,r21
 1074 05ca C858      		subi r28,lo8(136)
 1075 05cc D040      		sbci r29,hi8(136)
 1076 05ce C557      		subi r28,lo8(-139)
 1077 05d0 DF4F      		sbci r29,hi8(-139)
 1078 05d2 6883      		st Y,r22
 1079 05d4 CB58      		subi r28,lo8(139)
 1080 05d6 D040      		sbci r29,hi8(139)
 1081 05d8 C457      		subi r28,lo8(-140)
 1082 05da DF4F      		sbci r29,hi8(-140)
 1083 05dc 7883      		st Y,r23
 1084 05de CC58      		subi r28,lo8(140)
 1085 05e0 D040      		sbci r29,hi8(140)
 1086 05e2 0E94 0000 		call CALLBACK_HIDParser_FilterHIDReportItem
 1087               	.LVL53:
 1088 05e6 C757      		subi r28,lo8(-137)
 1089 05e8 DF4F      		sbci r29,hi8(-137)
 1090 05ea 2881      		ld r18,Y
 1091 05ec C958      		subi r28,lo8(137)
 1092 05ee D040      		sbci r29,hi8(137)
 1093 05f0 C657      		subi r28,lo8(-138)
 1094 05f2 DF4F      		sbci r29,hi8(-138)
 1095 05f4 3881      		ld r19,Y
 1096 05f6 CA58      		subi r28,lo8(138)
 1097 05f8 D040      		sbci r29,hi8(138)
 1098 05fa C957      		subi r28,lo8(-135)
 1099 05fc DF4F      		sbci r29,hi8(-135)
 1100 05fe 4881      		ld r20,Y
 1101 0600 C758      		subi r28,lo8(135)
 1102 0602 D040      		sbci r29,hi8(135)
 1103 0604 C857      		subi r28,lo8(-136)
 1104 0606 DF4F      		sbci r29,hi8(-136)
 1105 0608 5881      		ld r21,Y
 1106 060a C858      		subi r28,lo8(136)
 1107 060c D040      		sbci r29,hi8(136)
 1108 060e C557      		subi r28,lo8(-139)
 1109 0610 DF4F      		sbci r29,hi8(-139)
 1110 0612 6881      		ld r22,Y
 1111 0614 CB58      		subi r28,lo8(139)
 1112 0616 D040      		sbci r29,hi8(139)
 1113 0618 C457      		subi r28,lo8(-140)
 1114 061a DF4F      		sbci r29,hi8(-140)
 1115 061c 7881      		ld r23,Y
 1116 061e CC58      		subi r28,lo8(140)
 1117 0620 D040      		sbci r29,hi8(140)
 1118 0622 8823      		tst r24
 1119 0624 01F0      		breq .L56
 291:../../../../tmk_core/protocol/lufa/LUFA-git/LUFA/Drivers/USB/Class/Common/HIDParser.c **** 					  ParserData->TotalReportItems++;
 1120               		.loc 1 291 0 is_stmt 1
 1121 0626 D601      		movw r26,r12
 1122 0628 8C91      		ld r24,X
 1123 062a 8F5F      		subi r24,lo8(-(1))
 1124 062c 8C93      		st X,r24
 1125               	.L56:
 1126               	.LBE6:
 243:../../../../tmk_core/protocol/lufa/LUFA-git/LUFA/Drivers/USB/Class/Common/HIDParser.c **** 				for (uint8_t ReportItemNum = 0; ReportItemNum < CurrStateTable->ReportCount; ReportItemNum++)
 1127               		.loc 1 243 0
 1128 062e 0F5F      		subi r16,lo8(-(1))
 1129               	.LVL54:
 1130 0630 00C0      		rjmp .L20
 1131               	.LVL55:
 1132               	.L63:
 1133               	.LBE12:
  87:../../../../tmk_core/protocol/lufa/LUFA-git/LUFA/Drivers/USB/Class/Common/HIDParser.c **** 		switch (HIDReportItem & (HID_RI_TYPE_MASK | HID_RI_TAG_MASK))
 1134               		.loc 1 87 0
 1135 0632 00E0      		ldi r16,0
 1136               	.LBB13:
 1137               	.LBB7:
 290:../../../../tmk_core/protocol/lufa/LUFA-git/LUFA/Drivers/USB/Class/Common/HIDParser.c **** 					if (!(ReportItemData & HID_IOF_CONSTANT) && CALLBACK_HIDParser_FilterHIDReportItem(&NewReportI
 1138               		.loc 1 290 0
 1139 0634 D501      		movw r26,r10
 1140 0636 C401      		movw r24,r8
 1141 0638 8170      		andi r24,1
 1142 063a 9927      		clr r25
 1143 063c AA27      		clr r26
 1144 063e BB27      		clr r27
 1145 0640 C158      		subi r28,lo8(-127)
 1146 0642 DF4F      		sbci r29,hi8(-127)
 1147 0644 8883      		st Y,r24
 1148 0646 9983      		std Y+1,r25
 1149 0648 AA83      		std Y+2,r26
 1150 064a BB83      		std Y+3,r27
 1151 064c CF57      		subi r28,lo8(127)
 1152 064e D040      		sbci r29,hi8(127)
 1153               	.LVL56:
 1154               	.L20:
 1155               	.LBE7:
 243:../../../../tmk_core/protocol/lufa/LUFA-git/LUFA/Drivers/USB/Class/Common/HIDParser.c **** 				for (uint8_t ReportItemNum = 0; ReportItemNum < CurrStateTable->ReportCount; ReportItemNum++)
 1156               		.loc 1 243 0 discriminator 1
 1157 0650 D701      		movw r26,r14
 1158 0652 5A96      		adiw r26,26
 1159 0654 8C91      		ld r24,X
 1160 0656 0817      		cp r16,r24
 1161 0658 00F4      		brsh .+2
 1162 065a 00C0      		rjmp .L58
 1163 065c 00C0      		rjmp .L12
 1164               	.LVL57:
 1165               	.L62:
 1166               	.LBE13:
  87:../../../../tmk_core/protocol/lufa/LUFA-git/LUFA/Drivers/USB/Class/Common/HIDParser.c **** 		switch (HIDReportItem & (HID_RI_TYPE_MASK | HID_RI_TAG_MASK))
 1167               		.loc 1 87 0
 1168 065e 2401      		movw r4,r8
 1169 0660 3501      		movw r6,r10
 1170               	.LVL58:
 1171               	.L12:
 292:../../../../tmk_core/protocol/lufa/LUFA-git/LUFA/Drivers/USB/Class/Common/HIDParser.c **** 				}
 293:../../../../tmk_core/protocol/lufa/LUFA-git/LUFA/Drivers/USB/Class/Common/HIDParser.c **** 
 294:../../../../tmk_core/protocol/lufa/LUFA-git/LUFA/Drivers/USB/Class/Common/HIDParser.c **** 				break;
 295:../../../../tmk_core/protocol/lufa/LUFA-git/LUFA/Drivers/USB/Class/Common/HIDParser.c **** 
 296:../../../../tmk_core/protocol/lufa/LUFA-git/LUFA/Drivers/USB/Class/Common/HIDParser.c **** 			default:
 297:../../../../tmk_core/protocol/lufa/LUFA-git/LUFA/Drivers/USB/Class/Common/HIDParser.c **** 				break;
 298:../../../../tmk_core/protocol/lufa/LUFA-git/LUFA/Drivers/USB/Class/Common/HIDParser.c **** 		}
 299:../../../../tmk_core/protocol/lufa/LUFA-git/LUFA/Drivers/USB/Class/Common/HIDParser.c **** 
 300:../../../../tmk_core/protocol/lufa/LUFA-git/LUFA/Drivers/USB/Class/Common/HIDParser.c **** 		if ((HIDReportItem & HID_RI_TYPE_MASK) == HID_RI_TYPE_MAIN)
 1172               		.loc 1 300 0
 1173 0662 E996      		adiw r28,120-63
 1174 0664 8FAD      		ldd r24,Y+63
 1175 0666 E997      		sbiw r28,120-63
 1176 0668 8C70      		andi r24,lo8(12)
 1177 066a 01F4      		brne .L88
 301:../../../../tmk_core/protocol/lufa/LUFA-git/LUFA/Drivers/USB/Class/Common/HIDParser.c **** 		{
 302:../../../../tmk_core/protocol/lufa/LUFA-git/LUFA/Drivers/USB/Class/Common/HIDParser.c **** 			UsageMinMax.Minimum = 0;
 303:../../../../tmk_core/protocol/lufa/LUFA-git/LUFA/Drivers/USB/Class/Common/HIDParser.c **** 			UsageMinMax.Maximum = 0;
 1178               		.loc 1 303 0
 1179 066c E896      		adiw r28,116-60
 1180 066e 1CAE      		std Y+60,__zero_reg__
 1181 0670 1DAE      		std Y+61,__zero_reg__
 1182 0672 1EAE      		std Y+62,__zero_reg__
 1183 0674 1FAE      		std Y+63,__zero_reg__
 1184 0676 E897      		sbiw r28,116-60
 302:../../../../tmk_core/protocol/lufa/LUFA-git/LUFA/Drivers/USB/Class/Common/HIDParser.c **** 			UsageMinMax.Minimum = 0;
 1185               		.loc 1 302 0
 1186 0678 412C      		mov r4,__zero_reg__
 1187 067a 512C      		mov r5,__zero_reg__
 1188 067c 3201      		movw r6,r4
 1189               	.LVL59:
 304:../../../../tmk_core/protocol/lufa/LUFA-git/LUFA/Drivers/USB/Class/Common/HIDParser.c **** 			UsageListSize       = 0;
 1190               		.loc 1 304 0
 1191 067e E496      		adiw r28,115-63
 1192 0680 1FAE      		std Y+63,__zero_reg__
 1193 0682 E497      		sbiw r28,115-63
 1194               	.LVL60:
 1195               	.L88:
 1196               	.LBE15:
  53:../../../../tmk_core/protocol/lufa/LUFA-git/LUFA/Drivers/USB/Class/Common/HIDParser.c **** 	while (ReportSize)
 1197               		.loc 1 53 0 discriminator 1
 1198 0684 6115      		cp r22,__zero_reg__
 1199 0686 7105      		cpc r23,__zero_reg__
 1200 0688 01F0      		breq .+2
 1201 068a 00C0      		rjmp .L60
 305:../../../../tmk_core/protocol/lufa/LUFA-git/LUFA/Drivers/USB/Class/Common/HIDParser.c **** 		}
 306:../../../../tmk_core/protocol/lufa/LUFA-git/LUFA/Drivers/USB/Class/Common/HIDParser.c **** 	}
 307:../../../../tmk_core/protocol/lufa/LUFA-git/LUFA/Drivers/USB/Class/Common/HIDParser.c **** 
 308:../../../../tmk_core/protocol/lufa/LUFA-git/LUFA/Drivers/USB/Class/Common/HIDParser.c **** 	if (!(ParserData->TotalReportItems))
 1202               		.loc 1 308 0
 1203 068c F601      		movw r30,r12
 1204 068e 8081      		ld r24,Z
 1205 0690 8111      		cpse r24,__zero_reg__
 1206 0692 00C0      		rjmp .L70
 309:../../../../tmk_core/protocol/lufa/LUFA-git/LUFA/Drivers/USB/Class/Common/HIDParser.c **** 	  return HID_PARSE_NoUnfilteredReportItems;
 1207               		.loc 1 309 0
 1208 0694 88E0      		ldi r24,lo8(8)
 1209 0696 00C0      		rjmp .L90
 1210               	.LVL61:
 1211               	.L64:
 1212               	.LBB16:
  91:../../../../tmk_core/protocol/lufa/LUFA-git/LUFA/Drivers/USB/Class/Common/HIDParser.c **** 				  return HID_PARSE_HIDStackOverflow;
 1213               		.loc 1 91 0
 1214 0698 81E0      		ldi r24,lo8(1)
 1215 069a 00C0      		rjmp .L90
 1216               	.L65:
 102:../../../../tmk_core/protocol/lufa/LUFA-git/LUFA/Drivers/USB/Class/Common/HIDParser.c **** 				  return HID_PARSE_HIDStackUnderflow;
 1217               		.loc 1 102 0
 1218 069c 82E0      		ldi r24,lo8(2)
 1219 069e 00C0      		rjmp .L90
 1220               	.L66:
 179:../../../../tmk_core/protocol/lufa/LUFA-git/LUFA/Drivers/USB/Class/Common/HIDParser.c **** 				  return HID_PARSE_UsageListOverflow;
 1221               		.loc 1 179 0
 1222 06a0 86E0      		ldi r24,lo8(6)
 1223 06a2 00C0      		rjmp .L90
 1224               	.LVL62:
 1225               	.L67:
 1226               	.LBB14:
 206:../../../../tmk_core/protocol/lufa/LUFA-git/LUFA/Drivers/USB/Class/Common/HIDParser.c **** 						  return HID_PARSE_InsufficientCollectionPaths;
 1227               		.loc 1 206 0
 1228 06a4 85E0      		ldi r24,lo8(5)
 1229 06a6 00C0      		rjmp .L90
 1230               	.LVL63:
 1231               	.L68:
 1232               	.LBE14:
 235:../../../../tmk_core/protocol/lufa/LUFA-git/LUFA/Drivers/USB/Class/Common/HIDParser.c **** 				  return HID_PARSE_UnexpectedEndCollection;
 1233               		.loc 1 235 0
 1234 06a8 84E0      		ldi r24,lo8(4)
 1235 06aa 00C0      		rjmp .L90
 1236               	.LVL64:
 1237               	.L70:
 1238               	.LBE16:
 310:../../../../tmk_core/protocol/lufa/LUFA-git/LUFA/Drivers/USB/Class/Common/HIDParser.c **** 
 311:../../../../tmk_core/protocol/lufa/LUFA-git/LUFA/Drivers/USB/Class/Common/HIDParser.c **** 	return HID_PARSE_Successful;
 1239               		.loc 1 311 0
 1240 06ac 80E0      		ldi r24,0
 1241 06ae 00C0      		rjmp .L90
 1242               	.LVL65:
 1243               	.L71:
 1244               	.LBB17:
 165:../../../../tmk_core/protocol/lufa/LUFA-git/LUFA/Drivers/USB/Class/Common/HIDParser.c **** 						  return HID_PARSE_InsufficientReportIDItems;
 1245               		.loc 1 165 0
 1246 06b0 87E0      		ldi r24,lo8(7)
 1247 06b2 00C0      		rjmp .L90
 1248               	.LVL66:
 1249               	.L89:
 164:../../../../tmk_core/protocol/lufa/LUFA-git/LUFA/Drivers/USB/Class/Common/HIDParser.c **** 						if (ParserData->TotalDeviceReports == HID_MAX_REPORT_IDS)
 1250               		.loc 1 164 0
 1251 06b4 0A30      		cpi r16,lo8(10)
 1252 06b6 01F0      		breq .+2
 1253 06b8 00C0      		rjmp .L91
 1254 06ba 00C0      		rjmp .L71
 1255               	.LVL67:
 1256               	.L90:
 1257               	/* epilogue start */
 1258               	.LBE17:
 312:../../../../tmk_core/protocol/lufa/LUFA-git/LUFA/Drivers/USB/Class/Common/HIDParser.c **** }
 1259               		.loc 1 312 0
 1260 06bc C157      		subi r28,113
 1261 06be DF4F      		sbci r29,-1
 1262 06c0 0FB6      		in __tmp_reg__,__SREG__
 1263 06c2 F894      		cli
 1264 06c4 DEBF      		out __SP_H__,r29
 1265 06c6 0FBE      		out __SREG__,__tmp_reg__
 1266 06c8 CDBF      		out __SP_L__,r28
 1267 06ca DF91      		pop r29
 1268 06cc CF91      		pop r28
 1269 06ce 1F91      		pop r17
 1270 06d0 0F91      		pop r16
 1271 06d2 FF90      		pop r15
 1272 06d4 EF90      		pop r14
 1273               	.LVL68:
 1274 06d6 DF90      		pop r13
 1275 06d8 CF90      		pop r12
 1276               	.LVL69:
 1277 06da BF90      		pop r11
 1278 06dc AF90      		pop r10
 1279 06de 9F90      		pop r9
 1280 06e0 8F90      		pop r8
 1281 06e2 7F90      		pop r7
 1282 06e4 6F90      		pop r6
 1283 06e6 5F90      		pop r5
 1284 06e8 4F90      		pop r4
 1285               	.LVL70:
 1286 06ea 3F90      		pop r3
 1287 06ec 2F90      		pop r2
 1288               	.LVL71:
 1289 06ee 0895      		ret
 1290               		.cfi_endproc
 1291               	.LFE16:
 1293               		.section	.text.USB_GetHIDReportItemInfo,"ax",@progbits
 1294               	.global	USB_GetHIDReportItemInfo
 1296               	USB_GetHIDReportItemInfo:
 1297               	.LFB17:
 313:../../../../tmk_core/protocol/lufa/LUFA-git/LUFA/Drivers/USB/Class/Common/HIDParser.c **** 
 314:../../../../tmk_core/protocol/lufa/LUFA-git/LUFA/Drivers/USB/Class/Common/HIDParser.c **** bool USB_GetHIDReportItemInfo(const uint8_t* ReportData,
 315:../../../../tmk_core/protocol/lufa/LUFA-git/LUFA/Drivers/USB/Class/Common/HIDParser.c ****                               HID_ReportItem_t* const ReportItem)
 316:../../../../tmk_core/protocol/lufa/LUFA-git/LUFA/Drivers/USB/Class/Common/HIDParser.c **** {
 1298               		.loc 1 316 0
 1299               		.cfi_startproc
 1300               	.LVL72:
 1301 0000 EF92      		push r14
 1302               	.LCFI20:
 1303               		.cfi_def_cfa_offset 3
 1304               		.cfi_offset 14, -2
 1305 0002 FF92      		push r15
 1306               	.LCFI21:
 1307               		.cfi_def_cfa_offset 4
 1308               		.cfi_offset 15, -3
 1309 0004 0F93      		push r16
 1310               	.LCFI22:
 1311               		.cfi_def_cfa_offset 5
 1312               		.cfi_offset 16, -4
 1313 0006 1F93      		push r17
 1314               	.LCFI23:
 1315               		.cfi_def_cfa_offset 6
 1316               		.cfi_offset 17, -5
 1317 0008 CF93      		push r28
 1318               	.LCFI24:
 1319               		.cfi_def_cfa_offset 7
 1320               		.cfi_offset 28, -6
 1321 000a DF93      		push r29
 1322               	.LCFI25:
 1323               		.cfi_def_cfa_offset 8
 1324               		.cfi_offset 29, -7
 1325               	/* prologue: function */
 1326               	/* frame size = 0 */
 1327               	/* stack size = 6 */
 1328               	.L__stack_usage = 6
 1329 000c FB01      		movw r30,r22
 317:../../../../tmk_core/protocol/lufa/LUFA-git/LUFA/Drivers/USB/Class/Common/HIDParser.c **** 	if (ReportItem == NULL)
 1330               		.loc 1 317 0
 1331 000e 3097      		sbiw r30,0
 1332 0010 01F4      		brne .+2
 1333 0012 00C0      		rjmp .L99
 318:../../../../tmk_core/protocol/lufa/LUFA-git/LUFA/Drivers/USB/Class/Common/HIDParser.c **** 	  return false;
 319:../../../../tmk_core/protocol/lufa/LUFA-git/LUFA/Drivers/USB/Class/Common/HIDParser.c **** 
 320:../../../../tmk_core/protocol/lufa/LUFA-git/LUFA/Drivers/USB/Class/Common/HIDParser.c **** 	uint16_t DataBitsRem  = ReportItem->Attributes.BitSize;
 1334               		.loc 1 320 0
 1335 0014 3085      		ldd r19,Z+8
 1336               	.LVL73:
 321:../../../../tmk_core/protocol/lufa/LUFA-git/LUFA/Drivers/USB/Class/Common/HIDParser.c **** 	uint16_t CurrentBit   = ReportItem->BitOffset;
 1337               		.loc 1 321 0
 1338 0016 D081      		ld r29,Z
 1339 0018 C181      		ldd r28,Z+1
 1340               	.LVL74:
 322:../../../../tmk_core/protocol/lufa/LUFA-git/LUFA/Drivers/USB/Class/Common/HIDParser.c **** 	uint32_t BitMask      = (1 << 0);
 323:../../../../tmk_core/protocol/lufa/LUFA-git/LUFA/Drivers/USB/Class/Common/HIDParser.c **** 
 324:../../../../tmk_core/protocol/lufa/LUFA-git/LUFA/Drivers/USB/Class/Common/HIDParser.c **** 	if (ReportItem->ReportID)
 1341               		.loc 1 324 0
 1342 001a 2581      		ldd r18,Z+5
 1343 001c 2223      		tst r18
 1344 001e 01F0      		breq .L94
 325:../../../../tmk_core/protocol/lufa/LUFA-git/LUFA/Drivers/USB/Class/Common/HIDParser.c **** 	{
 326:../../../../tmk_core/protocol/lufa/LUFA-git/LUFA/Drivers/USB/Class/Common/HIDParser.c **** 		if (ReportItem->ReportID != ReportData[0])
 1345               		.loc 1 326 0
 1346 0020 DC01      		movw r26,r24
 1347 0022 4C91      		ld r20,X
 1348 0024 2413      		cpse r18,r20
 1349 0026 00C0      		rjmp .L99
 327:../../../../tmk_core/protocol/lufa/LUFA-git/LUFA/Drivers/USB/Class/Common/HIDParser.c **** 		  return false;
 328:../../../../tmk_core/protocol/lufa/LUFA-git/LUFA/Drivers/USB/Class/Common/HIDParser.c **** 
 329:../../../../tmk_core/protocol/lufa/LUFA-git/LUFA/Drivers/USB/Class/Common/HIDParser.c **** 		ReportData++;
 1350               		.loc 1 329 0
 1351 0028 0196      		adiw r24,1
 1352               	.LVL75:
 1353               	.L94:
 330:../../../../tmk_core/protocol/lufa/LUFA-git/LUFA/Drivers/USB/Class/Common/HIDParser.c **** 	}
 331:../../../../tmk_core/protocol/lufa/LUFA-git/LUFA/Drivers/USB/Class/Common/HIDParser.c **** 
 332:../../../../tmk_core/protocol/lufa/LUFA-git/LUFA/Drivers/USB/Class/Common/HIDParser.c **** 	ReportItem->PreviousValue = ReportItem->Value;
 1354               		.loc 1 332 0
 1355 002a 42A1      		ldd r20,Z+34
 1356 002c 53A1      		ldd r21,Z+35
 1357 002e 64A1      		ldd r22,Z+36
 1358 0030 75A1      		ldd r23,Z+37
 1359 0032 46A3      		std Z+38,r20
 1360 0034 57A3      		std Z+39,r21
 1361 0036 60A7      		std Z+40,r22
 1362 0038 71A7      		std Z+41,r23
 333:../../../../tmk_core/protocol/lufa/LUFA-git/LUFA/Drivers/USB/Class/Common/HIDParser.c **** 	ReportItem->Value = 0;
 1363               		.loc 1 333 0
 1364 003a 12A2      		std Z+34,__zero_reg__
 1365 003c 13A2      		std Z+35,__zero_reg__
 1366 003e 14A2      		std Z+36,__zero_reg__
 1367 0040 15A2      		std Z+37,__zero_reg__
 321:../../../../tmk_core/protocol/lufa/LUFA-git/LUFA/Drivers/USB/Class/Common/HIDParser.c **** 	uint16_t CurrentBit   = ReportItem->BitOffset;
 1368               		.loc 1 321 0
 1369 0042 AD2F      		mov r26,r29
 1370 0044 BC2F      		mov r27,r28
 322:../../../../tmk_core/protocol/lufa/LUFA-git/LUFA/Drivers/USB/Class/Common/HIDParser.c **** 	uint32_t BitMask      = (1 << 0);
 1371               		.loc 1 322 0
 1372 0046 41E0      		ldi r20,lo8(1)
 1373 0048 50E0      		ldi r21,0
 1374 004a 60E0      		ldi r22,0
 1375 004c 70E0      		ldi r23,0
 314:../../../../tmk_core/protocol/lufa/LUFA-git/LUFA/Drivers/USB/Class/Common/HIDParser.c **** bool USB_GetHIDReportItemInfo(const uint8_t* ReportData,
 1376               		.loc 1 314 0
 1377 004e 7D01      		movw r14,r26
 1378 0050 E30E      		add r14,r19
 1379 0052 F11C      		adc r15,__zero_reg__
 334:../../../../tmk_core/protocol/lufa/LUFA-git/LUFA/Drivers/USB/Class/Common/HIDParser.c **** 
 335:../../../../tmk_core/protocol/lufa/LUFA-git/LUFA/Drivers/USB/Class/Common/HIDParser.c **** 	while (DataBitsRem--)
 1380               		.loc 1 335 0
 1381 0054 00C0      		rjmp .L95
 1382               	.LVL76:
 1383               	.L97:
 336:../../../../tmk_core/protocol/lufa/LUFA-git/LUFA/Drivers/USB/Class/Common/HIDParser.c **** 	{
 337:../../../../tmk_core/protocol/lufa/LUFA-git/LUFA/Drivers/USB/Class/Common/HIDParser.c **** 		if (ReportData[CurrentBit / 8] & (1 << (CurrentBit % 8)))
 1384               		.loc 1 337 0
 1385 0056 ED01      		movw r28,r26
 1386 0058 33E0      		ldi r19,3
 1387               		1:
 1388 005a D695      		lsr r29
 1389 005c C795      		ror r28
 1390 005e 3A95      		dec r19
 1391 0060 01F4      		brne 1b
 1392 0062 C80F      		add r28,r24
 1393 0064 D91F      		adc r29,r25
 1394 0066 2881      		ld r18,Y
 1395 0068 30E0      		ldi r19,0
 1396 006a ED01      		movw r28,r26
 1397 006c C770      		andi r28,7
 1398 006e DD27      		clr r29
 1399 0070 0C2E      		mov r0,r28
 1400 0072 00C0      		rjmp 2f
 1401               		1:
 1402 0074 3595      		asr r19
 1403 0076 2795      		ror r18
 1404               		2:
 1405 0078 0A94      		dec r0
 1406 007a 02F4      		brpl 1b
 1407 007c 20FF      		sbrs r18,0
 1408 007e 00C0      		rjmp .L96
 338:../../../../tmk_core/protocol/lufa/LUFA-git/LUFA/Drivers/USB/Class/Common/HIDParser.c **** 		  ReportItem->Value |= BitMask;
 1409               		.loc 1 338 0
 1410 0080 02A1      		ldd r16,Z+34
 1411 0082 13A1      		ldd r17,Z+35
 1412 0084 24A1      		ldd r18,Z+36
 1413 0086 35A1      		ldd r19,Z+37
 1414 0088 042B      		or r16,r20
 1415 008a 152B      		or r17,r21
 1416 008c 262B      		or r18,r22
 1417 008e 372B      		or r19,r23
 1418 0090 02A3      		std Z+34,r16
 1419 0092 13A3      		std Z+35,r17
 1420 0094 24A3      		std Z+36,r18
 1421 0096 35A3      		std Z+37,r19
 1422               	.L96:
 339:../../../../tmk_core/protocol/lufa/LUFA-git/LUFA/Drivers/USB/Class/Common/HIDParser.c **** 
 340:../../../../tmk_core/protocol/lufa/LUFA-git/LUFA/Drivers/USB/Class/Common/HIDParser.c **** 		CurrentBit++;
 1423               		.loc 1 340 0
 1424 0098 1196      		adiw r26,1
 1425               	.LVL77:
 341:../../../../tmk_core/protocol/lufa/LUFA-git/LUFA/Drivers/USB/Class/Common/HIDParser.c **** 		BitMask <<= 1;
 1426               		.loc 1 341 0
 1427 009a 440F      		lsl r20
 1428 009c 551F      		rol r21
 1429 009e 661F      		rol r22
 1430 00a0 771F      		rol r23
 1431               	.LVL78:
 1432               	.L95:
 335:../../../../tmk_core/protocol/lufa/LUFA-git/LUFA/Drivers/USB/Class/Common/HIDParser.c **** 	while (DataBitsRem--)
 1433               		.loc 1 335 0 discriminator 1
 1434 00a2 EA16      		cp r14,r26
 1435 00a4 FB06      		cpc r15,r27
 1436 00a6 01F4      		brne .L97
 342:../../../../tmk_core/protocol/lufa/LUFA-git/LUFA/Drivers/USB/Class/Common/HIDParser.c **** 	}
 343:../../../../tmk_core/protocol/lufa/LUFA-git/LUFA/Drivers/USB/Class/Common/HIDParser.c **** 
 344:../../../../tmk_core/protocol/lufa/LUFA-git/LUFA/Drivers/USB/Class/Common/HIDParser.c **** 	return true;
 1437               		.loc 1 344 0
 1438 00a8 81E0      		ldi r24,lo8(1)
 1439               	.LVL79:
 1440 00aa 00C0      		rjmp .L93
 1441               	.LVL80:
 1442               	.L99:
 318:../../../../tmk_core/protocol/lufa/LUFA-git/LUFA/Drivers/USB/Class/Common/HIDParser.c **** 	  return false;
 1443               		.loc 1 318 0
 1444 00ac 80E0      		ldi r24,0
 1445               	.LVL81:
 1446               	.L93:
 1447               	/* epilogue start */
 345:../../../../tmk_core/protocol/lufa/LUFA-git/LUFA/Drivers/USB/Class/Common/HIDParser.c **** }
 1448               		.loc 1 345 0
 1449 00ae DF91      		pop r29
 1450 00b0 CF91      		pop r28
 1451 00b2 1F91      		pop r17
 1452 00b4 0F91      		pop r16
 1453 00b6 FF90      		pop r15
 1454 00b8 EF90      		pop r14
 1455 00ba 0895      		ret
 1456               		.cfi_endproc
 1457               	.LFE17:
 1459               		.section	.text.USB_SetHIDReportItemInfo,"ax",@progbits
 1460               	.global	USB_SetHIDReportItemInfo
 1462               	USB_SetHIDReportItemInfo:
 1463               	.LFB18:
 346:../../../../tmk_core/protocol/lufa/LUFA-git/LUFA/Drivers/USB/Class/Common/HIDParser.c **** 
 347:../../../../tmk_core/protocol/lufa/LUFA-git/LUFA/Drivers/USB/Class/Common/HIDParser.c **** void USB_SetHIDReportItemInfo(uint8_t* ReportData,
 348:../../../../tmk_core/protocol/lufa/LUFA-git/LUFA/Drivers/USB/Class/Common/HIDParser.c ****                               HID_ReportItem_t* const ReportItem)
 349:../../../../tmk_core/protocol/lufa/LUFA-git/LUFA/Drivers/USB/Class/Common/HIDParser.c **** {
 1464               		.loc 1 349 0
 1465               		.cfi_startproc
 1466               	.LVL82:
 1467 0000 8F92      		push r8
 1468               	.LCFI26:
 1469               		.cfi_def_cfa_offset 3
 1470               		.cfi_offset 8, -2
 1471 0002 9F92      		push r9
 1472               	.LCFI27:
 1473               		.cfi_def_cfa_offset 4
 1474               		.cfi_offset 9, -3
 1475 0004 AF92      		push r10
 1476               	.LCFI28:
 1477               		.cfi_def_cfa_offset 5
 1478               		.cfi_offset 10, -4
 1479 0006 BF92      		push r11
 1480               	.LCFI29:
 1481               		.cfi_def_cfa_offset 6
 1482               		.cfi_offset 11, -5
 1483 0008 CF92      		push r12
 1484               	.LCFI30:
 1485               		.cfi_def_cfa_offset 7
 1486               		.cfi_offset 12, -6
 1487 000a DF92      		push r13
 1488               	.LCFI31:
 1489               		.cfi_def_cfa_offset 8
 1490               		.cfi_offset 13, -7
 1491 000c EF92      		push r14
 1492               	.LCFI32:
 1493               		.cfi_def_cfa_offset 9
 1494               		.cfi_offset 14, -8
 1495 000e FF92      		push r15
 1496               	.LCFI33:
 1497               		.cfi_def_cfa_offset 10
 1498               		.cfi_offset 15, -9
 1499 0010 0F93      		push r16
 1500               	.LCFI34:
 1501               		.cfi_def_cfa_offset 11
 1502               		.cfi_offset 16, -10
 1503 0012 1F93      		push r17
 1504               	.LCFI35:
 1505               		.cfi_def_cfa_offset 12
 1506               		.cfi_offset 17, -11
 1507 0014 CF93      		push r28
 1508               	.LCFI36:
 1509               		.cfi_def_cfa_offset 13
 1510               		.cfi_offset 28, -12
 1511 0016 DF93      		push r29
 1512               	.LCFI37:
 1513               		.cfi_def_cfa_offset 14
 1514               		.cfi_offset 29, -13
 1515               	/* prologue: function */
 1516               	/* frame size = 0 */
 1517               	/* stack size = 12 */
 1518               	.L__stack_usage = 12
 1519 0018 DB01      		movw r26,r22
 350:../../../../tmk_core/protocol/lufa/LUFA-git/LUFA/Drivers/USB/Class/Common/HIDParser.c **** 	if (ReportItem == NULL)
 1520               		.loc 1 350 0
 1521 001a 1097      		sbiw r26,0
 1522 001c 01F4      		brne .+2
 1523 001e 00C0      		rjmp .L106
 351:../../../../tmk_core/protocol/lufa/LUFA-git/LUFA/Drivers/USB/Class/Common/HIDParser.c **** 	  return;
 352:../../../../tmk_core/protocol/lufa/LUFA-git/LUFA/Drivers/USB/Class/Common/HIDParser.c **** 
 353:../../../../tmk_core/protocol/lufa/LUFA-git/LUFA/Drivers/USB/Class/Common/HIDParser.c **** 	uint16_t DataBitsRem  = ReportItem->Attributes.BitSize;
 1524               		.loc 1 353 0
 1525 0020 1896      		adiw r26,8
 1526 0022 AC90      		ld r10,X
 1527 0024 1897      		sbiw r26,8
 1528 0026 B12C      		mov r11,__zero_reg__
 1529               	.LVL83:
 354:../../../../tmk_core/protocol/lufa/LUFA-git/LUFA/Drivers/USB/Class/Common/HIDParser.c **** 	uint16_t CurrentBit   = ReportItem->BitOffset;
 1530               		.loc 1 354 0
 1531 0028 CC91      		ld r28,X
 1532 002a 1196      		adiw r26,1
 1533 002c 3C91      		ld r19,X
 1534 002e 1197      		sbiw r26,1
 1535               	.LVL84:
 355:../../../../tmk_core/protocol/lufa/LUFA-git/LUFA/Drivers/USB/Class/Common/HIDParser.c **** 	uint32_t BitMask      = (1 << 0);
 356:../../../../tmk_core/protocol/lufa/LUFA-git/LUFA/Drivers/USB/Class/Common/HIDParser.c **** 
 357:../../../../tmk_core/protocol/lufa/LUFA-git/LUFA/Drivers/USB/Class/Common/HIDParser.c **** 	if (ReportItem->ReportID)
 1536               		.loc 1 357 0
 1537 0030 1596      		adiw r26,5
 1538 0032 2C91      		ld r18,X
 1539 0034 1597      		sbiw r26,5
 1540 0036 2223      		tst r18
 1541 0038 01F0      		breq .L108
 358:../../../../tmk_core/protocol/lufa/LUFA-git/LUFA/Drivers/USB/Class/Common/HIDParser.c **** 	{
 359:../../../../tmk_core/protocol/lufa/LUFA-git/LUFA/Drivers/USB/Class/Common/HIDParser.c **** 		ReportData[0] = ReportItem->ReportID;
 1542               		.loc 1 359 0
 1543 003a FC01      		movw r30,r24
 1544 003c 2193      		st Z+,r18
 1545 003e CF01      		movw r24,r30
 1546               	.LVL85:
 1547               	.L108:
 360:../../../../tmk_core/protocol/lufa/LUFA-git/LUFA/Drivers/USB/Class/Common/HIDParser.c **** 		ReportData++;
 361:../../../../tmk_core/protocol/lufa/LUFA-git/LUFA/Drivers/USB/Class/Common/HIDParser.c **** 	}
 362:../../../../tmk_core/protocol/lufa/LUFA-git/LUFA/Drivers/USB/Class/Common/HIDParser.c **** 
 363:../../../../tmk_core/protocol/lufa/LUFA-git/LUFA/Drivers/USB/Class/Common/HIDParser.c **** 	ReportItem->PreviousValue = ReportItem->Value;
 1548               		.loc 1 363 0
 1549 0040 9296      		adiw r26,34
 1550 0042 4D91      		ld r20,X+
 1551 0044 5D91      		ld r21,X+
 1552 0046 6D91      		ld r22,X+
 1553 0048 7C91      		ld r23,X
 1554 004a 9597      		sbiw r26,34+3
 1555 004c 9696      		adiw r26,38
 1556 004e 4D93      		st X+,r20
 1557 0050 5D93      		st X+,r21
 1558 0052 6D93      		st X+,r22
 1559 0054 7C93      		st X,r23
 1560 0056 9997      		sbiw r26,38+3
 354:../../../../tmk_core/protocol/lufa/LUFA-git/LUFA/Drivers/USB/Class/Common/HIDParser.c **** 	uint16_t CurrentBit   = ReportItem->BitOffset;
 1561               		.loc 1 354 0
 1562 0058 EC2F      		mov r30,r28
 1563 005a F32F      		mov r31,r19
 355:../../../../tmk_core/protocol/lufa/LUFA-git/LUFA/Drivers/USB/Class/Common/HIDParser.c **** 	uint32_t BitMask      = (1 << 0);
 1564               		.loc 1 355 0
 1565 005c 41E0      		ldi r20,lo8(1)
 1566 005e 50E0      		ldi r21,0
 1567 0060 60E0      		ldi r22,0
 1568 0062 70E0      		ldi r23,0
 347:../../../../tmk_core/protocol/lufa/LUFA-git/LUFA/Drivers/USB/Class/Common/HIDParser.c **** void USB_SetHIDReportItemInfo(uint8_t* ReportData,
 1569               		.loc 1 347 0
 1570 0064 AE0E      		add r10,r30
 1571 0066 BF1E      		adc r11,r31
 1572               	.LVL86:
 364:../../../../tmk_core/protocol/lufa/LUFA-git/LUFA/Drivers/USB/Class/Common/HIDParser.c **** 
 365:../../../../tmk_core/protocol/lufa/LUFA-git/LUFA/Drivers/USB/Class/Common/HIDParser.c **** 	while (DataBitsRem--)
 366:../../../../tmk_core/protocol/lufa/LUFA-git/LUFA/Drivers/USB/Class/Common/HIDParser.c **** 	{
 367:../../../../tmk_core/protocol/lufa/LUFA-git/LUFA/Drivers/USB/Class/Common/HIDParser.c **** 		if (ReportItem->Value & (1 << (CurrentBit % 8)))
 1573               		.loc 1 367 0
 1574 0068 8824      		clr r8
 1575 006a 8394      		inc r8
 1576 006c 912C      		mov r9,__zero_reg__
 365:../../../../tmk_core/protocol/lufa/LUFA-git/LUFA/Drivers/USB/Class/Common/HIDParser.c **** 	while (DataBitsRem--)
 1577               		.loc 1 365 0
 1578 006e 00C0      		rjmp .L109
 1579               	.LVL87:
 1580               	.L111:
 1581               		.loc 1 367 0
 1582 0070 8F01      		movw r16,r30
 1583 0072 0770      		andi r16,7
 1584 0074 1127      		clr r17
 1585 0076 9401      		movw r18,r8
 1586 0078 00C0      		rjmp 2f
 1587               		1:
 1588 007a 220F      		lsl r18
 1589 007c 331F      		rol r19
 1590               		2:
 1591 007e 0A95      		dec r16
 1592 0080 02F4      		brpl 1b
 1593 0082 8901      		movw r16,r18
 1594 0084 2227      		clr r18
 1595 0086 17FD      		sbrc r17,7
 1596 0088 2095      		com r18
 1597 008a 322F      		mov r19,r18
 1598 008c 9296      		adiw r26,34
 1599 008e CD90      		ld r12,X+
 1600 0090 DD90      		ld r13,X+
 1601 0092 ED90      		ld r14,X+
 1602 0094 FC90      		ld r15,X
 1603 0096 9597      		sbiw r26,34+3
 1604 0098 0C21      		and r16,r12
 1605 009a 1D21      		and r17,r13
 1606 009c 2E21      		and r18,r14
 1607 009e 3F21      		and r19,r15
 1608 00a0 012B      		or r16,r17
 1609 00a2 022B      		or r16,r18
 1610 00a4 032B      		or r16,r19
 1611 00a6 01F0      		breq .L110
 368:../../../../tmk_core/protocol/lufa/LUFA-git/LUFA/Drivers/USB/Class/Common/HIDParser.c **** 		  ReportData[CurrentBit / 8] |= BitMask;
 1612               		.loc 1 368 0
 1613 00a8 EF01      		movw r28,r30
 1614 00aa 13E0      		ldi r17,3
 1615               		1:
 1616 00ac D695      		lsr r29
 1617 00ae C795      		ror r28
 1618 00b0 1A95      		dec r17
 1619 00b2 01F4      		brne 1b
 1620 00b4 C80F      		add r28,r24
 1621 00b6 D91F      		adc r29,r25
 1622 00b8 2881      		ld r18,Y
 1623 00ba 242B      		or r18,r20
 1624 00bc 2883      		st Y,r18
 1625               	.L110:
 369:../../../../tmk_core/protocol/lufa/LUFA-git/LUFA/Drivers/USB/Class/Common/HIDParser.c **** 
 370:../../../../tmk_core/protocol/lufa/LUFA-git/LUFA/Drivers/USB/Class/Common/HIDParser.c **** 		CurrentBit++;
 1626               		.loc 1 370 0
 1627 00be 3196      		adiw r30,1
 1628               	.LVL88:
 371:../../../../tmk_core/protocol/lufa/LUFA-git/LUFA/Drivers/USB/Class/Common/HIDParser.c **** 		BitMask <<= 1;
 1629               		.loc 1 371 0
 1630 00c0 440F      		lsl r20
 1631 00c2 551F      		rol r21
 1632 00c4 661F      		rol r22
 1633 00c6 771F      		rol r23
 1634               	.LVL89:
 1635               	.L109:
 365:../../../../tmk_core/protocol/lufa/LUFA-git/LUFA/Drivers/USB/Class/Common/HIDParser.c **** 	while (DataBitsRem--)
 1636               		.loc 1 365 0 discriminator 1
 1637 00c8 AE16      		cp r10,r30
 1638 00ca BF06      		cpc r11,r31
 1639 00cc 01F4      		brne .L111
 1640               	.LVL90:
 1641               	.L106:
 1642               	/* epilogue start */
 372:../../../../tmk_core/protocol/lufa/LUFA-git/LUFA/Drivers/USB/Class/Common/HIDParser.c **** 	}
 373:../../../../tmk_core/protocol/lufa/LUFA-git/LUFA/Drivers/USB/Class/Common/HIDParser.c **** }
 1643               		.loc 1 373 0
 1644 00ce DF91      		pop r29
 1645 00d0 CF91      		pop r28
 1646 00d2 1F91      		pop r17
 1647 00d4 0F91      		pop r16
 1648 00d6 FF90      		pop r15
 1649 00d8 EF90      		pop r14
 1650 00da DF90      		pop r13
 1651 00dc CF90      		pop r12
 1652 00de BF90      		pop r11
 1653 00e0 AF90      		pop r10
 1654 00e2 9F90      		pop r9
 1655 00e4 8F90      		pop r8
 1656 00e6 0895      		ret
 1657               		.cfi_endproc
 1658               	.LFE18:
 1660               		.section	.text.USB_GetHIDReportSize,"ax",@progbits
 1661               	.global	USB_GetHIDReportSize
 1663               	USB_GetHIDReportSize:
 1664               	.LFB19:
 374:../../../../tmk_core/protocol/lufa/LUFA-git/LUFA/Drivers/USB/Class/Common/HIDParser.c **** 
 375:../../../../tmk_core/protocol/lufa/LUFA-git/LUFA/Drivers/USB/Class/Common/HIDParser.c **** uint16_t USB_GetHIDReportSize(HID_ReportInfo_t* const ParserData,
 376:../../../../tmk_core/protocol/lufa/LUFA-git/LUFA/Drivers/USB/Class/Common/HIDParser.c ****                               const uint8_t ReportID,
 377:../../../../tmk_core/protocol/lufa/LUFA-git/LUFA/Drivers/USB/Class/Common/HIDParser.c ****                               const uint8_t ReportType)
 378:../../../../tmk_core/protocol/lufa/LUFA-git/LUFA/Drivers/USB/Class/Common/HIDParser.c **** {
 1665               		.loc 1 378 0
 1666               		.cfi_startproc
 1667               	.LVL91:
 1668               	/* prologue: function */
 1669               	/* frame size = 0 */
 1670               	/* stack size = 0 */
 1671               	.L__stack_usage = 0
 1672               	.LBB18:
 375:../../../../tmk_core/protocol/lufa/LUFA-git/LUFA/Drivers/USB/Class/Common/HIDParser.c **** uint16_t USB_GetHIDReportSize(HID_ReportInfo_t* const ParserData,
 1673               		.loc 1 375 0
 1674 0000 FC01      		movw r30,r24
 1675 0002 E40F      		add r30,r20
 1676 0004 F11D      		adc r31,__zero_reg__
 1677 0006 E40F      		add r30,r20
 1678 0008 F11D      		adc r31,__zero_reg__
 1679               	.LBE18:
 1680 000a 40E0      		ldi r20,0
 1681 000c 50E0      		ldi r21,0
 1682               	.LVL92:
 1683               	.L123:
 1684               	.LBB20:
 1685               	.LBB19:
 1686 000e DF01      		movw r26,r30
 1687 0010 A40F      		add r26,r20
 1688 0012 B51F      		adc r27,r21
 1689 0014 AF56      		subi r26,111
 1690 0016 BC4F      		sbci r27,-4
 379:../../../../tmk_core/protocol/lufa/LUFA-git/LUFA/Drivers/USB/Class/Common/HIDParser.c **** 	for (uint8_t i = 0; i < HID_MAX_REPORT_IDS; i++)
 380:../../../../tmk_core/protocol/lufa/LUFA-git/LUFA/Drivers/USB/Class/Common/HIDParser.c **** 	{
 381:../../../../tmk_core/protocol/lufa/LUFA-git/LUFA/Drivers/USB/Class/Common/HIDParser.c **** 		uint16_t ReportSizeBits = ParserData->ReportIDSizes[i].ReportSizeBits[ReportType];
 1691               		.loc 1 381 0
 1692 0018 2D91      		ld r18,X+
 1693 001a 3C91      		ld r19,X
 1694               	.LVL93:
 375:../../../../tmk_core/protocol/lufa/LUFA-git/LUFA/Drivers/USB/Class/Common/HIDParser.c **** uint16_t USB_GetHIDReportSize(HID_ReportInfo_t* const ParserData,
 1695               		.loc 1 375 0
 1696 001c DC01      		movw r26,r24
 1697 001e A40F      		add r26,r20
 1698 0020 B51F      		adc r27,r21
 1699 0022 A057      		subi r26,112
 1700 0024 BC4F      		sbci r27,-4
 382:../../../../tmk_core/protocol/lufa/LUFA-git/LUFA/Drivers/USB/Class/Common/HIDParser.c **** 
 383:../../../../tmk_core/protocol/lufa/LUFA-git/LUFA/Drivers/USB/Class/Common/HIDParser.c **** 		if (ParserData->ReportIDSizes[i].ReportID == ReportID)
 1701               		.loc 1 383 0
 1702 0026 7C91      		ld r23,X
 1703 0028 7613      		cpse r23,r22
 1704 002a 00C0      		rjmp .L120
 384:../../../../tmk_core/protocol/lufa/LUFA-git/LUFA/Drivers/USB/Class/Common/HIDParser.c **** 		  return (ReportSizeBits / 8) + ((ReportSizeBits % 8) ? 1 : 0);
 1705               		.loc 1 384 0
 1706 002c A901      		movw r20,r18
 1707 002e 4770      		andi r20,7
 1708 0030 5527      		clr r21
 1709 0032 81E0      		ldi r24,lo8(1)
 1710 0034 90E0      		ldi r25,0
 1711               	.LVL94:
 1712 0036 452B      		or r20,r21
 1713 0038 01F4      		brne .L121
 1714 003a 80E0      		ldi r24,0
 1715 003c 90E0      		ldi r25,0
 1716               	.L121:
 1717 003e 43E0      		ldi r20,3
 1718               		1:
 1719 0040 3695      		lsr r19
 1720 0042 2795      		ror r18
 1721 0044 4A95      		dec r20
 1722 0046 01F4      		brne 1b
 1723               	.LVL95:
 1724 0048 280F      		add r18,r24
 1725 004a 391F      		adc r19,r25
 1726 004c 00C0      		rjmp .L122
 1727               	.LVL96:
 1728               	.L120:
 1729 004e 495F      		subi r20,-7
 1730 0050 5F4F      		sbci r21,-1
 1731               	.LBE19:
 379:../../../../tmk_core/protocol/lufa/LUFA-git/LUFA/Drivers/USB/Class/Common/HIDParser.c **** 	for (uint8_t i = 0; i < HID_MAX_REPORT_IDS; i++)
 1732               		.loc 1 379 0
 1733 0052 4634      		cpi r20,70
 1734 0054 5105      		cpc r21,__zero_reg__
 1735 0056 01F4      		brne .L123
 385:../../../../tmk_core/protocol/lufa/LUFA-git/LUFA/Drivers/USB/Class/Common/HIDParser.c **** 	}
 386:../../../../tmk_core/protocol/lufa/LUFA-git/LUFA/Drivers/USB/Class/Common/HIDParser.c **** 
 387:../../../../tmk_core/protocol/lufa/LUFA-git/LUFA/Drivers/USB/Class/Common/HIDParser.c **** 	return 0;
 1736               		.loc 1 387 0
 1737 0058 20E0      		ldi r18,0
 1738 005a 30E0      		ldi r19,0
 1739               	.LVL97:
 1740               	.L122:
 1741               	.LBE20:
 388:../../../../tmk_core/protocol/lufa/LUFA-git/LUFA/Drivers/USB/Class/Common/HIDParser.c **** }
 1742               		.loc 1 388 0
 1743 005c C901      		movw r24,r18
 1744 005e 0895      		ret
 1745               		.cfi_endproc
 1746               	.LFE19:
 1748               		.text
 1749               	.Letext0:
 1750               		.file 2 "/usr/lib64/gcc/avr/4.7.1/../../../../avr/include/stdint.h"
 1751               		.file 3 "../../../../tmk_core/protocol/lufa/LUFA-git/LUFA/Drivers/USB/Class/Common/HIDClassCommon.
 1752               		.file 4 "../../../../tmk_core/protocol/lufa/LUFA-git/LUFA/Drivers/USB/Class/Common/HIDParser.h"