   1               		.file	"action_layer.c"
   2               	__SP_H__ = 0x3e
   3               	__SP_L__ = 0x3d
   4               	__SREG__ = 0x3f
   5               	__RAMPZ__ = 0x3b
   6               	__tmp_reg__ = 0
   7               	__zero_reg__ = 1
   8               		.text
   9               	.Ltext0:
  10               		.cfi_sections	.debug_frame
  11               		.section	.text.layer_state_set,"ax",@progbits
  13               	layer_state_set:
  14               	.LFB10:
  15               		.file 1 "../../../../tmk_core/common/action_layer.c"
   1:../../../../tmk_core/common/action_layer.c **** #include <stdint.h>
   2:../../../../tmk_core/common/action_layer.c **** #include "keyboard.h"
   3:../../../../tmk_core/common/action_layer.c **** #include "action.h"
   4:../../../../tmk_core/common/action_layer.c **** #include "util.h"
   5:../../../../tmk_core/common/action_layer.c **** #include "action_layer.h"
   6:../../../../tmk_core/common/action_layer.c **** #include "hook.h"
   7:../../../../tmk_core/common/action_layer.c **** 
   8:../../../../tmk_core/common/action_layer.c **** #ifdef DEBUG_ACTION
   9:../../../../tmk_core/common/action_layer.c **** #include "debug.h"
  10:../../../../tmk_core/common/action_layer.c **** #else
  11:../../../../tmk_core/common/action_layer.c **** #include "nodebug.h"
  12:../../../../tmk_core/common/action_layer.c **** #endif
  13:../../../../tmk_core/common/action_layer.c **** 
  14:../../../../tmk_core/common/action_layer.c **** 
  15:../../../../tmk_core/common/action_layer.c **** /* 
  16:../../../../tmk_core/common/action_layer.c ****  * Default Layer State
  17:../../../../tmk_core/common/action_layer.c ****  */
  18:../../../../tmk_core/common/action_layer.c **** uint32_t default_layer_state = 0;
  19:../../../../tmk_core/common/action_layer.c **** 
  20:../../../../tmk_core/common/action_layer.c **** static void default_layer_state_set(uint32_t state)
  21:../../../../tmk_core/common/action_layer.c **** {
  22:../../../../tmk_core/common/action_layer.c ****     debug("default_layer_state: ");
  23:../../../../tmk_core/common/action_layer.c ****     default_layer_debug(); debug(" to ");
  24:../../../../tmk_core/common/action_layer.c ****     default_layer_state = state;
  25:../../../../tmk_core/common/action_layer.c ****     hook_default_layer_change(default_layer_state);
  26:../../../../tmk_core/common/action_layer.c ****     default_layer_debug(); debug("\n");
  27:../../../../tmk_core/common/action_layer.c ****     clear_keyboard_but_mods(); // To avoid stuck keys
  28:../../../../tmk_core/common/action_layer.c **** }
  29:../../../../tmk_core/common/action_layer.c **** 
  30:../../../../tmk_core/common/action_layer.c **** void default_layer_debug(void)
  31:../../../../tmk_core/common/action_layer.c **** {
  32:../../../../tmk_core/common/action_layer.c ****     dprintf("%08lX(%u)", default_layer_state, biton32(default_layer_state));
  33:../../../../tmk_core/common/action_layer.c **** }
  34:../../../../tmk_core/common/action_layer.c **** 
  35:../../../../tmk_core/common/action_layer.c **** void default_layer_set(uint32_t state)
  36:../../../../tmk_core/common/action_layer.c **** {
  37:../../../../tmk_core/common/action_layer.c ****     default_layer_state_set(state);
  38:../../../../tmk_core/common/action_layer.c **** }
  39:../../../../tmk_core/common/action_layer.c **** 
  40:../../../../tmk_core/common/action_layer.c **** #ifndef NO_ACTION_LAYER
  41:../../../../tmk_core/common/action_layer.c **** void default_layer_or(uint32_t state)
  42:../../../../tmk_core/common/action_layer.c **** {
  43:../../../../tmk_core/common/action_layer.c ****     default_layer_state_set(default_layer_state | state);
  44:../../../../tmk_core/common/action_layer.c **** }
  45:../../../../tmk_core/common/action_layer.c **** void default_layer_and(uint32_t state)
  46:../../../../tmk_core/common/action_layer.c **** {
  47:../../../../tmk_core/common/action_layer.c ****     default_layer_state_set(default_layer_state & state);
  48:../../../../tmk_core/common/action_layer.c **** }
  49:../../../../tmk_core/common/action_layer.c **** void default_layer_xor(uint32_t state)
  50:../../../../tmk_core/common/action_layer.c **** {
  51:../../../../tmk_core/common/action_layer.c ****     default_layer_state_set(default_layer_state ^ state);
  52:../../../../tmk_core/common/action_layer.c **** }
  53:../../../../tmk_core/common/action_layer.c **** #endif
  54:../../../../tmk_core/common/action_layer.c **** 
  55:../../../../tmk_core/common/action_layer.c **** 
  56:../../../../tmk_core/common/action_layer.c **** #ifndef NO_ACTION_LAYER
  57:../../../../tmk_core/common/action_layer.c **** /* 
  58:../../../../tmk_core/common/action_layer.c ****  * Keymap Layer State
  59:../../../../tmk_core/common/action_layer.c ****  */
  60:../../../../tmk_core/common/action_layer.c **** uint32_t layer_state = 0;
  61:../../../../tmk_core/common/action_layer.c **** 
  62:../../../../tmk_core/common/action_layer.c **** static void layer_state_set(uint32_t state)
  63:../../../../tmk_core/common/action_layer.c **** {
  16               		.loc 1 63 0
  17               		.cfi_startproc
  18               	.LVL0:
  19               	/* prologue: function */
  20               	/* frame size = 0 */
  21               	/* stack size = 0 */
  22               	.L__stack_usage = 0
  64:../../../../tmk_core/common/action_layer.c ****     dprint("layer_state: ");
  65:../../../../tmk_core/common/action_layer.c ****     layer_debug(); dprint(" to ");
  66:../../../../tmk_core/common/action_layer.c ****     layer_state = state;
  23               		.loc 1 66 0
  24 0000 6093 0000 		sts layer_state,r22
  25 0004 7093 0000 		sts layer_state+1,r23
  26 0008 8093 0000 		sts layer_state+2,r24
  27 000c 9093 0000 		sts layer_state+3,r25
  67:../../../../tmk_core/common/action_layer.c ****     hook_layer_change(layer_state);
  28               		.loc 1 67 0
  29 0010 0E94 0000 		call hook_layer_change
  30               	.LVL1:
  68:../../../../tmk_core/common/action_layer.c ****     layer_debug(); dprintln();
  69:../../../../tmk_core/common/action_layer.c ****     clear_keyboard_but_mods(); // To avoid stuck keys
  31               		.loc 1 69 0
  32 0014 0C94 0000 		jmp clear_keyboard_but_mods
  33               	.LVL2:
  34               		.cfi_endproc
  35               	.LFE10:
  37               		.section	.text.default_layer_state_set,"ax",@progbits
  39               	default_layer_state_set:
  40               	.LFB4:
  21:../../../../tmk_core/common/action_layer.c **** {
  41               		.loc 1 21 0
  42               		.cfi_startproc
  43               	.LVL3:
  44               	/* prologue: function */
  45               	/* frame size = 0 */
  46               	/* stack size = 0 */
  47               	.L__stack_usage = 0
  24:../../../../tmk_core/common/action_layer.c ****     default_layer_state = state;
  48               		.loc 1 24 0
  49 0000 6093 0000 		sts default_layer_state,r22
  50 0004 7093 0000 		sts default_layer_state+1,r23
  51 0008 8093 0000 		sts default_layer_state+2,r24
  52 000c 9093 0000 		sts default_layer_state+3,r25
  25:../../../../tmk_core/common/action_layer.c ****     hook_default_layer_change(default_layer_state);
  53               		.loc 1 25 0
  54 0010 0E94 0000 		call hook_default_layer_change
  55               	.LVL4:
  27:../../../../tmk_core/common/action_layer.c ****     clear_keyboard_but_mods(); // To avoid stuck keys
  56               		.loc 1 27 0
  57 0014 0C94 0000 		jmp clear_keyboard_but_mods
  58               	.LVL5:
  59               		.cfi_endproc
  60               	.LFE4:
  62               		.section	.text.default_layer_debug,"ax",@progbits
  63               	.global	default_layer_debug
  65               	default_layer_debug:
  66               	.LFB5:
  31:../../../../tmk_core/common/action_layer.c **** {
  67               		.loc 1 31 0
  68               		.cfi_startproc
  69               	/* prologue: function */
  70               	/* frame size = 0 */
  71               	/* stack size = 0 */
  72               	.L__stack_usage = 0
  73 0000 0895      		ret
  74               		.cfi_endproc
  75               	.LFE5:
  77               		.section	.text.default_layer_set,"ax",@progbits
  78               	.global	default_layer_set
  80               	default_layer_set:
  81               	.LFB6:
  36:../../../../tmk_core/common/action_layer.c **** {
  82               		.loc 1 36 0
  83               		.cfi_startproc
  84               	.LVL6:
  85               	/* prologue: function */
  86               	/* frame size = 0 */
  87               	/* stack size = 0 */
  88               	.L__stack_usage = 0
  37:../../../../tmk_core/common/action_layer.c ****     default_layer_state_set(state);
  89               		.loc 1 37 0
  90 0000 0C94 0000 		jmp default_layer_state_set
  91               	.LVL7:
  92               		.cfi_endproc
  93               	.LFE6:
  95               		.section	.text.default_layer_or,"ax",@progbits
  96               	.global	default_layer_or
  98               	default_layer_or:
  99               	.LFB7:
  42:../../../../tmk_core/common/action_layer.c **** {
 100               		.loc 1 42 0
 101               		.cfi_startproc
 102               	.LVL8:
 103 0000 0F93      		push r16
 104               	.LCFI0:
 105               		.cfi_def_cfa_offset 3
 106               		.cfi_offset 16, -2
 107 0002 1F93      		push r17
 108               	.LCFI1:
 109               		.cfi_def_cfa_offset 4
 110               		.cfi_offset 17, -3
 111               	/* prologue: function */
 112               	/* frame size = 0 */
 113               	/* stack size = 2 */
 114               	.L__stack_usage = 2
  43:../../../../tmk_core/common/action_layer.c ****     default_layer_state_set(default_layer_state | state);
 115               		.loc 1 43 0
 116 0004 0091 0000 		lds r16,default_layer_state
 117 0008 1091 0000 		lds r17,default_layer_state+1
 118 000c 2091 0000 		lds r18,default_layer_state+2
 119 0010 3091 0000 		lds r19,default_layer_state+3
 120 0014 602B      		or r22,r16
 121 0016 712B      		or r23,r17
 122 0018 822B      		or r24,r18
 123 001a 932B      		or r25,r19
 124               	.LVL9:
 125               	/* epilogue start */
  44:../../../../tmk_core/common/action_layer.c **** }
 126               		.loc 1 44 0
 127 001c 1F91      		pop r17
 128 001e 0F91      		pop r16
  43:../../../../tmk_core/common/action_layer.c ****     default_layer_state_set(default_layer_state | state);
 129               		.loc 1 43 0
 130 0020 0C94 0000 		jmp default_layer_state_set
 131               	.LVL10:
 132               		.cfi_endproc
 133               	.LFE7:
 135               		.section	.text.default_layer_and,"ax",@progbits
 136               	.global	default_layer_and
 138               	default_layer_and:
 139               	.LFB8:
  46:../../../../tmk_core/common/action_layer.c **** {
 140               		.loc 1 46 0
 141               		.cfi_startproc
 142               	.LVL11:
 143 0000 0F93      		push r16
 144               	.LCFI2:
 145               		.cfi_def_cfa_offset 3
 146               		.cfi_offset 16, -2
 147 0002 1F93      		push r17
 148               	.LCFI3:
 149               		.cfi_def_cfa_offset 4
 150               		.cfi_offset 17, -3
 151               	/* prologue: function */
 152               	/* frame size = 0 */
 153               	/* stack size = 2 */
 154               	.L__stack_usage = 2
  47:../../../../tmk_core/common/action_layer.c ****     default_layer_state_set(default_layer_state & state);
 155               		.loc 1 47 0
 156 0004 0091 0000 		lds r16,default_layer_state
 157 0008 1091 0000 		lds r17,default_layer_state+1
 158 000c 2091 0000 		lds r18,default_layer_state+2
 159 0010 3091 0000 		lds r19,default_layer_state+3
 160 0014 6023      		and r22,r16
 161 0016 7123      		and r23,r17
 162 0018 8223      		and r24,r18
 163 001a 9323      		and r25,r19
 164               	.LVL12:
 165               	/* epilogue start */
  48:../../../../tmk_core/common/action_layer.c **** }
 166               		.loc 1 48 0
 167 001c 1F91      		pop r17
 168 001e 0F91      		pop r16
  47:../../../../tmk_core/common/action_layer.c ****     default_layer_state_set(default_layer_state & state);
 169               		.loc 1 47 0
 170 0020 0C94 0000 		jmp default_layer_state_set
 171               	.LVL13:
 172               		.cfi_endproc
 173               	.LFE8:
 175               		.section	.text.default_layer_xor,"ax",@progbits
 176               	.global	default_layer_xor
 178               	default_layer_xor:
 179               	.LFB9:
  50:../../../../tmk_core/common/action_layer.c **** {
 180               		.loc 1 50 0
 181               		.cfi_startproc
 182               	.LVL14:
 183 0000 0F93      		push r16
 184               	.LCFI4:
 185               		.cfi_def_cfa_offset 3
 186               		.cfi_offset 16, -2
 187 0002 1F93      		push r17
 188               	.LCFI5:
 189               		.cfi_def_cfa_offset 4
 190               		.cfi_offset 17, -3
 191               	/* prologue: function */
 192               	/* frame size = 0 */
 193               	/* stack size = 2 */
 194               	.L__stack_usage = 2
  51:../../../../tmk_core/common/action_layer.c ****     default_layer_state_set(default_layer_state ^ state);
 195               		.loc 1 51 0
 196 0004 0091 0000 		lds r16,default_layer_state
 197 0008 1091 0000 		lds r17,default_layer_state+1
 198 000c 2091 0000 		lds r18,default_layer_state+2
 199 0010 3091 0000 		lds r19,default_layer_state+3
 200 0014 6027      		eor r22,r16
 201 0016 7127      		eor r23,r17
 202 0018 8227      		eor r24,r18
 203 001a 9327      		eor r25,r19
 204               	.LVL15:
 205               	/* epilogue start */
  52:../../../../tmk_core/common/action_layer.c **** }
 206               		.loc 1 52 0
 207 001c 1F91      		pop r17
 208 001e 0F91      		pop r16
  51:../../../../tmk_core/common/action_layer.c ****     default_layer_state_set(default_layer_state ^ state);
 209               		.loc 1 51 0
 210 0020 0C94 0000 		jmp default_layer_state_set
 211               	.LVL16:
 212               		.cfi_endproc
 213               	.LFE9:
 215               		.section	.text.layer_clear,"ax",@progbits
 216               	.global	layer_clear
 218               	layer_clear:
 219               	.LFB11:
  70:../../../../tmk_core/common/action_layer.c **** }
  71:../../../../tmk_core/common/action_layer.c **** 
  72:../../../../tmk_core/common/action_layer.c **** void layer_clear(void)
  73:../../../../tmk_core/common/action_layer.c **** {
 220               		.loc 1 73 0
 221               		.cfi_startproc
 222               	/* prologue: function */
 223               	/* frame size = 0 */
 224               	/* stack size = 0 */
 225               	.L__stack_usage = 0
  74:../../../../tmk_core/common/action_layer.c ****     layer_state_set(0);
 226               		.loc 1 74 0
 227 0000 60E0      		ldi r22,0
 228 0002 70E0      		ldi r23,0
 229 0004 CB01      		movw r24,r22
 230 0006 0C94 0000 		jmp layer_state_set
 231               	.LVL17:
 232               		.cfi_endproc
 233               	.LFE11:
 235               		.section	.text.layer_move,"ax",@progbits
 236               	.global	layer_move
 238               	layer_move:
 239               	.LFB12:
  75:../../../../tmk_core/common/action_layer.c **** }
  76:../../../../tmk_core/common/action_layer.c **** 
  77:../../../../tmk_core/common/action_layer.c **** void layer_move(uint8_t layer)
  78:../../../../tmk_core/common/action_layer.c **** {
 240               		.loc 1 78 0
 241               		.cfi_startproc
 242               	.LVL18:
 243               	/* prologue: function */
 244               	/* frame size = 0 */
 245               	/* stack size = 0 */
 246               	.L__stack_usage = 0
  79:../../../../tmk_core/common/action_layer.c ****     layer_state_set(1UL<<layer);
 247               		.loc 1 79 0
 248 0000 41E0      		ldi r20,lo8(1)
 249 0002 50E0      		ldi r21,0
 250 0004 60E0      		ldi r22,0
 251 0006 70E0      		ldi r23,0
 252 0008 00C0      		rjmp 2f
 253               		1:
 254 000a 440F      		lsl r20
 255 000c 551F      		rol r21
 256 000e 661F      		rol r22
 257 0010 771F      		rol r23
 258               		2:
 259 0012 8A95      		dec r24
 260 0014 02F4      		brpl 1b
 261 0016 CB01      		movw r24,r22
 262 0018 BA01      		movw r22,r20
 263 001a 0C94 0000 		jmp layer_state_set
 264               	.LVL19:
 265               		.cfi_endproc
 266               	.LFE12:
 268               		.section	.text.layer_on,"ax",@progbits
 269               	.global	layer_on
 271               	layer_on:
 272               	.LFB13:
  80:../../../../tmk_core/common/action_layer.c **** }
  81:../../../../tmk_core/common/action_layer.c **** 
  82:../../../../tmk_core/common/action_layer.c **** void layer_on(uint8_t layer)
  83:../../../../tmk_core/common/action_layer.c **** {
 273               		.loc 1 83 0
 274               		.cfi_startproc
 275               	.LVL20:
 276               	/* prologue: function */
 277               	/* frame size = 0 */
 278               	/* stack size = 0 */
 279               	.L__stack_usage = 0
  84:../../../../tmk_core/common/action_layer.c ****     layer_state_set(layer_state | (1UL<<layer));
 280               		.loc 1 84 0
 281 0000 41E0      		ldi r20,lo8(1)
 282 0002 50E0      		ldi r21,0
 283 0004 60E0      		ldi r22,0
 284 0006 70E0      		ldi r23,0
 285 0008 00C0      		rjmp 2f
 286               		1:
 287 000a 440F      		lsl r20
 288 000c 551F      		rol r21
 289 000e 661F      		rol r22
 290 0010 771F      		rol r23
 291               		2:
 292 0012 8A95      		dec r24
 293 0014 02F4      		brpl 1b
 294 0016 8091 0000 		lds r24,layer_state
 295 001a 9091 0000 		lds r25,layer_state+1
 296 001e A091 0000 		lds r26,layer_state+2
 297 0022 B091 0000 		lds r27,layer_state+3
 298               	.LVL21:
 299 0026 482B      		or r20,r24
 300 0028 592B      		or r21,r25
 301 002a 6A2B      		or r22,r26
 302 002c 7B2B      		or r23,r27
 303 002e CB01      		movw r24,r22
 304 0030 BA01      		movw r22,r20
 305 0032 0C94 0000 		jmp layer_state_set
 306               	.LVL22:
 307               		.cfi_endproc
 308               	.LFE13:
 310               		.section	.text.layer_off,"ax",@progbits
 311               	.global	layer_off
 313               	layer_off:
 314               	.LFB14:
  85:../../../../tmk_core/common/action_layer.c **** }
  86:../../../../tmk_core/common/action_layer.c **** 
  87:../../../../tmk_core/common/action_layer.c **** void layer_off(uint8_t layer)
  88:../../../../tmk_core/common/action_layer.c **** {
 315               		.loc 1 88 0
 316               		.cfi_startproc
 317               	.LVL23:
 318               	/* prologue: function */
 319               	/* frame size = 0 */
 320               	/* stack size = 0 */
 321               	.L__stack_usage = 0
  89:../../../../tmk_core/common/action_layer.c ****     layer_state_set(layer_state & ~(1UL<<layer));
 322               		.loc 1 89 0
 323 0000 41E0      		ldi r20,lo8(1)
 324 0002 50E0      		ldi r21,0
 325 0004 60E0      		ldi r22,0
 326 0006 70E0      		ldi r23,0
 327 0008 00C0      		rjmp 2f
 328               		1:
 329 000a 440F      		lsl r20
 330 000c 551F      		rol r21
 331 000e 661F      		rol r22
 332 0010 771F      		rol r23
 333               		2:
 334 0012 8A95      		dec r24
 335 0014 02F4      		brpl 1b
 336 0016 4095      		com r20
 337 0018 5095      		com r21
 338 001a 6095      		com r22
 339 001c 7095      		com r23
 340 001e 8091 0000 		lds r24,layer_state
 341 0022 9091 0000 		lds r25,layer_state+1
 342 0026 A091 0000 		lds r26,layer_state+2
 343 002a B091 0000 		lds r27,layer_state+3
 344               	.LVL24:
 345 002e 4823      		and r20,r24
 346 0030 5923      		and r21,r25
 347 0032 6A23      		and r22,r26
 348 0034 7B23      		and r23,r27
 349 0036 CB01      		movw r24,r22
 350 0038 BA01      		movw r22,r20
 351 003a 0C94 0000 		jmp layer_state_set
 352               	.LVL25:
 353               		.cfi_endproc
 354               	.LFE14:
 356               		.section	.text.layer_invert,"ax",@progbits
 357               	.global	layer_invert
 359               	layer_invert:
 360               	.LFB15:
  90:../../../../tmk_core/common/action_layer.c **** }
  91:../../../../tmk_core/common/action_layer.c **** 
  92:../../../../tmk_core/common/action_layer.c **** void layer_invert(uint8_t layer)
  93:../../../../tmk_core/common/action_layer.c **** {
 361               		.loc 1 93 0
 362               		.cfi_startproc
 363               	.LVL26:
 364               	/* prologue: function */
 365               	/* frame size = 0 */
 366               	/* stack size = 0 */
 367               	.L__stack_usage = 0
  94:../../../../tmk_core/common/action_layer.c ****     layer_state_set(layer_state ^ (1UL<<layer));
 368               		.loc 1 94 0
 369 0000 41E0      		ldi r20,lo8(1)
 370 0002 50E0      		ldi r21,0
 371 0004 60E0      		ldi r22,0
 372 0006 70E0      		ldi r23,0
 373 0008 00C0      		rjmp 2f
 374               		1:
 375 000a 440F      		lsl r20
 376 000c 551F      		rol r21
 377 000e 661F      		rol r22
 378 0010 771F      		rol r23
 379               		2:
 380 0012 8A95      		dec r24
 381 0014 02F4      		brpl 1b
 382 0016 8091 0000 		lds r24,layer_state
 383 001a 9091 0000 		lds r25,layer_state+1
 384 001e A091 0000 		lds r26,layer_state+2
 385 0022 B091 0000 		lds r27,layer_state+3
 386               	.LVL27:
 387 0026 4827      		eor r20,r24
 388 0028 5927      		eor r21,r25
 389 002a 6A27      		eor r22,r26
 390 002c 7B27      		eor r23,r27
 391 002e CB01      		movw r24,r22
 392 0030 BA01      		movw r22,r20
 393 0032 0C94 0000 		jmp layer_state_set
 394               	.LVL28:
 395               		.cfi_endproc
 396               	.LFE15:
 398               		.section	.text.layer_or,"ax",@progbits
 399               	.global	layer_or
 401               	layer_or:
 402               	.LFB16:
  95:../../../../tmk_core/common/action_layer.c **** }
  96:../../../../tmk_core/common/action_layer.c **** 
  97:../../../../tmk_core/common/action_layer.c **** void layer_or(uint32_t state)
  98:../../../../tmk_core/common/action_layer.c **** {
 403               		.loc 1 98 0
 404               		.cfi_startproc
 405               	.LVL29:
 406 0000 0F93      		push r16
 407               	.LCFI6:
 408               		.cfi_def_cfa_offset 3
 409               		.cfi_offset 16, -2
 410 0002 1F93      		push r17
 411               	.LCFI7:
 412               		.cfi_def_cfa_offset 4
 413               		.cfi_offset 17, -3
 414               	/* prologue: function */
 415               	/* frame size = 0 */
 416               	/* stack size = 2 */
 417               	.L__stack_usage = 2
  99:../../../../tmk_core/common/action_layer.c ****     layer_state_set(layer_state | state);
 418               		.loc 1 99 0
 419 0004 0091 0000 		lds r16,layer_state
 420 0008 1091 0000 		lds r17,layer_state+1
 421 000c 2091 0000 		lds r18,layer_state+2
 422 0010 3091 0000 		lds r19,layer_state+3
 423 0014 602B      		or r22,r16
 424 0016 712B      		or r23,r17
 425 0018 822B      		or r24,r18
 426 001a 932B      		or r25,r19
 427               	.LVL30:
 428               	/* epilogue start */
 100:../../../../tmk_core/common/action_layer.c **** }
 429               		.loc 1 100 0
 430 001c 1F91      		pop r17
 431 001e 0F91      		pop r16
  99:../../../../tmk_core/common/action_layer.c ****     layer_state_set(layer_state | state);
 432               		.loc 1 99 0
 433 0020 0C94 0000 		jmp layer_state_set
 434               	.LVL31:
 435               		.cfi_endproc
 436               	.LFE16:
 438               		.section	.text.layer_and,"ax",@progbits
 439               	.global	layer_and
 441               	layer_and:
 442               	.LFB17:
 101:../../../../tmk_core/common/action_layer.c **** void layer_and(uint32_t state)
 102:../../../../tmk_core/common/action_layer.c **** {
 443               		.loc 1 102 0
 444               		.cfi_startproc
 445               	.LVL32:
 446 0000 0F93      		push r16
 447               	.LCFI8:
 448               		.cfi_def_cfa_offset 3
 449               		.cfi_offset 16, -2
 450 0002 1F93      		push r17
 451               	.LCFI9:
 452               		.cfi_def_cfa_offset 4
 453               		.cfi_offset 17, -3
 454               	/* prologue: function */
 455               	/* frame size = 0 */
 456               	/* stack size = 2 */
 457               	.L__stack_usage = 2
 103:../../../../tmk_core/common/action_layer.c ****     layer_state_set(layer_state & state);
 458               		.loc 1 103 0
 459 0004 0091 0000 		lds r16,layer_state
 460 0008 1091 0000 		lds r17,layer_state+1
 461 000c 2091 0000 		lds r18,layer_state+2
 462 0010 3091 0000 		lds r19,layer_state+3
 463 0014 6023      		and r22,r16
 464 0016 7123      		and r23,r17
 465 0018 8223      		and r24,r18
 466 001a 9323      		and r25,r19
 467               	.LVL33:
 468               	/* epilogue start */
 104:../../../../tmk_core/common/action_layer.c **** }
 469               		.loc 1 104 0
 470 001c 1F91      		pop r17
 471 001e 0F91      		pop r16
 103:../../../../tmk_core/common/action_layer.c ****     layer_state_set(layer_state & state);
 472               		.loc 1 103 0
 473 0020 0C94 0000 		jmp layer_state_set
 474               	.LVL34:
 475               		.cfi_endproc
 476               	.LFE17:
 478               		.section	.text.layer_xor,"ax",@progbits
 479               	.global	layer_xor
 481               	layer_xor:
 482               	.LFB18:
 105:../../../../tmk_core/common/action_layer.c **** void layer_xor(uint32_t state)
 106:../../../../tmk_core/common/action_layer.c **** {
 483               		.loc 1 106 0
 484               		.cfi_startproc
 485               	.LVL35:
 486 0000 0F93      		push r16
 487               	.LCFI10:
 488               		.cfi_def_cfa_offset 3
 489               		.cfi_offset 16, -2
 490 0002 1F93      		push r17
 491               	.LCFI11:
 492               		.cfi_def_cfa_offset 4
 493               		.cfi_offset 17, -3
 494               	/* prologue: function */
 495               	/* frame size = 0 */
 496               	/* stack size = 2 */
 497               	.L__stack_usage = 2
 107:../../../../tmk_core/common/action_layer.c ****     layer_state_set(layer_state ^ state);
 498               		.loc 1 107 0
 499 0004 0091 0000 		lds r16,layer_state
 500 0008 1091 0000 		lds r17,layer_state+1
 501 000c 2091 0000 		lds r18,layer_state+2
 502 0010 3091 0000 		lds r19,layer_state+3
 503 0014 6027      		eor r22,r16
 504 0016 7127      		eor r23,r17
 505 0018 8227      		eor r24,r18
 506 001a 9327      		eor r25,r19
 507               	.LVL36:
 508               	/* epilogue start */
 108:../../../../tmk_core/common/action_layer.c **** }
 509               		.loc 1 108 0
 510 001c 1F91      		pop r17
 511 001e 0F91      		pop r16
 107:../../../../tmk_core/common/action_layer.c ****     layer_state_set(layer_state ^ state);
 512               		.loc 1 107 0
 513 0020 0C94 0000 		jmp layer_state_set
 514               	.LVL37:
 515               		.cfi_endproc
 516               	.LFE18:
 518               		.section	.text.layer_debug,"ax",@progbits
 519               	.global	layer_debug
 521               	layer_debug:
 522               	.LFB19:
 109:../../../../tmk_core/common/action_layer.c **** 
 110:../../../../tmk_core/common/action_layer.c **** void layer_debug(void)
 111:../../../../tmk_core/common/action_layer.c **** {
 523               		.loc 1 111 0
 524               		.cfi_startproc
 525               	/* prologue: function */
 526               	/* frame size = 0 */
 527               	/* stack size = 0 */
 528               	.L__stack_usage = 0
 529 0000 0895      		ret
 530               		.cfi_endproc
 531               	.LFE19:
 533               		.section	.text.layer_switch_get_action,"ax",@progbits
 534               	.global	layer_switch_get_action
 536               	layer_switch_get_action:
 537               	.LFB20:
 112:../../../../tmk_core/common/action_layer.c ****     dprintf("%08lX(%u)", layer_state, biton32(layer_state));
 113:../../../../tmk_core/common/action_layer.c **** }
 114:../../../../tmk_core/common/action_layer.c **** #endif
 115:../../../../tmk_core/common/action_layer.c **** 
 116:../../../../tmk_core/common/action_layer.c **** 
 117:../../../../tmk_core/common/action_layer.c **** 
 118:../../../../tmk_core/common/action_layer.c **** action_t layer_switch_get_action(keypos_t key)
 119:../../../../tmk_core/common/action_layer.c **** {
 538               		.loc 1 119 0
 539               		.cfi_startproc
 540               	.LVL38:
 541               		.loc 1 119 0
 542 0000 8F92      		push r8
 543               	.LCFI12:
 544               		.cfi_def_cfa_offset 3
 545               		.cfi_offset 8, -2
 546 0002 9F92      		push r9
 547               	.LCFI13:
 548               		.cfi_def_cfa_offset 4
 549               		.cfi_offset 9, -3
 550 0004 AF92      		push r10
 551               	.LCFI14:
 552               		.cfi_def_cfa_offset 5
 553               		.cfi_offset 10, -4
 554 0006 BF92      		push r11
 555               	.LCFI15:
 556               		.cfi_def_cfa_offset 6
 557               		.cfi_offset 11, -5
 558 0008 CF92      		push r12
 559               	.LCFI16:
 560               		.cfi_def_cfa_offset 7
 561               		.cfi_offset 12, -6
 562 000a DF92      		push r13
 563               	.LCFI17:
 564               		.cfi_def_cfa_offset 8
 565               		.cfi_offset 13, -7
 566 000c EF92      		push r14
 567               	.LCFI18:
 568               		.cfi_def_cfa_offset 9
 569               		.cfi_offset 14, -8
 570 000e FF92      		push r15
 571               	.LCFI19:
 572               		.cfi_def_cfa_offset 10
 573               		.cfi_offset 15, -9
 574               	/* prologue: function */
 575               	/* frame size = 0 */
 576               	/* stack size = 8 */
 577               	.L__stack_usage = 8
 578 0010 6C01      		movw r12,r24
 579               	.LVL39:
 120:../../../../tmk_core/common/action_layer.c ****     action_t action = { .code = ACTION_TRANSPARENT };
 121:../../../../tmk_core/common/action_layer.c **** 
 122:../../../../tmk_core/common/action_layer.c **** #ifndef NO_ACTION_LAYER
 123:../../../../tmk_core/common/action_layer.c ****     uint32_t layers = layer_state | default_layer_state;
 580               		.loc 1 123 0
 581 0012 8090 0000 		lds r8,default_layer_state
 582 0016 9090 0000 		lds r9,default_layer_state+1
 583 001a A090 0000 		lds r10,default_layer_state+2
 584 001e B090 0000 		lds r11,default_layer_state+3
 585 0022 4091 0000 		lds r20,layer_state
 586 0026 5091 0000 		lds r21,layer_state+1
 587 002a 6091 0000 		lds r22,layer_state+2
 588 002e 7091 0000 		lds r23,layer_state+3
 589 0032 842A      		or r8,r20
 590 0034 952A      		or r9,r21
 591 0036 A62A      		or r10,r22
 592 0038 B72A      		or r11,r23
 593               	.LVL40:
 594 003a 8FE1      		ldi r24,lo8(31)
 595 003c E82E      		mov r14,r24
 596 003e F12C      		mov r15,__zero_reg__
 597               	.LVL41:
 598               	.L20:
 599               	.LBB2:
 124:../../../../tmk_core/common/action_layer.c ****     /* check top layer first */
 125:../../../../tmk_core/common/action_layer.c ****     for (int8_t i = 31; i >= 0; i--) {
 126:../../../../tmk_core/common/action_layer.c ****         if (layers & (1UL<<i)) {
 600               		.loc 1 126 0
 601 0040 B501      		movw r22,r10
 602 0042 A401      		movw r20,r8
 603 0044 0E2C      		mov r0,r14
 604 0046 00C0      		rjmp 2f
 605               		1:
 606 0048 7695      		lsr r23
 607 004a 6795      		ror r22
 608 004c 5795      		ror r21
 609 004e 4795      		ror r20
 610               		2:
 611 0050 0A94      		dec r0
 612 0052 02F4      		brpl 1b
 613 0054 40FF      		sbrs r20,0
 614 0056 00C0      		rjmp .L18
 127:../../../../tmk_core/common/action_layer.c ****             action = action_for_key(i, key);
 615               		.loc 1 127 0
 616 0058 B601      		movw r22,r12
 617 005a 8E2D      		mov r24,r14
 618 005c 0E94 0000 		call action_for_key
 619               	.LVL42:
 128:../../../../tmk_core/common/action_layer.c ****             if (action.code != ACTION_TRANSPARENT) {
 620               		.loc 1 128 0
 621 0060 8130      		cpi r24,1
 622 0062 9105      		cpc r25,__zero_reg__
 623 0064 01F0      		breq .L18
 624 0066 00C0      		rjmp .L19
 625               	.LVL43:
 626               	.L18:
 627 0068 81E0      		ldi r24,1
 628 006a E81A      		sub r14,r24
 629 006c F108      		sbc r15,__zero_reg__
 630 006e 00F4      		brcc .L20
 631               	.LBE2:
 129:../../../../tmk_core/common/action_layer.c ****                 return action;
 130:../../../../tmk_core/common/action_layer.c ****             }
 131:../../../../tmk_core/common/action_layer.c ****         }
 132:../../../../tmk_core/common/action_layer.c ****     }
 133:../../../../tmk_core/common/action_layer.c ****     /* fall back to layer 0 */
 134:../../../../tmk_core/common/action_layer.c ****     action = action_for_key(0, key);
 632               		.loc 1 134 0
 633 0070 B601      		movw r22,r12
 634 0072 80E0      		ldi r24,0
 635 0074 0E94 0000 		call action_for_key
 636               	.LVL44:
 637               	.L19:
 638               	/* epilogue start */
 135:../../../../tmk_core/common/action_layer.c ****     return action;
 136:../../../../tmk_core/common/action_layer.c **** #else
 137:../../../../tmk_core/common/action_layer.c ****     action = action_for_key(biton32(default_layer_state), key);
 138:../../../../tmk_core/common/action_layer.c ****     return action;
 139:../../../../tmk_core/common/action_layer.c **** #endif
 140:../../../../tmk_core/common/action_layer.c **** }
 639               		.loc 1 140 0
 640 0078 FF90      		pop r15
 641 007a EF90      		pop r14
 642 007c DF90      		pop r13
 643 007e CF90      		pop r12
 644               	.LVL45:
 645 0080 BF90      		pop r11
 646 0082 AF90      		pop r10
 647 0084 9F90      		pop r9
 648 0086 8F90      		pop r8
 649               	.LVL46:
 650 0088 0895      		ret
 651               		.cfi_endproc
 652               	.LFE20:
 654               	.global	layer_state
 655               		.section	.bss.layer_state,"aw",@nobits
 658               	layer_state:
 659 0000 0000 0000 		.zero	4
 660               	.global	default_layer_state
 661               		.section	.bss.default_layer_state,"aw",@nobits
 664               	default_layer_state:
 665 0000 0000 0000 		.zero	4
 666               		.text
 667               	.Letext0:
 668               		.file 2 "/usr/lib64/gcc/avr/4.7.1/../../../../avr/include/stdint.h"
 669               		.file 3 "../../../../tmk_core/common/keyboard.h"
 670               		.file 4 "../../../../tmk_core/common/action_code.h"
 671               		.file 5 "../../../../tmk_core/common/hook.h"
 672               		.file 6 "../../../../tmk_core/common/action.h"