   1               		.file	"host.c"
   2               	__SP_H__ = 0x3e
   3               	__SP_L__ = 0x3d
   4               	__SREG__ = 0x3f
   5               	__RAMPZ__ = 0x3b
   6               	__tmp_reg__ = 0
   7               	__zero_reg__ = 1
   8               		.text
   9               	.Ltext0:
  10               		.cfi_sections	.debug_frame
  11               		.section	.text.host_set_driver,"ax",@progbits
  12               	.global	host_set_driver
  14               	host_set_driver:
  15               	.LFB1:
  16               		.file 1 "../../../../tmk_core/common/host.c"
   1:../../../../tmk_core/common/host.c **** /*
   2:../../../../tmk_core/common/host.c **** Copyright 2011,2012 Jun Wako <wakojun@gmail.com>
   3:../../../../tmk_core/common/host.c **** 
   4:../../../../tmk_core/common/host.c **** This program is free software: you can redistribute it and/or modify
   5:../../../../tmk_core/common/host.c **** it under the terms of the GNU General Public License as published by
   6:../../../../tmk_core/common/host.c **** the Free Software Foundation, either version 2 of the License, or
   7:../../../../tmk_core/common/host.c **** (at your option) any later version.
   8:../../../../tmk_core/common/host.c **** 
   9:../../../../tmk_core/common/host.c **** This program is distributed in the hope that it will be useful,
  10:../../../../tmk_core/common/host.c **** but WITHOUT ANY WARRANTY; without even the implied warranty of
  11:../../../../tmk_core/common/host.c **** MERCHANTABILITY or FITNESS FOR A PARTICULAR PURPOSE.  See the
  12:../../../../tmk_core/common/host.c **** GNU General Public License for more details.
  13:../../../../tmk_core/common/host.c **** 
  14:../../../../tmk_core/common/host.c **** You should have received a copy of the GNU General Public License
  15:../../../../tmk_core/common/host.c **** along with this program.  If not, see <http://www.gnu.org/licenses/>.
  16:../../../../tmk_core/common/host.c **** */
  17:../../../../tmk_core/common/host.c **** 
  18:../../../../tmk_core/common/host.c **** #include <stdint.h>
  19:../../../../tmk_core/common/host.c **** //#include <avr/interrupt.h>
  20:../../../../tmk_core/common/host.c **** #include "keycode.h"
  21:../../../../tmk_core/common/host.c **** #include "host.h"
  22:../../../../tmk_core/common/host.c **** #include "util.h"
  23:../../../../tmk_core/common/host.c **** #include "debug.h"
  24:../../../../tmk_core/common/host.c **** 
  25:../../../../tmk_core/common/host.c **** 
  26:../../../../tmk_core/common/host.c **** #ifdef NKRO_ENABLE
  27:../../../../tmk_core/common/host.c **** bool keyboard_nkro = true;
  28:../../../../tmk_core/common/host.c **** #endif
  29:../../../../tmk_core/common/host.c **** 
  30:../../../../tmk_core/common/host.c **** static host_driver_t *driver;
  31:../../../../tmk_core/common/host.c **** static uint16_t last_system_report = 0;
  32:../../../../tmk_core/common/host.c **** static uint16_t last_consumer_report = 0;
  33:../../../../tmk_core/common/host.c **** 
  34:../../../../tmk_core/common/host.c **** 
  35:../../../../tmk_core/common/host.c **** void host_set_driver(host_driver_t *d)
  36:../../../../tmk_core/common/host.c **** {
  17               		.loc 1 36 0
  18               		.cfi_startproc
  19               	.LVL0:
  20               	/* prologue: function */
  21               	/* frame size = 0 */
  22               	/* stack size = 0 */
  23               	.L__stack_usage = 0
  37:../../../../tmk_core/common/host.c ****     driver = d;
  24               		.loc 1 37 0
  25 0000 9093 0000 		sts driver+1,r25
  26 0004 8093 0000 		sts driver,r24
  27 0008 0895      		ret
  28               		.cfi_endproc
  29               	.LFE1:
  31               		.section	.text.host_get_driver,"ax",@progbits
  32               	.global	host_get_driver
  34               	host_get_driver:
  35               	.LFB2:
  38:../../../../tmk_core/common/host.c **** }
  39:../../../../tmk_core/common/host.c **** 
  40:../../../../tmk_core/common/host.c **** host_driver_t *host_get_driver(void)
  41:../../../../tmk_core/common/host.c **** {
  36               		.loc 1 41 0
  37               		.cfi_startproc
  38               	/* prologue: function */
  39               	/* frame size = 0 */
  40               	/* stack size = 0 */
  41               	.L__stack_usage = 0
  42:../../../../tmk_core/common/host.c ****     return driver;
  43:../../../../tmk_core/common/host.c **** }
  42               		.loc 1 43 0
  43 0000 8091 0000 		lds r24,driver
  44 0004 9091 0000 		lds r25,driver+1
  45 0008 0895      		ret
  46               		.cfi_endproc
  47               	.LFE2:
  49               		.section	.text.host_keyboard_leds,"ax",@progbits
  50               	.global	host_keyboard_leds
  52               	host_keyboard_leds:
  53               	.LFB3:
  44:../../../../tmk_core/common/host.c **** 
  45:../../../../tmk_core/common/host.c **** uint8_t host_keyboard_leds(void)
  46:../../../../tmk_core/common/host.c **** {
  54               		.loc 1 46 0
  55               		.cfi_startproc
  56               	/* prologue: function */
  57               	/* frame size = 0 */
  58               	/* stack size = 0 */
  59               	.L__stack_usage = 0
  47:../../../../tmk_core/common/host.c ****     if (!driver) return 0;
  60               		.loc 1 47 0
  61 0000 E091 0000 		lds r30,driver
  62 0004 F091 0000 		lds r31,driver+1
  63 0008 3097      		sbiw r30,0
  64 000a 01F0      		breq .L4
  48:../../../../tmk_core/common/host.c ****     return (*driver->keyboard_leds)();
  65               		.loc 1 48 0
  66 000c 0190      		ld __tmp_reg__,Z+
  67 000e F081      		ld r31,Z
  68 0010 E02D      		mov r30,__tmp_reg__
  69 0012 0994      		ijmp
  70               	.LVL1:
  71               	.L4:
  49:../../../../tmk_core/common/host.c **** }
  72               		.loc 1 49 0
  73 0014 80E0      		ldi r24,0
  74 0016 0895      		ret
  75               		.cfi_endproc
  76               	.LFE3:
  78               		.section	.text.host_keyboard_send,"ax",@progbits
  79               	.global	host_keyboard_send
  81               	host_keyboard_send:
  82               	.LFB4:
  50:../../../../tmk_core/common/host.c **** /* send report */
  51:../../../../tmk_core/common/host.c **** void host_keyboard_send(report_keyboard_t *report)
  52:../../../../tmk_core/common/host.c **** {
  83               		.loc 1 52 0
  84               		.cfi_startproc
  85               	.LVL2:
  86 0000 CF92      		push r12
  87               	.LCFI0:
  88               		.cfi_def_cfa_offset 3
  89               		.cfi_offset 12, -2
  90 0002 DF92      		push r13
  91               	.LCFI1:
  92               		.cfi_def_cfa_offset 4
  93               		.cfi_offset 13, -3
  94 0004 EF92      		push r14
  95               	.LCFI2:
  96               		.cfi_def_cfa_offset 5
  97               		.cfi_offset 14, -4
  98 0006 FF92      		push r15
  99               	.LCFI3:
 100               		.cfi_def_cfa_offset 6
 101               		.cfi_offset 15, -5
 102 0008 CF93      		push r28
 103               	.LCFI4:
 104               		.cfi_def_cfa_offset 7
 105               		.cfi_offset 28, -6
 106               	/* prologue: function */
 107               	/* frame size = 0 */
 108               	/* stack size = 5 */
 109               	.L__stack_usage = 5
 110 000a D82E      		mov r13,r24
 111 000c C92F      		mov r28,r25
  53:../../../../tmk_core/common/host.c ****     if (!driver) return;
 112               		.loc 1 53 0
 113 000e E091 0000 		lds r30,driver
 114 0012 F091 0000 		lds r31,driver+1
 115 0016 3097      		sbiw r30,0
 116 0018 01F0      		breq .L5
  54:../../../../tmk_core/common/host.c ****     (*driver->send_keyboard)(report);
 117               		.loc 1 54 0
 118 001a 0280      		ldd __tmp_reg__,Z+2
 119 001c F381      		ldd r31,Z+3
 120 001e E02D      		mov r30,__tmp_reg__
 121 0020 0995      		icall
 122               	.LVL3:
  55:../../../../tmk_core/common/host.c **** 
  56:../../../../tmk_core/common/host.c ****     if (debug_keyboard) {
 123               		.loc 1 56 0
 124 0022 8091 0000 		lds r24,debug_config
 125 0026 82FF      		sbrs r24,2
 126 0028 00C0      		rjmp .L5
  57:../../../../tmk_core/common/host.c ****         dprint("keyboard_report: ");
 127               		.loc 1 57 0
 128 002a 80FF      		sbrs r24,0
 129 002c 00C0      		rjmp .L9
 130               		.loc 1 57 0 is_stmt 0 discriminator 1
 131 002e 80E0      		ldi r24,lo8(__c.1908)
 132 0030 90E0      		ldi r25,hi8(__c.1908)
 133 0032 0E94 0000 		call xputs
 134               	.LVL4:
 135               	.L9:
 136 0036 ED2C      		mov r14,r13
 137 0038 FC2E      		mov r15,r28
  52:../../../../tmk_core/common/host.c **** {
 138               		.loc 1 52 0 is_stmt 1 discriminator 1
 139 003a C8E0      		ldi r28,lo8(8)
 140               	.LBB2:
  58:../../../../tmk_core/common/host.c ****         for (uint8_t i = 0; i < KEYBOARD_REPORT_SIZE; i++) {
  59:../../../../tmk_core/common/host.c ****             dprintf("%02X ", report->raw[i]);
 141               		.loc 1 59 0 discriminator 1
 142 003c 80E0      		ldi r24,lo8(__c.1911)
 143 003e C82E      		mov r12,r24
 144 0040 80E0      		ldi r24,hi8(__c.1911)
 145 0042 D82E      		mov r13,r24
 146               	.LVL5:
 147               	.L11:
 148               		.loc 1 59 0 is_stmt 0
 149 0044 8091 0000 		lds r24,debug_config
 150 0048 80FF      		sbrs r24,0
 151 004a 00C0      		rjmp .L10
 152               		.loc 1 59 0 discriminator 1
 153 004c F701      		movw r30,r14
 154 004e 8081      		ld r24,Z
 155 0050 1F92      		push __zero_reg__
 156               	.LCFI5:
 157               		.cfi_def_cfa_offset 8
 158 0052 8F93      		push r24
 159               	.LCFI6:
 160               		.cfi_def_cfa_offset 9
 161 0054 DF92      		push r13
 162               	.LCFI7:
 163               		.cfi_def_cfa_offset 10
 164 0056 CF92      		push r12
 165               	.LCFI8:
 166               		.cfi_def_cfa_offset 11
 167 0058 0E94 0000 		call __xprintf
 168               	.LVL6:
 169 005c 0F90      		pop __tmp_reg__
 170 005e 0F90      		pop __tmp_reg__
 171 0060 0F90      		pop __tmp_reg__
 172 0062 0F90      		pop __tmp_reg__
 173               	.LCFI9:
 174               		.cfi_def_cfa_offset 7
 175               	.L10:
 176 0064 C150      		subi r28,lo8(-(-1))
 177 0066 FFEF      		ldi r31,-1
 178 0068 EF1A      		sub r14,r31
 179 006a FF0A      		sbc r15,r31
  58:../../../../tmk_core/common/host.c ****         for (uint8_t i = 0; i < KEYBOARD_REPORT_SIZE; i++) {
 180               		.loc 1 58 0 is_stmt 1
 181 006c C111      		cpse r28,__zero_reg__
 182 006e 00C0      		rjmp .L11
 183               	.LBE2:
  60:../../../../tmk_core/common/host.c ****         }
  61:../../../../tmk_core/common/host.c ****         dprint("\n");
 184               		.loc 1 61 0
 185 0070 8091 0000 		lds r24,debug_config
 186 0074 80FF      		sbrs r24,0
 187 0076 00C0      		rjmp .L5
 188               		.loc 1 61 0 is_stmt 0 discriminator 1
 189 0078 80E0      		ldi r24,lo8(__c.1916)
 190 007a 90E0      		ldi r25,hi8(__c.1916)
 191               	/* epilogue start */
  62:../../../../tmk_core/common/host.c ****     }
  63:../../../../tmk_core/common/host.c **** }
 192               		.loc 1 63 0 is_stmt 1 discriminator 1
 193 007c CF91      		pop r28
 194 007e FF90      		pop r15
 195 0080 EF90      		pop r14
 196 0082 DF90      		pop r13
 197 0084 CF90      		pop r12
  61:../../../../tmk_core/common/host.c ****         dprint("\n");
 198               		.loc 1 61 0 discriminator 1
 199 0086 0C94 0000 		jmp xputs
 200               	.LVL7:
 201               	.L5:
 202               	/* epilogue start */
 203               		.loc 1 63 0
 204 008a CF91      		pop r28
 205 008c FF90      		pop r15
 206 008e EF90      		pop r14
 207 0090 DF90      		pop r13
 208 0092 CF90      		pop r12
 209 0094 0895      		ret
 210               		.cfi_endproc
 211               	.LFE4:
 213               		.section	.text.host_mouse_send,"ax",@progbits
 214               	.global	host_mouse_send
 216               	host_mouse_send:
 217               	.LFB5:
  64:../../../../tmk_core/common/host.c **** 
  65:../../../../tmk_core/common/host.c **** void host_mouse_send(report_mouse_t *report)
  66:../../../../tmk_core/common/host.c **** {
 218               		.loc 1 66 0
 219               		.cfi_startproc
 220               	.LVL8:
 221               	/* prologue: function */
 222               	/* frame size = 0 */
 223               	/* stack size = 0 */
 224               	.L__stack_usage = 0
  67:../../../../tmk_core/common/host.c ****     if (!driver) return;
 225               		.loc 1 67 0
 226 0000 E091 0000 		lds r30,driver
 227 0004 F091 0000 		lds r31,driver+1
 228 0008 3097      		sbiw r30,0
 229 000a 01F0      		breq .L25
  68:../../../../tmk_core/common/host.c ****     (*driver->send_mouse)(report);
 230               		.loc 1 68 0
 231 000c 0480      		ldd __tmp_reg__,Z+4
 232 000e F581      		ldd r31,Z+5
 233 0010 E02D      		mov r30,__tmp_reg__
 234 0012 0994      		ijmp
 235               	.LVL9:
 236               	.L25:
 237 0014 0895      		ret
 238               		.cfi_endproc
 239               	.LFE5:
 241               		.section	.text.host_system_send,"ax",@progbits
 242               	.global	host_system_send
 244               	host_system_send:
 245               	.LFB6:
  69:../../../../tmk_core/common/host.c **** }
  70:../../../../tmk_core/common/host.c **** 
  71:../../../../tmk_core/common/host.c **** void host_system_send(uint16_t report)
  72:../../../../tmk_core/common/host.c **** {
 246               		.loc 1 72 0
 247               		.cfi_startproc
 248               	.LVL10:
 249               	/* prologue: function */
 250               	/* frame size = 0 */
 251               	/* stack size = 0 */
 252               	.L__stack_usage = 0
  73:../../../../tmk_core/common/host.c ****     if (report == last_system_report) return;
 253               		.loc 1 73 0
 254 0000 2091 0000 		lds r18,last_system_report
 255 0004 3091 0000 		lds r19,last_system_report+1
 256 0008 8217      		cp r24,r18
 257 000a 9307      		cpc r25,r19
 258 000c 01F0      		breq .L27
  74:../../../../tmk_core/common/host.c ****     last_system_report = report;
 259               		.loc 1 74 0
 260 000e 9093 0000 		sts last_system_report+1,r25
 261 0012 8093 0000 		sts last_system_report,r24
  75:../../../../tmk_core/common/host.c **** 
  76:../../../../tmk_core/common/host.c ****     if (!driver) return;
 262               		.loc 1 76 0
 263 0016 E091 0000 		lds r30,driver
 264 001a F091 0000 		lds r31,driver+1
 265 001e 3097      		sbiw r30,0
 266 0020 01F0      		breq .L27
  77:../../../../tmk_core/common/host.c ****     (*driver->send_system)(report);
 267               		.loc 1 77 0
 268 0022 0680      		ldd __tmp_reg__,Z+6
 269 0024 F781      		ldd r31,Z+7
 270 0026 E02D      		mov r30,__tmp_reg__
 271 0028 0994      		ijmp
 272               	.LVL11:
 273               	.L27:
 274 002a 0895      		ret
 275               		.cfi_endproc
 276               	.LFE6:
 278               		.section	.text.host_consumer_send,"ax",@progbits
 279               	.global	host_consumer_send
 281               	host_consumer_send:
 282               	.LFB7:
  78:../../../../tmk_core/common/host.c **** }
  79:../../../../tmk_core/common/host.c **** 
  80:../../../../tmk_core/common/host.c **** void host_consumer_send(uint16_t report)
  81:../../../../tmk_core/common/host.c **** {
 283               		.loc 1 81 0
 284               		.cfi_startproc
 285               	.LVL12:
 286               	/* prologue: function */
 287               	/* frame size = 0 */
 288               	/* stack size = 0 */
 289               	.L__stack_usage = 0
  82:../../../../tmk_core/common/host.c ****     if (report == last_consumer_report) return;
 290               		.loc 1 82 0
 291 0000 2091 0000 		lds r18,last_consumer_report
 292 0004 3091 0000 		lds r19,last_consumer_report+1
 293 0008 8217      		cp r24,r18
 294 000a 9307      		cpc r25,r19
 295 000c 01F0      		breq .L34
  83:../../../../tmk_core/common/host.c ****     last_consumer_report = report;
 296               		.loc 1 83 0
 297 000e 9093 0000 		sts last_consumer_report+1,r25
 298 0012 8093 0000 		sts last_consumer_report,r24
  84:../../../../tmk_core/common/host.c **** 
  85:../../../../tmk_core/common/host.c ****     if (!driver) return;
 299               		.loc 1 85 0
 300 0016 E091 0000 		lds r30,driver
 301 001a F091 0000 		lds r31,driver+1
 302 001e 3097      		sbiw r30,0
 303 0020 01F0      		breq .L34
  86:../../../../tmk_core/common/host.c ****     (*driver->send_consumer)(report);
 304               		.loc 1 86 0
 305 0022 0084      		ldd __tmp_reg__,Z+8
 306 0024 F185      		ldd r31,Z+9
 307 0026 E02D      		mov r30,__tmp_reg__
 308 0028 0994      		ijmp
 309               	.LVL13:
 310               	.L34:
 311 002a 0895      		ret
 312               		.cfi_endproc
 313               	.LFE7:
 315               		.section	.text.host_last_sysytem_report,"ax",@progbits
 316               	.global	host_last_sysytem_report
 318               	host_last_sysytem_report:
 319               	.LFB8:
  87:../../../../tmk_core/common/host.c **** }
  88:../../../../tmk_core/common/host.c **** 
  89:../../../../tmk_core/common/host.c **** uint16_t host_last_sysytem_report(void)
  90:../../../../tmk_core/common/host.c **** {
 320               		.loc 1 90 0
 321               		.cfi_startproc
 322               	/* prologue: function */
 323               	/* frame size = 0 */
 324               	/* stack size = 0 */
 325               	.L__stack_usage = 0
  91:../../../../tmk_core/common/host.c ****     return last_system_report;
  92:../../../../tmk_core/common/host.c **** }
 326               		.loc 1 92 0
 327 0000 8091 0000 		lds r24,last_system_report
 328 0004 9091 0000 		lds r25,last_system_report+1
 329 0008 0895      		ret
 330               		.cfi_endproc
 331               	.LFE8:
 333               		.section	.text.host_last_consumer_report,"ax",@progbits
 334               	.global	host_last_consumer_report
 336               	host_last_consumer_report:
 337               	.LFB9:
  93:../../../../tmk_core/common/host.c **** 
  94:../../../../tmk_core/common/host.c **** uint16_t host_last_consumer_report(void)
  95:../../../../tmk_core/common/host.c **** {
 338               		.loc 1 95 0
 339               		.cfi_startproc
 340               	/* prologue: function */
 341               	/* frame size = 0 */
 342               	/* stack size = 0 */
 343               	.L__stack_usage = 0
  96:../../../../tmk_core/common/host.c ****     return last_consumer_report;
  97:../../../../tmk_core/common/host.c **** }
 344               		.loc 1 97 0
 345 0000 8091 0000 		lds r24,last_consumer_report
 346 0004 9091 0000 		lds r25,last_consumer_report+1
 347 0008 0895      		ret
 348               		.cfi_endproc
 349               	.LFE9:
 351               		.section	.bss.driver,"aw",@nobits
 354               	driver:
 355 0000 0000      		.zero	2
 356               		.section	.progmem.data.__c.1908,"a",@progbits
 359               	__c.1908:
 360 0000 6B65 7962 		.string	"keyboard_report: "
 360      6F61 7264 
 360      5F72 6570 
 360      6F72 743A 
 360      2000 
 361               		.section	.progmem.data.__c.1911,"a",@progbits
 364               	__c.1911:
 365 0000 2530 3258 		.string	"%02X "
 365      2000 
 366               		.section	.progmem.data.__c.1916,"a",@progbits
 369               	__c.1916:
 370 0000 0A00      		.string	"\n"
 371               		.section	.bss.last_system_report,"aw",@nobits
 374               	last_system_report:
 375 0000 0000      		.zero	2
 376               		.section	.bss.last_consumer_report,"aw",@nobits
 379               	last_consumer_report:
 380 0000 0000      		.zero	2
 381               		.text
 382               	.Letext0:
 383               		.file 2 "/usr/lib64/gcc/avr/4.7.1/../../../../avr/include/stdint.h"
 384               		.file 3 "../../../../tmk_core/common/report.h"
 385               		.file 4 "../../../../tmk_core/common/host_driver.h"
 386               		.file 5 "../../../../tmk_core/common/debug.h"
 387               		.file 6 "../../../../tmk_core/common/avr/xprintf.h"