   1               		.file	"mousekey.c"
   2               	__SP_H__ = 0x3e
   3               	__SP_L__ = 0x3d
   4               	__SREG__ = 0x3f
   5               	__RAMPZ__ = 0x3b
   6               	__tmp_reg__ = 0
   7               	__zero_reg__ = 1
   8               		.text
   9               	.Ltext0:
  10               		.cfi_sections	.debug_frame
  11               		.section	.text.move_unit,"ax",@progbits
  13               	move_unit:
  14               	.LFB1:
  15               		.file 1 "../../../../tmk_core/common/mousekey.c"
   1:../../../../tmk_core/common/mousekey.c **** /*
   2:../../../../tmk_core/common/mousekey.c **** Copyright 2011 Jun Wako <wakojun@gmail.com>
   3:../../../../tmk_core/common/mousekey.c **** 
   4:../../../../tmk_core/common/mousekey.c **** This program is free software: you can redistribute it and/or modify
   5:../../../../tmk_core/common/mousekey.c **** it under the terms of the GNU General Public License as published by
   6:../../../../tmk_core/common/mousekey.c **** the Free Software Foundation, either version 2 of the License, or
   7:../../../../tmk_core/common/mousekey.c **** (at your option) any later version.
   8:../../../../tmk_core/common/mousekey.c **** 
   9:../../../../tmk_core/common/mousekey.c **** This program is distributed in the hope that it will be useful,
  10:../../../../tmk_core/common/mousekey.c **** but WITHOUT ANY WARRANTY; without even the implied warranty of
  11:../../../../tmk_core/common/mousekey.c **** MERCHANTABILITY or FITNESS FOR A PARTICULAR PURPOSE.  See the
  12:../../../../tmk_core/common/mousekey.c **** GNU General Public License for more details.
  13:../../../../tmk_core/common/mousekey.c **** 
  14:../../../../tmk_core/common/mousekey.c **** You should have received a copy of the GNU General Public License
  15:../../../../tmk_core/common/mousekey.c **** along with this program.  If not, see <http://www.gnu.org/licenses/>.
  16:../../../../tmk_core/common/mousekey.c **** */
  17:../../../../tmk_core/common/mousekey.c **** 
  18:../../../../tmk_core/common/mousekey.c **** #include <stdint.h>
  19:../../../../tmk_core/common/mousekey.c **** #include "keycode.h"
  20:../../../../tmk_core/common/mousekey.c **** #include "host.h"
  21:../../../../tmk_core/common/mousekey.c **** #include "timer.h"
  22:../../../../tmk_core/common/mousekey.c **** #include "print.h"
  23:../../../../tmk_core/common/mousekey.c **** #include "debug.h"
  24:../../../../tmk_core/common/mousekey.c **** #include "mousekey.h"
  25:../../../../tmk_core/common/mousekey.c **** 
  26:../../../../tmk_core/common/mousekey.c **** 
  27:../../../../tmk_core/common/mousekey.c **** 
  28:../../../../tmk_core/common/mousekey.c **** static report_mouse_t mouse_report = {};
  29:../../../../tmk_core/common/mousekey.c **** static uint8_t mousekey_repeat =  0;
  30:../../../../tmk_core/common/mousekey.c **** static uint8_t mousekey_accel = 0;
  31:../../../../tmk_core/common/mousekey.c **** 
  32:../../../../tmk_core/common/mousekey.c **** static void mousekey_debug(void);
  33:../../../../tmk_core/common/mousekey.c **** 
  34:../../../../tmk_core/common/mousekey.c **** 
  35:../../../../tmk_core/common/mousekey.c **** /*
  36:../../../../tmk_core/common/mousekey.c ****  * Mouse keys  acceleration algorithm
  37:../../../../tmk_core/common/mousekey.c ****  *  http://en.wikipedia.org/wiki/Mouse_keys
  38:../../../../tmk_core/common/mousekey.c ****  *
  39:../../../../tmk_core/common/mousekey.c ****  *  speed = delta * max_speed * (repeat / time_to_max)**((1000+curve)/1000)
  40:../../../../tmk_core/common/mousekey.c ****  */
  41:../../../../tmk_core/common/mousekey.c **** /* milliseconds between the initial key press and first repeated motion event (0-2550) */
  42:../../../../tmk_core/common/mousekey.c **** uint8_t mk_delay = MOUSEKEY_DELAY/10;
  43:../../../../tmk_core/common/mousekey.c **** /* milliseconds between repeated motion events (0-255) */
  44:../../../../tmk_core/common/mousekey.c **** uint8_t mk_interval = MOUSEKEY_INTERVAL;
  45:../../../../tmk_core/common/mousekey.c **** /* steady speed (in action_delta units) applied each event (0-255) */
  46:../../../../tmk_core/common/mousekey.c **** uint8_t mk_max_speed = MOUSEKEY_MAX_SPEED;
  47:../../../../tmk_core/common/mousekey.c **** /* number of events (count) accelerating to steady speed (0-255) */
  48:../../../../tmk_core/common/mousekey.c **** uint8_t mk_time_to_max = MOUSEKEY_TIME_TO_MAX;
  49:../../../../tmk_core/common/mousekey.c **** /* ramp used to reach maximum pointer speed (NOT SUPPORTED) */
  50:../../../../tmk_core/common/mousekey.c **** //int8_t mk_curve = 0;
  51:../../../../tmk_core/common/mousekey.c **** /* wheel params */
  52:../../../../tmk_core/common/mousekey.c **** uint8_t mk_wheel_max_speed = MOUSEKEY_WHEEL_MAX_SPEED;
  53:../../../../tmk_core/common/mousekey.c **** uint8_t mk_wheel_time_to_max = MOUSEKEY_WHEEL_TIME_TO_MAX;
  54:../../../../tmk_core/common/mousekey.c **** 
  55:../../../../tmk_core/common/mousekey.c **** 
  56:../../../../tmk_core/common/mousekey.c **** static uint16_t last_timer = 0;
  57:../../../../tmk_core/common/mousekey.c **** 
  58:../../../../tmk_core/common/mousekey.c **** 
  59:../../../../tmk_core/common/mousekey.c **** static uint8_t move_unit(void)
  60:../../../../tmk_core/common/mousekey.c **** {
  16               		.loc 1 60 0
  17               		.cfi_startproc
  18               	/* prologue: function */
  19               	/* frame size = 0 */
  20               	/* stack size = 0 */
  21               	.L__stack_usage = 0
  61:../../../../tmk_core/common/mousekey.c ****     uint16_t unit;
  62:../../../../tmk_core/common/mousekey.c ****     if (mousekey_accel & (1<<0)) {
  22               		.loc 1 62 0
  23 0000 8091 0000 		lds r24,mousekey_accel
  24 0004 80FF      		sbrs r24,0
  25 0006 00C0      		rjmp .L2
  63:../../../../tmk_core/common/mousekey.c ****         unit = (MOUSEKEY_MOVE_DELTA * mk_max_speed)/4;
  26               		.loc 1 63 0
  27 0008 6091 0000 		lds r22,mk_max_speed
  28 000c 85E0      		ldi r24,lo8(5)
  29 000e 689F      		mul r22,r24
  30 0010 B001      		movw r22,r0
  31 0012 1124      		clr __zero_reg__
  32 0014 7595      		asr r23
  33 0016 6795      		ror r22
  34 0018 7595      		asr r23
  35 001a 6795      		ror r22
  36               	.LVL0:
  37 001c 00C0      		rjmp .L3
  38               	.LVL1:
  39               	.L2:
  64:../../../../tmk_core/common/mousekey.c ****     } else if (mousekey_accel & (1<<1)) {
  40               		.loc 1 64 0
  41 001e 81FF      		sbrs r24,1
  42 0020 00C0      		rjmp .L4
  65:../../../../tmk_core/common/mousekey.c ****         unit = (MOUSEKEY_MOVE_DELTA * mk_max_speed)/2;
  43               		.loc 1 65 0
  44 0022 6091 0000 		lds r22,mk_max_speed
  45 0026 85E0      		ldi r24,lo8(5)
  46 0028 689F      		mul r22,r24
  47 002a B001      		movw r22,r0
  48 002c 1124      		clr __zero_reg__
  49 002e 7595      		asr r23
  50 0030 6795      		ror r22
  51               	.LVL2:
  52 0032 00C0      		rjmp .L3
  53               	.LVL3:
  54               	.L4:
  66:../../../../tmk_core/common/mousekey.c ****     } else if (mousekey_accel & (1<<2)) {
  55               		.loc 1 66 0
  56 0034 82FF      		sbrs r24,2
  57 0036 00C0      		rjmp .L5
  58               	.L7:
  67:../../../../tmk_core/common/mousekey.c ****         unit = (MOUSEKEY_MOVE_DELTA * mk_max_speed);
  59               		.loc 1 67 0
  60 0038 6091 0000 		lds r22,mk_max_speed
  61 003c 85E0      		ldi r24,lo8(5)
  62 003e 689F      		mul r22,r24
  63 0040 B001      		movw r22,r0
  64 0042 1124      		clr __zero_reg__
  65               	.LVL4:
  66 0044 00C0      		rjmp .L3
  67               	.LVL5:
  68               	.L5:
  68:../../../../tmk_core/common/mousekey.c ****     } else if (mousekey_repeat == 0) {
  69               		.loc 1 68 0
  70 0046 4091 0000 		lds r20,mousekey_repeat
  71 004a 4423      		tst r20
  72 004c 01F0      		breq .L9
  69:../../../../tmk_core/common/mousekey.c ****         unit = MOUSEKEY_MOVE_DELTA;
  70:../../../../tmk_core/common/mousekey.c ****     } else if (mousekey_repeat >= mk_time_to_max) {
  73               		.loc 1 70 0
  74 004e 6091 0000 		lds r22,mk_time_to_max
  75 0052 4617      		cp r20,r22
  76 0054 00F4      		brsh .L7
  71:../../../../tmk_core/common/mousekey.c ****         unit = MOUSEKEY_MOVE_DELTA * mk_max_speed;
  72:../../../../tmk_core/common/mousekey.c ****     } else {
  73:../../../../tmk_core/common/mousekey.c ****         unit = (MOUSEKEY_MOVE_DELTA * mk_max_speed * mousekey_repeat) / mk_time_to_max;
  77               		.loc 1 73 0
  78 0056 2091 0000 		lds r18,mk_max_speed
  79 005a 85E0      		ldi r24,lo8(5)
  80 005c 289F      		mul r18,r24
  81 005e 9001      		movw r18,r0
  82 0060 1124      		clr __zero_reg__
  83 0062 429F      		mul r20,r18
  84 0064 C001      		movw r24,r0
  85 0066 439F      		mul r20,r19
  86 0068 900D      		add r25,r0
  87 006a 1124      		clr __zero_reg__
  88 006c 70E0      		ldi r23,0
  89 006e 0E94 0000 		call __divmodhi4
  90               	.LVL6:
  91               	.L3:
  74:../../../../tmk_core/common/mousekey.c ****     }
  75:../../../../tmk_core/common/mousekey.c ****     return (unit > MOUSEKEY_MOVE_MAX ? MOUSEKEY_MOVE_MAX : (unit == 0 ? 1 : unit));
  92               		.loc 1 75 0
  93 0072 6038      		cpi r22,-128
  94 0074 7105      		cpc r23,__zero_reg__
  95 0076 00F4      		brsh .L10
  96               		.loc 1 75 0 is_stmt 0 discriminator 1
  97 0078 6115      		cp r22,__zero_reg__
  98 007a 7105      		cpc r23,__zero_reg__
  99 007c 01F0      		breq .L11
 100 007e 00C0      		rjmp .L6
 101               	.LVL7:
 102               	.L9:
  69:../../../../tmk_core/common/mousekey.c ****         unit = MOUSEKEY_MOVE_DELTA;
 103               		.loc 1 69 0 is_stmt 1
 104 0080 65E0      		ldi r22,lo8(5)
 105 0082 70E0      		ldi r23,0
 106               	.L6:
 107               		.loc 1 75 0 discriminator 3
 108 0084 862F      		mov r24,r22
 109 0086 0895      		ret
 110               	.LVL8:
 111               	.L10:
 112               		.loc 1 75 0 is_stmt 0
 113 0088 8FE7      		ldi r24,lo8(127)
 114 008a 0895      		ret
 115               	.L11:
 116 008c 81E0      		ldi r24,lo8(1)
  76:../../../../tmk_core/common/mousekey.c **** }
 117               		.loc 1 76 0 is_stmt 1
 118 008e 0895      		ret
 119               		.cfi_endproc
 120               	.LFE1:
 122               		.section	.text.wheel_unit,"ax",@progbits
 124               	wheel_unit:
 125               	.LFB2:
  77:../../../../tmk_core/common/mousekey.c **** 
  78:../../../../tmk_core/common/mousekey.c **** static uint8_t wheel_unit(void)
  79:../../../../tmk_core/common/mousekey.c **** {
 126               		.loc 1 79 0
 127               		.cfi_startproc
 128               	/* prologue: function */
 129               	/* frame size = 0 */
 130               	/* stack size = 0 */
 131               	.L__stack_usage = 0
  80:../../../../tmk_core/common/mousekey.c ****     uint16_t unit;
  81:../../../../tmk_core/common/mousekey.c ****     if (mousekey_accel & (1<<0)) {
 132               		.loc 1 81 0
 133 0000 8091 0000 		lds r24,mousekey_accel
 134 0004 80FF      		sbrs r24,0
 135 0006 00C0      		rjmp .L13
  82:../../../../tmk_core/common/mousekey.c ****         unit = (MOUSEKEY_WHEEL_DELTA * mk_wheel_max_speed)/4;
 136               		.loc 1 82 0
 137 0008 6091 0000 		lds r22,mk_wheel_max_speed
 138 000c 70E0      		ldi r23,0
 139 000e 7595      		asr r23
 140 0010 6795      		ror r22
 141 0012 7595      		asr r23
 142 0014 6795      		ror r22
 143               	.LVL9:
 144 0016 00C0      		rjmp .L20
 145               	.LVL10:
 146               	.L13:
  83:../../../../tmk_core/common/mousekey.c ****     } else if (mousekey_accel & (1<<1)) {
 147               		.loc 1 83 0
 148 0018 81FF      		sbrs r24,1
 149 001a 00C0      		rjmp .L15
  84:../../../../tmk_core/common/mousekey.c ****         unit = (MOUSEKEY_WHEEL_DELTA * mk_wheel_max_speed)/2;
 150               		.loc 1 84 0
 151 001c 6091 0000 		lds r22,mk_wheel_max_speed
 152 0020 70E0      		ldi r23,0
 153 0022 7595      		asr r23
 154 0024 6795      		ror r22
 155               	.LVL11:
 156 0026 00C0      		rjmp .L20
 157               	.LVL12:
 158               	.L15:
  85:../../../../tmk_core/common/mousekey.c ****     } else if (mousekey_accel & (1<<2)) {
 159               		.loc 1 85 0
 160 0028 82FF      		sbrs r24,2
 161 002a 00C0      		rjmp .L16
 162               	.L18:
  86:../../../../tmk_core/common/mousekey.c ****         unit = (MOUSEKEY_WHEEL_DELTA * mk_wheel_max_speed);
 163               		.loc 1 86 0
 164 002c 6091 0000 		lds r22,mk_wheel_max_speed
 165 0030 70E0      		ldi r23,0
 166               	.LVL13:
 167 0032 00C0      		rjmp .L17
 168               	.LVL14:
 169               	.L16:
  87:../../../../tmk_core/common/mousekey.c ****     } else if (mousekey_repeat == 0) {
 170               		.loc 1 87 0
 171 0034 8091 0000 		lds r24,mousekey_repeat
 172 0038 8823      		tst r24
 173 003a 01F0      		breq .L21
  88:../../../../tmk_core/common/mousekey.c ****         unit = MOUSEKEY_WHEEL_DELTA;
  89:../../../../tmk_core/common/mousekey.c ****     } else if (mousekey_repeat >= mk_wheel_time_to_max) {
 174               		.loc 1 89 0
 175 003c 6091 0000 		lds r22,mk_wheel_time_to_max
 176 0040 8617      		cp r24,r22
 177 0042 00F4      		brsh .L18
  90:../../../../tmk_core/common/mousekey.c ****         unit = MOUSEKEY_WHEEL_DELTA * mk_wheel_max_speed;
  91:../../../../tmk_core/common/mousekey.c ****     } else {
  92:../../../../tmk_core/common/mousekey.c ****         unit = (MOUSEKEY_WHEEL_DELTA * mk_wheel_max_speed * mousekey_repeat) / mk_wheel_time_to_max
 178               		.loc 1 92 0
 179 0044 9091 0000 		lds r25,mk_wheel_max_speed
 180 0048 989F      		mul r25,r24
 181 004a C001      		movw r24,r0
 182 004c 1124      		clr __zero_reg__
 183 004e 70E0      		ldi r23,0
 184 0050 0E94 0000 		call __divmodhi4
 185               	.LVL15:
 186               	.L17:
  93:../../../../tmk_core/common/mousekey.c ****     }
  94:../../../../tmk_core/common/mousekey.c ****     return (unit > MOUSEKEY_WHEEL_MAX ? MOUSEKEY_WHEEL_MAX : (unit == 0 ? 1 : unit));
 187               		.loc 1 94 0
 188 0054 6038      		cpi r22,-128
 189 0056 7105      		cpc r23,__zero_reg__
 190 0058 00F4      		brsh .L22
 191               	.LVL16:
 192               	.L20:
 193               		.loc 1 94 0 is_stmt 0 discriminator 1
 194 005a 6115      		cp r22,__zero_reg__
 195 005c 7105      		cpc r23,__zero_reg__
 196 005e 01F0      		breq .L23
 197               		.loc 1 94 0 discriminator 3
 198 0060 862F      		mov r24,r22
 199 0062 0895      		ret
 200               	.LVL17:
 201               	.L22:
 202               		.loc 1 94 0
 203 0064 8FE7      		ldi r24,lo8(127)
 204 0066 0895      		ret
 205               	.LVL18:
 206               	.L23:
 207 0068 81E0      		ldi r24,lo8(1)
 208 006a 0895      		ret
 209               	.L21:
  88:../../../../tmk_core/common/mousekey.c ****         unit = MOUSEKEY_WHEEL_DELTA;
 210               		.loc 1 88 0 is_stmt 1
 211 006c 61E0      		ldi r22,lo8(1)
 212 006e 70E0      		ldi r23,0
 213               	.LVL19:
 214 0070 00C0      		rjmp .L20
 215               		.cfi_endproc
 216               	.LFE2:
 218               		.section	.text.mousekey_on,"ax",@progbits
 219               	.global	mousekey_on
 221               	mousekey_on:
 222               	.LFB4:
  95:../../../../tmk_core/common/mousekey.c **** }
  96:../../../../tmk_core/common/mousekey.c **** 
  97:../../../../tmk_core/common/mousekey.c **** void mousekey_task(void)
  98:../../../../tmk_core/common/mousekey.c **** {
  99:../../../../tmk_core/common/mousekey.c ****     if (timer_elapsed(last_timer) < (mousekey_repeat ? mk_interval : mk_delay*10))
 100:../../../../tmk_core/common/mousekey.c ****         return;
 101:../../../../tmk_core/common/mousekey.c **** 
 102:../../../../tmk_core/common/mousekey.c ****     if (mouse_report.x == 0 && mouse_report.y == 0 && mouse_report.v == 0 && mouse_report.h == 0)
 103:../../../../tmk_core/common/mousekey.c ****         return;
 104:../../../../tmk_core/common/mousekey.c **** 
 105:../../../../tmk_core/common/mousekey.c ****     if (mousekey_repeat != UINT8_MAX)
 106:../../../../tmk_core/common/mousekey.c ****         mousekey_repeat++;
 107:../../../../tmk_core/common/mousekey.c **** 
 108:../../../../tmk_core/common/mousekey.c **** 
 109:../../../../tmk_core/common/mousekey.c ****     if (mouse_report.x > 0) mouse_report.x = move_unit();
 110:../../../../tmk_core/common/mousekey.c ****     if (mouse_report.x < 0) mouse_report.x = move_unit() * -1;
 111:../../../../tmk_core/common/mousekey.c ****     if (mouse_report.y > 0) mouse_report.y = move_unit();
 112:../../../../tmk_core/common/mousekey.c ****     if (mouse_report.y < 0) mouse_report.y = move_unit() * -1;
 113:../../../../tmk_core/common/mousekey.c **** 
 114:../../../../tmk_core/common/mousekey.c ****     /* diagonal move [1/sqrt(2) = 0.7] */
 115:../../../../tmk_core/common/mousekey.c ****     if (mouse_report.x && mouse_report.y) {
 116:../../../../tmk_core/common/mousekey.c ****         mouse_report.x *= 0.7;
 117:../../../../tmk_core/common/mousekey.c ****         mouse_report.y *= 0.7;
 118:../../../../tmk_core/common/mousekey.c ****     }
 119:../../../../tmk_core/common/mousekey.c **** 
 120:../../../../tmk_core/common/mousekey.c ****     if (mouse_report.v > 0) mouse_report.v = wheel_unit();
 121:../../../../tmk_core/common/mousekey.c ****     if (mouse_report.v < 0) mouse_report.v = wheel_unit() * -1;
 122:../../../../tmk_core/common/mousekey.c ****     if (mouse_report.h > 0) mouse_report.h = wheel_unit();
 123:../../../../tmk_core/common/mousekey.c ****     if (mouse_report.h < 0) mouse_report.h = wheel_unit() * -1;
 124:../../../../tmk_core/common/mousekey.c **** 
 125:../../../../tmk_core/common/mousekey.c ****     mousekey_send();
 126:../../../../tmk_core/common/mousekey.c **** }
 127:../../../../tmk_core/common/mousekey.c **** 
 128:../../../../tmk_core/common/mousekey.c **** void mousekey_on(uint8_t code)
 129:../../../../tmk_core/common/mousekey.c **** {
 223               		.loc 1 129 0
 224               		.cfi_startproc
 225               	.LVL20:
 226               	/* prologue: function */
 227               	/* frame size = 0 */
 228               	/* stack size = 0 */
 229               	.L__stack_usage = 0
 130:../../../../tmk_core/common/mousekey.c ****     if      (code == KC_MS_UP)       mouse_report.y = move_unit() * -1;
 230               		.loc 1 130 0
 231 0000 803F      		cpi r24,lo8(-16)
 232 0002 01F4      		brne .L26
 233               		.loc 1 130 0 is_stmt 0 discriminator 1
 234 0004 0E94 0000 		call move_unit
 235               	.LVL21:
 236 0008 8195      		neg r24
 237 000a 00C0      		rjmp .L42
 238               	.LVL22:
 239               	.L26:
 131:../../../../tmk_core/common/mousekey.c ****     else if (code == KC_MS_DOWN)     mouse_report.y = move_unit();
 240               		.loc 1 131 0 is_stmt 1
 241 000c 813F      		cpi r24,lo8(-15)
 242 000e 01F4      		brne .L28
 243               		.loc 1 131 0 is_stmt 0 discriminator 1
 244 0010 0E94 0000 		call move_unit
 245               	.LVL23:
 246               	.L42:
 247 0014 8093 0000 		sts mouse_report+2,r24
 248 0018 0895      		ret
 249               	.LVL24:
 250               	.L28:
 132:../../../../tmk_core/common/mousekey.c ****     else if (code == KC_MS_LEFT)     mouse_report.x = move_unit() * -1;
 251               		.loc 1 132 0 is_stmt 1
 252 001a 823F      		cpi r24,lo8(-14)
 253 001c 01F4      		brne .L29
 254               		.loc 1 132 0 is_stmt 0 discriminator 1
 255 001e 0E94 0000 		call move_unit
 256               	.LVL25:
 257 0022 8195      		neg r24
 258 0024 00C0      		rjmp .L44
 259               	.LVL26:
 260               	.L29:
 133:../../../../tmk_core/common/mousekey.c ****     else if (code == KC_MS_RIGHT)    mouse_report.x = move_unit();
 261               		.loc 1 133 0 is_stmt 1
 262 0026 833F      		cpi r24,lo8(-13)
 263 0028 01F4      		brne .L30
 264               		.loc 1 133 0 is_stmt 0 discriminator 1
 265 002a 0E94 0000 		call move_unit
 266               	.LVL27:
 267               	.L44:
 268 002e 8093 0000 		sts mouse_report+1,r24
 269 0032 0895      		ret
 270               	.LVL28:
 271               	.L30:
 134:../../../../tmk_core/common/mousekey.c ****     else if (code == KC_MS_WH_UP)    mouse_report.v = wheel_unit();
 272               		.loc 1 134 0 is_stmt 1
 273 0034 893F      		cpi r24,lo8(-7)
 274 0036 01F4      		brne .L31
 275               		.loc 1 134 0 is_stmt 0 discriminator 1
 276 0038 0E94 0000 		call wheel_unit
 277               	.LVL29:
 278 003c 00C0      		rjmp .L46
 279               	.LVL30:
 280               	.L31:
 135:../../../../tmk_core/common/mousekey.c ****     else if (code == KC_MS_WH_DOWN)  mouse_report.v = wheel_unit() * -1;
 281               		.loc 1 135 0 is_stmt 1
 282 003e 8A3F      		cpi r24,lo8(-6)
 283 0040 01F4      		brne .L32
 284               		.loc 1 135 0 is_stmt 0 discriminator 1
 285 0042 0E94 0000 		call wheel_unit
 286               	.LVL31:
 287 0046 8195      		neg r24
 288               	.L46:
 289 0048 8093 0000 		sts mouse_report+3,r24
 290 004c 0895      		ret
 291               	.LVL32:
 292               	.L32:
 136:../../../../tmk_core/common/mousekey.c ****     else if (code == KC_MS_WH_LEFT)  mouse_report.h = wheel_unit() * -1;
 293               		.loc 1 136 0 is_stmt 1
 294 004e 8B3F      		cpi r24,lo8(-5)
 295 0050 01F4      		brne .L33
 296               		.loc 1 136 0 is_stmt 0 discriminator 1
 297 0052 0E94 0000 		call wheel_unit
 298               	.LVL33:
 299 0056 8195      		neg r24
 300 0058 00C0      		rjmp .L47
 301               	.LVL34:
 302               	.L33:
 137:../../../../tmk_core/common/mousekey.c ****     else if (code == KC_MS_WH_RIGHT) mouse_report.h = wheel_unit();
 303               		.loc 1 137 0 is_stmt 1
 304 005a 8C3F      		cpi r24,lo8(-4)
 305 005c 01F4      		brne .L34
 306               		.loc 1 137 0 is_stmt 0 discriminator 1
 307 005e 0E94 0000 		call wheel_unit
 308               	.LVL35:
 309               	.L47:
 310 0062 8093 0000 		sts mouse_report+4,r24
 311 0066 0895      		ret
 312               	.LVL36:
 313               	.L34:
 138:../../../../tmk_core/common/mousekey.c ****     else if (code == KC_MS_BTN1)     mouse_report.buttons |= MOUSE_BTN1;
 314               		.loc 1 138 0 is_stmt 1
 315 0068 843F      		cpi r24,lo8(-12)
 316 006a 01F4      		brne .L35
 317               		.loc 1 138 0 is_stmt 0 discriminator 1
 318 006c 8091 0000 		lds r24,mouse_report
 319               	.LVL37:
 320 0070 8160      		ori r24,lo8(1)
 321 0072 00C0      		rjmp .L45
 322               	.LVL38:
 323               	.L35:
 139:../../../../tmk_core/common/mousekey.c ****     else if (code == KC_MS_BTN2)     mouse_report.buttons |= MOUSE_BTN2;
 324               		.loc 1 139 0 is_stmt 1
 325 0074 853F      		cpi r24,lo8(-11)
 326 0076 01F4      		brne .L36
 327               		.loc 1 139 0 is_stmt 0 discriminator 1
 328 0078 8091 0000 		lds r24,mouse_report
 329               	.LVL39:
 330 007c 8260      		ori r24,lo8(2)
 331 007e 00C0      		rjmp .L45
 332               	.LVL40:
 333               	.L36:
 140:../../../../tmk_core/common/mousekey.c ****     else if (code == KC_MS_BTN3)     mouse_report.buttons |= MOUSE_BTN3;
 334               		.loc 1 140 0 is_stmt 1
 335 0080 863F      		cpi r24,lo8(-10)
 336 0082 01F4      		brne .L37
 337               		.loc 1 140 0 is_stmt 0 discriminator 1
 338 0084 8091 0000 		lds r24,mouse_report
 339               	.LVL41:
 340 0088 8460      		ori r24,lo8(4)
 341 008a 00C0      		rjmp .L45
 342               	.LVL42:
 343               	.L37:
 141:../../../../tmk_core/common/mousekey.c ****     else if (code == KC_MS_BTN4)     mouse_report.buttons |= MOUSE_BTN4;
 344               		.loc 1 141 0 is_stmt 1
 345 008c 873F      		cpi r24,lo8(-9)
 346 008e 01F4      		brne .L38
 347               		.loc 1 141 0 is_stmt 0 discriminator 1
 348 0090 8091 0000 		lds r24,mouse_report
 349               	.LVL43:
 350 0094 8860      		ori r24,lo8(8)
 351 0096 00C0      		rjmp .L45
 352               	.LVL44:
 353               	.L38:
 142:../../../../tmk_core/common/mousekey.c ****     else if (code == KC_MS_BTN5)     mouse_report.buttons |= MOUSE_BTN5;
 354               		.loc 1 142 0 is_stmt 1
 355 0098 883F      		cpi r24,lo8(-8)
 356 009a 01F4      		brne .L39
 357               		.loc 1 142 0 is_stmt 0 discriminator 1
 358 009c 8091 0000 		lds r24,mouse_report
 359               	.LVL45:
 360 00a0 8061      		ori r24,lo8(16)
 361               	.L45:
 362 00a2 8093 0000 		sts mouse_report,r24
 363 00a6 0895      		ret
 364               	.LVL46:
 365               	.L39:
 143:../../../../tmk_core/common/mousekey.c ****     else if (code == KC_MS_ACCEL0)   mousekey_accel |= (1<<0);
 366               		.loc 1 143 0 is_stmt 1
 367 00a8 8D3F      		cpi r24,lo8(-3)
 368 00aa 01F4      		brne .L40
 369               		.loc 1 143 0 is_stmt 0 discriminator 1
 370 00ac 8091 0000 		lds r24,mousekey_accel
 371               	.LVL47:
 372 00b0 8160      		ori r24,lo8(1)
 373 00b2 00C0      		rjmp .L43
 374               	.LVL48:
 375               	.L40:
 144:../../../../tmk_core/common/mousekey.c ****     else if (code == KC_MS_ACCEL1)   mousekey_accel |= (1<<1);
 376               		.loc 1 144 0 is_stmt 1
 377 00b4 8E3F      		cpi r24,lo8(-2)
 378 00b6 01F4      		brne .L41
 379               		.loc 1 144 0 is_stmt 0 discriminator 1
 380 00b8 8091 0000 		lds r24,mousekey_accel
 381               	.LVL49:
 382 00bc 8260      		ori r24,lo8(2)
 383 00be 00C0      		rjmp .L43
 384               	.LVL50:
 385               	.L41:
 145:../../../../tmk_core/common/mousekey.c ****     else if (code == KC_MS_ACCEL2)   mousekey_accel |= (1<<2);
 386               		.loc 1 145 0 is_stmt 1
 387 00c0 8F3F      		cpi r24,lo8(-1)
 388 00c2 01F4      		brne .L25
 389               		.loc 1 145 0 is_stmt 0 discriminator 1
 390 00c4 8091 0000 		lds r24,mousekey_accel
 391               	.LVL51:
 392 00c8 8460      		ori r24,lo8(4)
 393               	.L43:
 394 00ca 8093 0000 		sts mousekey_accel,r24
 395               	.L25:
 396 00ce 0895      		ret
 397               		.cfi_endproc
 398               	.LFE4:
 400               		.section	.text.mousekey_off,"ax",@progbits
 401               	.global	mousekey_off
 403               	mousekey_off:
 404               	.LFB5:
 146:../../../../tmk_core/common/mousekey.c **** }
 147:../../../../tmk_core/common/mousekey.c **** 
 148:../../../../tmk_core/common/mousekey.c **** void mousekey_off(uint8_t code)
 149:../../../../tmk_core/common/mousekey.c **** {
 405               		.loc 1 149 0 is_stmt 1
 406               		.cfi_startproc
 407               	.LVL52:
 408               	/* prologue: function */
 409               	/* frame size = 0 */
 410               	/* stack size = 0 */
 411               	.L__stack_usage = 0
 150:../../../../tmk_core/common/mousekey.c ****     if      (code == KC_MS_UP       && mouse_report.y < 0) mouse_report.y = 0;
 412               		.loc 1 150 0
 413 0000 803F      		cpi r24,lo8(-16)
 414 0002 01F4      		brne .L49
 415               		.loc 1 150 0 is_stmt 0 discriminator 1
 416 0004 8091 0000 		lds r24,mouse_report+2
 417               	.LVL53:
 418 0008 87FF      		sbrs r24,7
 419 000a 00C0      		rjmp .L51
 420 000c 00C0      		rjmp .L66
 421               	.LVL54:
 422               	.L49:
 151:../../../../tmk_core/common/mousekey.c ****     else if (code == KC_MS_DOWN     && mouse_report.y > 0) mouse_report.y = 0;
 423               		.loc 1 151 0 is_stmt 1
 424 000e 813F      		cpi r24,lo8(-15)
 425 0010 01F4      		brne .L52
 426               		.loc 1 151 0 is_stmt 0 discriminator 1
 427 0012 8091 0000 		lds r24,mouse_report+2
 428               	.LVL55:
 429 0016 1816      		cp __zero_reg__,r24
 430 0018 04F0      		brlt .+2
 431 001a 00C0      		rjmp .L51
 432               	.L66:
 433 001c 1092 0000 		sts mouse_report+2,__zero_reg__
 434 0020 00C0      		rjmp .L51
 435               	.LVL56:
 436               	.L52:
 437 0022 9091 0000 		lds r25,mouse_report+1
 152:../../../../tmk_core/common/mousekey.c ****     else if (code == KC_MS_LEFT     && mouse_report.x < 0) mouse_report.x = 0;
 438               		.loc 1 152 0 is_stmt 1
 439 0026 823F      		cpi r24,lo8(-14)
 440 0028 01F4      		brne .L53
 441               		.loc 1 152 0 is_stmt 0 discriminator 1
 442 002a 97FF      		sbrs r25,7
 443 002c 00C0      		rjmp .L51
 444 002e 00C0      		rjmp .L68
 445               	.L53:
 153:../../../../tmk_core/common/mousekey.c ****     else if (code == KC_MS_RIGHT    && mouse_report.x > 0) mouse_report.x = 0;
 446               		.loc 1 153 0 is_stmt 1
 447 0030 833F      		cpi r24,lo8(-13)
 448 0032 01F4      		brne .L55
 449               		.loc 1 153 0 is_stmt 0 discriminator 1
 450 0034 1916      		cp __zero_reg__,r25
 451 0036 04F0      		brlt .+2
 452 0038 00C0      		rjmp .L51
 453               	.L68:
 454 003a 1092 0000 		sts mouse_report+1,__zero_reg__
 455 003e 00C0      		rjmp .L51
 456               	.L55:
 154:../../../../tmk_core/common/mousekey.c ****     else if (code == KC_MS_WH_UP    && mouse_report.v > 0) mouse_report.v = 0;
 457               		.loc 1 154 0 is_stmt 1
 458 0040 893F      		cpi r24,lo8(-7)
 459 0042 01F4      		brne .L50
 460               		.loc 1 154 0 is_stmt 0 discriminator 1
 461 0044 8091 0000 		lds r24,mouse_report+3
 462               	.LVL57:
 463 0048 1816      		cp __zero_reg__,r24
 464 004a 04F0      		brlt .+2
 465 004c 00C0      		rjmp .L51
 466 004e 00C0      		rjmp .L69
 467               	.LVL58:
 468               	.L50:
 155:../../../../tmk_core/common/mousekey.c ****     else if (code == KC_MS_WH_DOWN  && mouse_report.v < 0) mouse_report.v = 0;
 469               		.loc 1 155 0 is_stmt 1
 470 0050 8A3F      		cpi r24,lo8(-6)
 471 0052 01F4      		brne .L58
 472               		.loc 1 155 0 is_stmt 0 discriminator 1
 473 0054 8091 0000 		lds r24,mouse_report+3
 474               	.LVL59:
 475 0058 87FF      		sbrs r24,7
 476 005a 00C0      		rjmp .L51
 477               	.L69:
 478 005c 1092 0000 		sts mouse_report+3,__zero_reg__
 479 0060 00C0      		rjmp .L51
 480               	.LVL60:
 481               	.L58:
 156:../../../../tmk_core/common/mousekey.c ****     else if (code == KC_MS_WH_LEFT  && mouse_report.h < 0) mouse_report.h = 0;
 482               		.loc 1 156 0 is_stmt 1
 483 0062 8B3F      		cpi r24,lo8(-5)
 484 0064 01F4      		brne .L54
 485               		.loc 1 156 0 is_stmt 0 discriminator 1
 486 0066 8091 0000 		lds r24,mouse_report+4
 487               	.LVL61:
 488 006a 87FF      		sbrs r24,7
 489 006c 00C0      		rjmp .L51
 490 006e 00C0      		rjmp .L70
 491               	.LVL62:
 492               	.L54:
 157:../../../../tmk_core/common/mousekey.c ****     else if (code == KC_MS_WH_RIGHT && mouse_report.h > 0) mouse_report.h = 0;
 493               		.loc 1 157 0 is_stmt 1
 494 0070 8C3F      		cpi r24,lo8(-4)
 495 0072 01F4      		brne .L56
 496               		.loc 1 157 0 is_stmt 0 discriminator 1
 497 0074 8091 0000 		lds r24,mouse_report+4
 498               	.LVL63:
 499 0078 1816      		cp __zero_reg__,r24
 500 007a 04F4      		brge .L51
 501               	.L70:
 502 007c 1092 0000 		sts mouse_report+4,__zero_reg__
 503 0080 00C0      		rjmp .L51
 504               	.LVL64:
 505               	.L56:
 158:../../../../tmk_core/common/mousekey.c ****     else if (code == KC_MS_BTN1) mouse_report.buttons &= ~MOUSE_BTN1;
 506               		.loc 1 158 0 is_stmt 1
 507 0082 843F      		cpi r24,lo8(-12)
 508 0084 01F4      		brne .L57
 509               		.loc 1 158 0 is_stmt 0 discriminator 1
 510 0086 8091 0000 		lds r24,mouse_report
 511               	.LVL65:
 512 008a 8E7F      		andi r24,lo8(-2)
 513 008c 00C0      		rjmp .L71
 514               	.LVL66:
 515               	.L57:
 159:../../../../tmk_core/common/mousekey.c ****     else if (code == KC_MS_BTN2) mouse_report.buttons &= ~MOUSE_BTN2;
 516               		.loc 1 159 0 is_stmt 1
 517 008e 853F      		cpi r24,lo8(-11)
 518 0090 01F4      		brne .L59
 519               		.loc 1 159 0 is_stmt 0 discriminator 1
 520 0092 8091 0000 		lds r24,mouse_report
 521               	.LVL67:
 522 0096 8D7F      		andi r24,lo8(-3)
 523               	.L71:
 524 0098 8093 0000 		sts mouse_report,r24
 525 009c 00C0      		rjmp .L51
 526               	.LVL68:
 527               	.L59:
 160:../../../../tmk_core/common/mousekey.c ****     else if (code == KC_MS_BTN3) mouse_report.buttons &= ~MOUSE_BTN3;
 528               		.loc 1 160 0 is_stmt 1
 529 009e 863F      		cpi r24,lo8(-10)
 530 00a0 01F4      		brne .L60
 531               		.loc 1 160 0 is_stmt 0 discriminator 1
 532 00a2 8091 0000 		lds r24,mouse_report
 533               	.LVL69:
 534 00a6 8B7F      		andi r24,lo8(-5)
 535 00a8 00C0      		rjmp .L71
 536               	.LVL70:
 537               	.L60:
 161:../../../../tmk_core/common/mousekey.c ****     else if (code == KC_MS_BTN4) mouse_report.buttons &= ~MOUSE_BTN4;
 538               		.loc 1 161 0 is_stmt 1
 539 00aa 873F      		cpi r24,lo8(-9)
 540 00ac 01F4      		brne .L61
 541               		.loc 1 161 0 is_stmt 0 discriminator 1
 542 00ae 8091 0000 		lds r24,mouse_report
 543               	.LVL71:
 544 00b2 877F      		andi r24,lo8(-9)
 545 00b4 00C0      		rjmp .L71
 546               	.LVL72:
 547               	.L61:
 162:../../../../tmk_core/common/mousekey.c ****     else if (code == KC_MS_BTN5) mouse_report.buttons &= ~MOUSE_BTN5;
 548               		.loc 1 162 0 is_stmt 1
 549 00b6 883F      		cpi r24,lo8(-8)
 550 00b8 01F4      		brne .L62
 551               		.loc 1 162 0 is_stmt 0 discriminator 1
 552 00ba 8091 0000 		lds r24,mouse_report
 553               	.LVL73:
 554 00be 8F7E      		andi r24,lo8(-17)
 555 00c0 00C0      		rjmp .L71
 556               	.LVL74:
 557               	.L62:
 163:../../../../tmk_core/common/mousekey.c ****     else if (code == KC_MS_ACCEL0) mousekey_accel &= ~(1<<0);
 558               		.loc 1 163 0 is_stmt 1
 559 00c2 8D3F      		cpi r24,lo8(-3)
 560 00c4 01F4      		brne .L63
 561               		.loc 1 163 0 is_stmt 0 discriminator 1
 562 00c6 8091 0000 		lds r24,mousekey_accel
 563               	.LVL75:
 564 00ca 8E7F      		andi r24,lo8(-2)
 565 00cc 00C0      		rjmp .L67
 566               	.LVL76:
 567               	.L63:
 164:../../../../tmk_core/common/mousekey.c ****     else if (code == KC_MS_ACCEL1) mousekey_accel &= ~(1<<1);
 568               		.loc 1 164 0 is_stmt 1
 569 00ce 8E3F      		cpi r24,lo8(-2)
 570 00d0 01F4      		brne .L64
 571               		.loc 1 164 0 is_stmt 0 discriminator 1
 572 00d2 8091 0000 		lds r24,mousekey_accel
 573               	.LVL77:
 574 00d6 8D7F      		andi r24,lo8(-3)
 575 00d8 00C0      		rjmp .L67
 576               	.LVL78:
 577               	.L64:
 165:../../../../tmk_core/common/mousekey.c ****     else if (code == KC_MS_ACCEL2) mousekey_accel &= ~(1<<2);
 578               		.loc 1 165 0 is_stmt 1
 579 00da 8F3F      		cpi r24,lo8(-1)
 580 00dc 01F4      		brne .L51
 581               		.loc 1 165 0 is_stmt 0 discriminator 1
 582 00de 8091 0000 		lds r24,mousekey_accel
 583               	.LVL79:
 584 00e2 8B7F      		andi r24,lo8(-5)
 585               	.L67:
 586 00e4 8093 0000 		sts mousekey_accel,r24
 587               	.L51:
 166:../../../../tmk_core/common/mousekey.c **** 
 167:../../../../tmk_core/common/mousekey.c ****     if (mouse_report.x == 0 && mouse_report.y == 0 && mouse_report.v == 0 && mouse_report.h == 0)
 588               		.loc 1 167 0 is_stmt 1
 589 00e8 8091 0000 		lds r24,mouse_report+1
 590 00ec 8111      		cpse r24,__zero_reg__
 591 00ee 00C0      		rjmp .L48
 592               		.loc 1 167 0 is_stmt 0 discriminator 1
 593 00f0 8091 0000 		lds r24,mouse_report+2
 594 00f4 8111      		cpse r24,__zero_reg__
 595 00f6 00C0      		rjmp .L48
 596 00f8 8091 0000 		lds r24,mouse_report+3
 597 00fc 8111      		cpse r24,__zero_reg__
 598 00fe 00C0      		rjmp .L48
 599 0100 8091 0000 		lds r24,mouse_report+4
 600 0104 8111      		cpse r24,__zero_reg__
 601 0106 00C0      		rjmp .L48
 168:../../../../tmk_core/common/mousekey.c ****         mousekey_repeat = 0;
 602               		.loc 1 168 0 is_stmt 1
 603 0108 1092 0000 		sts mousekey_repeat,__zero_reg__
 604               	.L48:
 605 010c 0895      		ret
 606               		.cfi_endproc
 607               	.LFE5:
 609               		.section	.text.mousekey_send,"ax",@progbits
 610               	.global	mousekey_send
 612               	mousekey_send:
 613               	.LFB6:
 169:../../../../tmk_core/common/mousekey.c **** }
 170:../../../../tmk_core/common/mousekey.c **** 
 171:../../../../tmk_core/common/mousekey.c **** void mousekey_send(void)
 172:../../../../tmk_core/common/mousekey.c **** {
 614               		.loc 1 172 0
 615               		.cfi_startproc
 616               	/* prologue: function */
 617               	/* frame size = 0 */
 618               	/* stack size = 0 */
 619               	.L__stack_usage = 0
 620               	.LBB19:
 621               	.LBB20:
 173:../../../../tmk_core/common/mousekey.c ****     mousekey_debug();
 174:../../../../tmk_core/common/mousekey.c ****     host_mouse_send(&mouse_report);
 175:../../../../tmk_core/common/mousekey.c ****     last_timer = timer_read();
 176:../../../../tmk_core/common/mousekey.c **** }
 177:../../../../tmk_core/common/mousekey.c **** 
 178:../../../../tmk_core/common/mousekey.c **** void mousekey_clear(void)
 179:../../../../tmk_core/common/mousekey.c **** {
 180:../../../../tmk_core/common/mousekey.c ****     mouse_report = (report_mouse_t){};
 181:../../../../tmk_core/common/mousekey.c ****     mousekey_repeat = 0;
 182:../../../../tmk_core/common/mousekey.c ****     mousekey_accel = 0;
 183:../../../../tmk_core/common/mousekey.c **** }
 184:../../../../tmk_core/common/mousekey.c **** 
 185:../../../../tmk_core/common/mousekey.c **** static void mousekey_debug(void)
 186:../../../../tmk_core/common/mousekey.c **** {
 187:../../../../tmk_core/common/mousekey.c ****     if (!debug_mouse) return;
 622               		.loc 1 187 0
 623 0000 8091 0000 		lds r24,debug_config
 624 0004 83FF      		sbrs r24,3
 625 0006 00C0      		rjmp .L73
 188:../../../../tmk_core/common/mousekey.c ****     print("mousekey [btn|x y v h](rep/acl): [");
 626               		.loc 1 188 0
 627 0008 80E0      		ldi r24,lo8(__c.1961)
 628 000a 90E0      		ldi r25,hi8(__c.1961)
 629 000c 0E94 0000 		call xputs
 189:../../../../tmk_core/common/mousekey.c ****     phex(mouse_report.buttons); print("|");
 630               		.loc 1 189 0
 631 0010 8091 0000 		lds r24,mouse_report
 632 0014 1F92      		push __zero_reg__
 633               	.LCFI0:
 634               		.cfi_def_cfa_offset 3
 635 0016 8F93      		push r24
 636               	.LCFI1:
 637               		.cfi_def_cfa_offset 4
 638 0018 80E0      		ldi r24,lo8(__c.1963)
 639 001a 90E0      		ldi r25,hi8(__c.1963)
 640 001c 9F93      		push r25
 641               	.LCFI2:
 642               		.cfi_def_cfa_offset 5
 643 001e 8F93      		push r24
 644               	.LCFI3:
 645               		.cfi_def_cfa_offset 6
 646 0020 0E94 0000 		call __xprintf
 647 0024 80E0      		ldi r24,lo8(__c.1965)
 648 0026 90E0      		ldi r25,hi8(__c.1965)
 649 0028 0E94 0000 		call xputs
 190:../../../../tmk_core/common/mousekey.c ****     print_decs(mouse_report.x); print(" ");
 650               		.loc 1 190 0
 651 002c 2091 0000 		lds r18,mouse_report+1
 652 0030 822F      		mov r24,r18
 653 0032 9927      		clr r25
 654 0034 87FD      		sbrc r24,7
 655 0036 9095      		com r25
 656 0038 9F93      		push r25
 657               	.LCFI4:
 658               		.cfi_def_cfa_offset 7
 659 003a 2F93      		push r18
 660               	.LCFI5:
 661               		.cfi_def_cfa_offset 8
 662 003c 80E0      		ldi r24,lo8(__c.1967)
 663 003e 90E0      		ldi r25,hi8(__c.1967)
 664 0040 9F93      		push r25
 665               	.LCFI6:
 666               		.cfi_def_cfa_offset 9
 667 0042 8F93      		push r24
 668               	.LCFI7:
 669               		.cfi_def_cfa_offset 10
 670 0044 0E94 0000 		call __xprintf
 671 0048 80E0      		ldi r24,lo8(__c.1969)
 672 004a 90E0      		ldi r25,hi8(__c.1969)
 673 004c 0E94 0000 		call xputs
 191:../../../../tmk_core/common/mousekey.c ****     print_decs(mouse_report.y); print(" ");
 674               		.loc 1 191 0
 675 0050 2091 0000 		lds r18,mouse_report+2
 676 0054 822F      		mov r24,r18
 677 0056 9927      		clr r25
 678 0058 87FD      		sbrc r24,7
 679 005a 9095      		com r25
 680 005c 9F93      		push r25
 681               	.LCFI8:
 682               		.cfi_def_cfa_offset 11
 683 005e 2F93      		push r18
 684               	.LCFI9:
 685               		.cfi_def_cfa_offset 12
 686 0060 80E0      		ldi r24,lo8(__c.1971)
 687 0062 90E0      		ldi r25,hi8(__c.1971)
 688 0064 9F93      		push r25
 689               	.LCFI10:
 690               		.cfi_def_cfa_offset 13
 691 0066 8F93      		push r24
 692               	.LCFI11:
 693               		.cfi_def_cfa_offset 14
 694 0068 0E94 0000 		call __xprintf
 695 006c 80E0      		ldi r24,lo8(__c.1973)
 696 006e 90E0      		ldi r25,hi8(__c.1973)
 697 0070 0E94 0000 		call xputs
 192:../../../../tmk_core/common/mousekey.c ****     print_decs(mouse_report.v); print(" ");
 698               		.loc 1 192 0
 699 0074 2091 0000 		lds r18,mouse_report+3
 700 0078 822F      		mov r24,r18
 701 007a 9927      		clr r25
 702 007c 87FD      		sbrc r24,7
 703 007e 9095      		com r25
 704 0080 9F93      		push r25
 705               	.LCFI12:
 706               		.cfi_def_cfa_offset 15
 707 0082 2F93      		push r18
 708               	.LCFI13:
 709               		.cfi_def_cfa_offset 16
 710 0084 80E0      		ldi r24,lo8(__c.1975)
 711 0086 90E0      		ldi r25,hi8(__c.1975)
 712 0088 9F93      		push r25
 713               	.LCFI14:
 714               		.cfi_def_cfa_offset 17
 715 008a 8F93      		push r24
 716               	.LCFI15:
 717               		.cfi_def_cfa_offset 18
 718 008c 0E94 0000 		call __xprintf
 719 0090 80E0      		ldi r24,lo8(__c.1977)
 720 0092 90E0      		ldi r25,hi8(__c.1977)
 721 0094 0E94 0000 		call xputs
 193:../../../../tmk_core/common/mousekey.c ****     print_decs(mouse_report.h); print("](");
 722               		.loc 1 193 0
 723 0098 2091 0000 		lds r18,mouse_report+4
 724 009c 822F      		mov r24,r18
 725 009e 9927      		clr r25
 726 00a0 87FD      		sbrc r24,7
 727 00a2 9095      		com r25
 728 00a4 9F93      		push r25
 729               	.LCFI16:
 730               		.cfi_def_cfa_offset 19
 731 00a6 2F93      		push r18
 732               	.LCFI17:
 733               		.cfi_def_cfa_offset 20
 734 00a8 80E0      		ldi r24,lo8(__c.1979)
 735 00aa 90E0      		ldi r25,hi8(__c.1979)
 736 00ac 9F93      		push r25
 737               	.LCFI18:
 738               		.cfi_def_cfa_offset 21
 739 00ae 8F93      		push r24
 740               	.LCFI19:
 741               		.cfi_def_cfa_offset 22
 742 00b0 0E94 0000 		call __xprintf
 743 00b4 80E0      		ldi r24,lo8(__c.1981)
 744 00b6 90E0      		ldi r25,hi8(__c.1981)
 745 00b8 0E94 0000 		call xputs
 194:../../../../tmk_core/common/mousekey.c ****     print_dec(mousekey_repeat); print("/");
 746               		.loc 1 194 0
 747 00bc 8091 0000 		lds r24,mousekey_repeat
 748 00c0 1F92      		push __zero_reg__
 749               	.LCFI20:
 750               		.cfi_def_cfa_offset 23
 751 00c2 8F93      		push r24
 752               	.LCFI21:
 753               		.cfi_def_cfa_offset 24
 754 00c4 80E0      		ldi r24,lo8(__c.1983)
 755 00c6 90E0      		ldi r25,hi8(__c.1983)
 756 00c8 9F93      		push r25
 757               	.LCFI22:
 758               		.cfi_def_cfa_offset 25
 759 00ca 8F93      		push r24
 760               	.LCFI23:
 761               		.cfi_def_cfa_offset 26
 762 00cc 0E94 0000 		call __xprintf
 763 00d0 80E0      		ldi r24,lo8(__c.1985)
 764 00d2 90E0      		ldi r25,hi8(__c.1985)
 765 00d4 0E94 0000 		call xputs
 195:../../../../tmk_core/common/mousekey.c ****     print_dec(mousekey_accel); print(")\n");
 766               		.loc 1 195 0
 767 00d8 8091 0000 		lds r24,mousekey_accel
 768 00dc 1F92      		push __zero_reg__
 769               	.LCFI24:
 770               		.cfi_def_cfa_offset 27
 771 00de 8F93      		push r24
 772               	.LCFI25:
 773               		.cfi_def_cfa_offset 28
 774 00e0 80E0      		ldi r24,lo8(__c.1987)
 775 00e2 90E0      		ldi r25,hi8(__c.1987)
 776 00e4 9F93      		push r25
 777               	.LCFI26:
 778               		.cfi_def_cfa_offset 29
 779 00e6 8F93      		push r24
 780               	.LCFI27:
 781               		.cfi_def_cfa_offset 30
 782 00e8 0E94 0000 		call __xprintf
 783 00ec 80E0      		ldi r24,lo8(__c.1989)
 784 00ee 90E0      		ldi r25,hi8(__c.1989)
 785 00f0 0E94 0000 		call xputs
 786 00f4 8DB7      		in r24,__SP_L__
 787 00f6 9EB7      		in r25,__SP_H__
 788 00f8 4C96      		adiw r24,28
 789 00fa 0FB6      		in __tmp_reg__,__SREG__
 790 00fc F894      		cli
 791 00fe 9EBF      		out __SP_H__,r25
 792 0100 0FBE      		out __SREG__,__tmp_reg__
 793 0102 8DBF      		out __SP_L__,r24
 794               	.LCFI28:
 795               		.cfi_def_cfa_offset 2
 796               	.L73:
 797               	.LBE20:
 798               	.LBE19:
 174:../../../../tmk_core/common/mousekey.c ****     host_mouse_send(&mouse_report);
 799               		.loc 1 174 0
 800 0104 80E0      		ldi r24,lo8(mouse_report)
 801 0106 90E0      		ldi r25,hi8(mouse_report)
 802 0108 0E94 0000 		call host_mouse_send
 175:../../../../tmk_core/common/mousekey.c ****     last_timer = timer_read();
 803               		.loc 1 175 0
 804 010c 0E94 0000 		call timer_read
 805 0110 9093 0000 		sts last_timer+1,r25
 806 0114 8093 0000 		sts last_timer,r24
 807 0118 0895      		ret
 808               		.cfi_endproc
 809               	.LFE6:
 811               	.global	__floatsisf
 812               	.global	__mulsf3
 813               	.global	__fixsfsi
 814               		.section	.text.mousekey_task,"ax",@progbits
 815               	.global	mousekey_task
 817               	mousekey_task:
 818               	.LFB3:
  98:../../../../tmk_core/common/mousekey.c **** {
 819               		.loc 1 98 0
 820               		.cfi_startproc
 821 0000 CF93      		push r28
 822               	.LCFI29:
 823               		.cfi_def_cfa_offset 3
 824               		.cfi_offset 28, -2
 825               	/* prologue: function */
 826               	/* frame size = 0 */
 827               	/* stack size = 1 */
 828               	.L__stack_usage = 1
  99:../../../../tmk_core/common/mousekey.c ****     if (timer_elapsed(last_timer) < (mousekey_repeat ? mk_interval : mk_delay*10))
 829               		.loc 1 99 0
 830 0002 8091 0000 		lds r24,last_timer
 831 0006 9091 0000 		lds r25,last_timer+1
 832 000a 0E94 0000 		call timer_elapsed
 833               	.LVL80:
 834 000e 4091 0000 		lds r20,mousekey_repeat
 835 0012 4423      		tst r20
 836 0014 01F0      		breq .L78
  99:../../../../tmk_core/common/mousekey.c ****     if (timer_elapsed(last_timer) < (mousekey_repeat ? mk_interval : mk_delay*10))
 837               		.loc 1 99 0 is_stmt 0 discriminator 1
 838 0016 2091 0000 		lds r18,mk_interval
 839 001a 30E0      		ldi r19,0
 840 001c 00C0      		rjmp .L79
 841               	.L78:
  99:../../../../tmk_core/common/mousekey.c ****     if (timer_elapsed(last_timer) < (mousekey_repeat ? mk_interval : mk_delay*10))
 842               		.loc 1 99 0 discriminator 2
 843 001e 2091 0000 		lds r18,mk_delay
 844 0022 5AE0      		ldi r21,lo8(10)
 845 0024 259F      		mul r18,r21
 846 0026 9001      		movw r18,r0
 847 0028 1124      		clr __zero_reg__
 848               	.L79:
  99:../../../../tmk_core/common/mousekey.c ****     if (timer_elapsed(last_timer) < (mousekey_repeat ? mk_interval : mk_delay*10))
 849               		.loc 1 99 0 discriminator 3
 850 002a 8217      		cp r24,r18
 851 002c 9307      		cpc r25,r19
 852 002e 00F4      		brsh .+2
 853 0030 00C0      		rjmp .L77
 102:../../../../tmk_core/common/mousekey.c ****     if (mouse_report.x == 0 && mouse_report.y == 0 && mouse_report.v == 0 && mouse_report.h == 0)
 854               		.loc 1 102 0 is_stmt 1
 855 0032 8091 0000 		lds r24,mouse_report+1
 856 0036 8111      		cpse r24,__zero_reg__
 857 0038 00C0      		rjmp .L81
 102:../../../../tmk_core/common/mousekey.c ****     if (mouse_report.x == 0 && mouse_report.y == 0 && mouse_report.v == 0 && mouse_report.h == 0)
 858               		.loc 1 102 0 is_stmt 0 discriminator 1
 859 003a 9091 0000 		lds r25,mouse_report+2
 860 003e 9111      		cpse r25,__zero_reg__
 861 0040 00C0      		rjmp .L81
 862 0042 9091 0000 		lds r25,mouse_report+3
 863 0046 9111      		cpse r25,__zero_reg__
 864 0048 00C0      		rjmp .L81
 865 004a 9091 0000 		lds r25,mouse_report+4
 866 004e 9923      		tst r25
 867 0050 01F4      		brne .+2
 868 0052 00C0      		rjmp .L77
 869               	.L81:
 105:../../../../tmk_core/common/mousekey.c ****     if (mousekey_repeat != UINT8_MAX)
 870               		.loc 1 105 0 is_stmt 1
 871 0054 4F3F      		cpi r20,lo8(-1)
 872 0056 01F0      		breq .L82
 106:../../../../tmk_core/common/mousekey.c ****         mousekey_repeat++;
 873               		.loc 1 106 0
 874 0058 4F5F      		subi r20,lo8(-(1))
 875 005a 4093 0000 		sts mousekey_repeat,r20
 876               	.L82:
 109:../../../../tmk_core/common/mousekey.c ****     if (mouse_report.x > 0) mouse_report.x = move_unit();
 877               		.loc 1 109 0
 878 005e 1816      		cp __zero_reg__,r24
 879 0060 04F4      		brge .L83
 109:../../../../tmk_core/common/mousekey.c ****     if (mouse_report.x > 0) mouse_report.x = move_unit();
 880               		.loc 1 109 0 is_stmt 0 discriminator 1
 881 0062 0E94 0000 		call move_unit
 882               	.LVL81:
 883 0066 8093 0000 		sts mouse_report+1,r24
 884               	.L83:
 110:../../../../tmk_core/common/mousekey.c ****     if (mouse_report.x < 0) mouse_report.x = move_unit() * -1;
 885               		.loc 1 110 0 is_stmt 1
 886 006a 8091 0000 		lds r24,mouse_report+1
 887 006e 87FF      		sbrs r24,7
 888 0070 00C0      		rjmp .L84
 110:../../../../tmk_core/common/mousekey.c ****     if (mouse_report.x < 0) mouse_report.x = move_unit() * -1;
 889               		.loc 1 110 0 is_stmt 0 discriminator 1
 890 0072 0E94 0000 		call move_unit
 891               	.LVL82:
 892 0076 8195      		neg r24
 893 0078 8093 0000 		sts mouse_report+1,r24
 894               	.L84:
 111:../../../../tmk_core/common/mousekey.c ****     if (mouse_report.y > 0) mouse_report.y = move_unit();
 895               		.loc 1 111 0 is_stmt 1
 896 007c 8091 0000 		lds r24,mouse_report+2
 897 0080 1816      		cp __zero_reg__,r24
 898 0082 04F4      		brge .L85
 111:../../../../tmk_core/common/mousekey.c ****     if (mouse_report.y > 0) mouse_report.y = move_unit();
 899               		.loc 1 111 0 is_stmt 0 discriminator 1
 900 0084 0E94 0000 		call move_unit
 901               	.LVL83:
 902 0088 8093 0000 		sts mouse_report+2,r24
 903               	.L85:
 112:../../../../tmk_core/common/mousekey.c ****     if (mouse_report.y < 0) mouse_report.y = move_unit() * -1;
 904               		.loc 1 112 0 is_stmt 1
 905 008c 8091 0000 		lds r24,mouse_report+2
 906 0090 87FF      		sbrs r24,7
 907 0092 00C0      		rjmp .L86
 112:../../../../tmk_core/common/mousekey.c ****     if (mouse_report.y < 0) mouse_report.y = move_unit() * -1;
 908               		.loc 1 112 0 is_stmt 0 discriminator 1
 909 0094 0E94 0000 		call move_unit
 910               	.LVL84:
 911 0098 8195      		neg r24
 912 009a 8093 0000 		sts mouse_report+2,r24
 913               	.L86:
 115:../../../../tmk_core/common/mousekey.c ****     if (mouse_report.x && mouse_report.y) {
 914               		.loc 1 115 0 is_stmt 1
 915 009e 6091 0000 		lds r22,mouse_report+1
 916 00a2 6623      		tst r22
 917 00a4 01F0      		breq .L87
 115:../../../../tmk_core/common/mousekey.c ****     if (mouse_report.x && mouse_report.y) {
 918               		.loc 1 115 0 is_stmt 0 discriminator 1
 919 00a6 C091 0000 		lds r28,mouse_report+2
 920 00aa CC23      		tst r28
 921 00ac 01F0      		breq .L87
 116:../../../../tmk_core/common/mousekey.c ****         mouse_report.x *= 0.7;
 922               		.loc 1 116 0 is_stmt 1
 923 00ae 7727      		clr r23
 924 00b0 67FD      		sbrc r22,7
 925 00b2 7095      		com r23
 926 00b4 872F      		mov r24,r23
 927 00b6 972F      		mov r25,r23
 928 00b8 0E94 0000 		call __floatsisf
 929               	.LVL85:
 930 00bc 23E3      		ldi r18,lo8(51)
 931 00be 33E3      		ldi r19,lo8(51)
 932 00c0 43E3      		ldi r20,lo8(51)
 933 00c2 5FE3      		ldi r21,lo8(63)
 934 00c4 0E94 0000 		call __mulsf3
 935               	.LVL86:
 936 00c8 0E94 0000 		call __fixsfsi
 937               	.LVL87:
 938 00cc 6093 0000 		sts mouse_report+1,r22
 117:../../../../tmk_core/common/mousekey.c ****         mouse_report.y *= 0.7;
 939               		.loc 1 117 0
 940 00d0 6C2F      		mov r22,r28
 941 00d2 7727      		clr r23
 942 00d4 67FD      		sbrc r22,7
 943 00d6 7095      		com r23
 944 00d8 872F      		mov r24,r23
 945 00da 972F      		mov r25,r23
 946 00dc 0E94 0000 		call __floatsisf
 947               	.LVL88:
 948 00e0 23E3      		ldi r18,lo8(51)
 949 00e2 33E3      		ldi r19,lo8(51)
 950 00e4 43E3      		ldi r20,lo8(51)
 951 00e6 5FE3      		ldi r21,lo8(63)
 952 00e8 0E94 0000 		call __mulsf3
 953               	.LVL89:
 954 00ec 0E94 0000 		call __fixsfsi
 955               	.LVL90:
 956 00f0 6093 0000 		sts mouse_report+2,r22
 957               	.L87:
 120:../../../../tmk_core/common/mousekey.c ****     if (mouse_report.v > 0) mouse_report.v = wheel_unit();
 958               		.loc 1 120 0
 959 00f4 8091 0000 		lds r24,mouse_report+3
 960 00f8 1816      		cp __zero_reg__,r24
 961 00fa 04F4      		brge .L88
 120:../../../../tmk_core/common/mousekey.c ****     if (mouse_report.v > 0) mouse_report.v = wheel_unit();
 962               		.loc 1 120 0 is_stmt 0 discriminator 1
 963 00fc 0E94 0000 		call wheel_unit
 964               	.LVL91:
 965 0100 8093 0000 		sts mouse_report+3,r24
 966               	.L88:
 121:../../../../tmk_core/common/mousekey.c ****     if (mouse_report.v < 0) mouse_report.v = wheel_unit() * -1;
 967               		.loc 1 121 0 is_stmt 1
 968 0104 8091 0000 		lds r24,mouse_report+3
 969 0108 87FF      		sbrs r24,7
 970 010a 00C0      		rjmp .L89
 121:../../../../tmk_core/common/mousekey.c ****     if (mouse_report.v < 0) mouse_report.v = wheel_unit() * -1;
 971               		.loc 1 121 0 is_stmt 0 discriminator 1
 972 010c 0E94 0000 		call wheel_unit
 973               	.LVL92:
 974 0110 8195      		neg r24
 975 0112 8093 0000 		sts mouse_report+3,r24
 976               	.L89:
 122:../../../../tmk_core/common/mousekey.c ****     if (mouse_report.h > 0) mouse_report.h = wheel_unit();
 977               		.loc 1 122 0 is_stmt 1
 978 0116 8091 0000 		lds r24,mouse_report+4
 979 011a 1816      		cp __zero_reg__,r24
 980 011c 04F4      		brge .L90
 122:../../../../tmk_core/common/mousekey.c ****     if (mouse_report.h > 0) mouse_report.h = wheel_unit();
 981               		.loc 1 122 0 is_stmt 0 discriminator 1
 982 011e 0E94 0000 		call wheel_unit
 983               	.LVL93:
 984 0122 8093 0000 		sts mouse_report+4,r24
 985               	.L90:
 123:../../../../tmk_core/common/mousekey.c ****     if (mouse_report.h < 0) mouse_report.h = wheel_unit() * -1;
 986               		.loc 1 123 0 is_stmt 1
 987 0126 8091 0000 		lds r24,mouse_report+4
 988 012a 87FF      		sbrs r24,7
 989 012c 00C0      		rjmp .L91
 123:../../../../tmk_core/common/mousekey.c ****     if (mouse_report.h < 0) mouse_report.h = wheel_unit() * -1;
 990               		.loc 1 123 0 is_stmt 0 discriminator 1
 991 012e 0E94 0000 		call wheel_unit
 992               	.LVL94:
 993 0132 8195      		neg r24
 994 0134 8093 0000 		sts mouse_report+4,r24
 995               	.L91:
 996               	/* epilogue start */
 126:../../../../tmk_core/common/mousekey.c **** }
 997               		.loc 1 126 0 is_stmt 1
 998 0138 CF91      		pop r28
 125:../../../../tmk_core/common/mousekey.c ****     mousekey_send();
 999               		.loc 1 125 0
 1000 013a 0C94 0000 		jmp mousekey_send
 1001               	.LVL95:
 1002               	.L77:
 1003               	/* epilogue start */
 126:../../../../tmk_core/common/mousekey.c **** }
 1004               		.loc 1 126 0
 1005 013e CF91      		pop r28
 1006 0140 0895      		ret
 1007               		.cfi_endproc
 1008               	.LFE3:
 1010               		.section	.text.mousekey_clear,"ax",@progbits
 1011               	.global	mousekey_clear
 1013               	mousekey_clear:
 1014               	.LFB7:
 179:../../../../tmk_core/common/mousekey.c **** {
 1015               		.loc 1 179 0
 1016               		.cfi_startproc
 1017               	/* prologue: function */
 1018               	/* frame size = 0 */
 1019               	/* stack size = 0 */
 1020               	.L__stack_usage = 0
 180:../../../../tmk_core/common/mousekey.c ****     mouse_report = (report_mouse_t){};
 1021               		.loc 1 180 0
 1022 0000 E0E0      		ldi r30,lo8(mouse_report)
 1023 0002 F0E0      		ldi r31,hi8(mouse_report)
 1024 0004 85E0      		ldi r24,lo8(5)
 1025 0006 DF01      		movw r26,r30
 1026               		0:
 1027 0008 1D92      		st X+,__zero_reg__
 1028 000a 8A95      		dec r24
 1029 000c 01F4      		brne 0b
 181:../../../../tmk_core/common/mousekey.c ****     mousekey_repeat = 0;
 1030               		.loc 1 181 0
 1031 000e 1092 0000 		sts mousekey_repeat,__zero_reg__
 182:../../../../tmk_core/common/mousekey.c ****     mousekey_accel = 0;
 1032               		.loc 1 182 0
 1033 0012 1092 0000 		sts mousekey_accel,__zero_reg__
 1034 0016 0895      		ret
 1035               		.cfi_endproc
 1036               	.LFE7:
 1038               	.global	mk_wheel_time_to_max
 1039               		.section	.data.mk_wheel_time_to_max,"aw",@progbits
 1042               	mk_wheel_time_to_max:
 1043 0000 3C        		.byte	60
 1044               	.global	mk_wheel_max_speed
 1045               		.section	.data.mk_wheel_max_speed,"aw",@progbits
 1048               	mk_wheel_max_speed:
 1049 0000 08        		.byte	8
 1050               	.global	mk_time_to_max
 1051               		.section	.data.mk_time_to_max,"aw",@progbits
 1054               	mk_time_to_max:
 1055 0000 32        		.byte	50
 1056               	.global	mk_max_speed
 1057               		.section	.data.mk_max_speed,"aw",@progbits
 1060               	mk_max_speed:
 1061 0000 06        		.byte	6
 1062               	.global	mk_interval
 1063               		.section	.data.mk_interval,"aw",@progbits
 1066               	mk_interval:
 1067 0000 32        		.byte	50
 1068               	.global	mk_delay
 1069               		.section	.data.mk_delay,"aw",@progbits
 1072               	mk_delay:
 1073 0000 1E        		.byte	30
 1074               		.section	.bss.last_timer,"aw",@nobits
 1077               	last_timer:
 1078 0000 0000      		.zero	2
 1079               		.section	.bss.mousekey_repeat,"aw",@nobits
 1082               	mousekey_repeat:
 1083 0000 00        		.zero	1
 1084               		.section	.bss.mouse_report,"aw",@nobits
 1087               	mouse_report:
 1088 0000 0000 0000 		.zero	5
 1088      00
 1089               		.section	.bss.mousekey_accel,"aw",@nobits
 1092               	mousekey_accel:
 1093 0000 00        		.zero	1
 1094               		.section	.progmem.data.__c.1961,"a",@progbits
 1097               	__c.1961:
 1098 0000 6D6F 7573 		.string	"mousekey [btn|x y v h](rep/acl): ["
 1098      656B 6579 
 1098      205B 6274 
 1098      6E7C 7820 
 1098      7920 7620 
 1099               		.section	.progmem.data.__c.1963,"a",@progbits
 1102               	__c.1963:
 1103 0000 2530 3258 		.string	"%02X"
 1103      00
 1104               		.section	.progmem.data.__c.1965,"a",@progbits
 1107               	__c.1965:
 1108 0000 7C00      		.string	"|"
 1109               		.section	.progmem.data.__c.1967,"a",@progbits
 1112               	__c.1967:
 1113 0000 2564 00   		.string	"%d"
 1114               		.section	.progmem.data.__c.1969,"a",@progbits
 1117               	__c.1969:
 1118 0000 2000      		.string	" "
 1119               		.section	.progmem.data.__c.1971,"a",@progbits
 1122               	__c.1971:
 1123 0000 2564 00   		.string	"%d"
 1124               		.section	.progmem.data.__c.1973,"a",@progbits
 1127               	__c.1973:
 1128 0000 2000      		.string	" "
 1129               		.section	.progmem.data.__c.1975,"a",@progbits
 1132               	__c.1975:
 1133 0000 2564 00   		.string	"%d"
 1134               		.section	.progmem.data.__c.1977,"a",@progbits
 1137               	__c.1977:
 1138 0000 2000      		.string	" "
 1139               		.section	.progmem.data.__c.1979,"a",@progbits
 1142               	__c.1979:
 1143 0000 2564 00   		.string	"%d"
 1144               		.section	.progmem.data.__c.1981,"a",@progbits
 1147               	__c.1981:
 1148 0000 5D28 00   		.string	"]("
 1149               		.section	.progmem.data.__c.1983,"a",@progbits
 1152               	__c.1983:
 1153 0000 2575 00   		.string	"%u"
 1154               		.section	.progmem.data.__c.1985,"a",@progbits
 1157               	__c.1985:
 1158 0000 2F00      		.string	"/"
 1159               		.section	.progmem.data.__c.1987,"a",@progbits
 1162               	__c.1987:
 1163 0000 2575 00   		.string	"%u"
 1164               		.section	.progmem.data.__c.1989,"a",@progbits
 1167               	__c.1989:
 1168 0000 290A 00   		.string	")\n"
 1169               		.text
 1170               	.Letext0:
 1171               		.file 2 "/usr/lib64/gcc/avr/4.7.1/../../../../avr/include/stdint.h"
 1172               		.file 3 "../../../../tmk_core/common/report.h"
 1173               		.file 4 "../../../../tmk_core/common/debug.h"
 1174               		.file 5 "../../../../tmk_core/common/keycode.h"
 1175               		.file 6 "../../../../tmk_core/common/timer.h"