   1               		.file	"DeviceStandardReq.c"
   2               	__SP_H__ = 0x3e
   3               	__SP_L__ = 0x3d
   4               	__SREG__ = 0x3f
   5               	__RAMPZ__ = 0x3b
   6               	__tmp_reg__ = 0
   7               	__zero_reg__ = 1
   8               		.text
   9               	.Ltext0:
  10               		.cfi_sections	.debug_frame
  11               		.section	.text.USB_Device_ProcessControlRequest,"ax",@progbits
  12               	.global	USB_Device_ProcessControlRequest
  14               	USB_Device_ProcessControlRequest:
  15               	.LFB85:
  16               		.file 1 "../../../../tmk_core/protocol/lufa/LUFA-git/LUFA/Drivers/USB/Core/DeviceStandardReq.c"
   1:../../../../tmk_core/protocol/lufa/LUFA-git/LUFA/Drivers/USB/Core/DeviceStandardReq.c **** /*
   2:../../../../tmk_core/protocol/lufa/LUFA-git/LUFA/Drivers/USB/Core/DeviceStandardReq.c ****              LUFA Library
   3:../../../../tmk_core/protocol/lufa/LUFA-git/LUFA/Drivers/USB/Core/DeviceStandardReq.c ****      Copyright (C) Dean Camera, 2014.
   4:../../../../tmk_core/protocol/lufa/LUFA-git/LUFA/Drivers/USB/Core/DeviceStandardReq.c **** 
   5:../../../../tmk_core/protocol/lufa/LUFA-git/LUFA/Drivers/USB/Core/DeviceStandardReq.c ****   dean [at] fourwalledcubicle [dot] com
   6:../../../../tmk_core/protocol/lufa/LUFA-git/LUFA/Drivers/USB/Core/DeviceStandardReq.c ****            www.lufa-lib.org
   7:../../../../tmk_core/protocol/lufa/LUFA-git/LUFA/Drivers/USB/Core/DeviceStandardReq.c **** */
   8:../../../../tmk_core/protocol/lufa/LUFA-git/LUFA/Drivers/USB/Core/DeviceStandardReq.c **** 
   9:../../../../tmk_core/protocol/lufa/LUFA-git/LUFA/Drivers/USB/Core/DeviceStandardReq.c **** /*
  10:../../../../tmk_core/protocol/lufa/LUFA-git/LUFA/Drivers/USB/Core/DeviceStandardReq.c ****   Copyright 2014  Dean Camera (dean [at] fourwalledcubicle [dot] com)
  11:../../../../tmk_core/protocol/lufa/LUFA-git/LUFA/Drivers/USB/Core/DeviceStandardReq.c **** 
  12:../../../../tmk_core/protocol/lufa/LUFA-git/LUFA/Drivers/USB/Core/DeviceStandardReq.c ****   Permission to use, copy, modify, distribute, and sell this
  13:../../../../tmk_core/protocol/lufa/LUFA-git/LUFA/Drivers/USB/Core/DeviceStandardReq.c ****   software and its documentation for any purpose is hereby granted
  14:../../../../tmk_core/protocol/lufa/LUFA-git/LUFA/Drivers/USB/Core/DeviceStandardReq.c ****   without fee, provided that the above copyright notice appear in
  15:../../../../tmk_core/protocol/lufa/LUFA-git/LUFA/Drivers/USB/Core/DeviceStandardReq.c ****   all copies and that both that the copyright notice and this
  16:../../../../tmk_core/protocol/lufa/LUFA-git/LUFA/Drivers/USB/Core/DeviceStandardReq.c ****   permission notice and warranty disclaimer appear in supporting
  17:../../../../tmk_core/protocol/lufa/LUFA-git/LUFA/Drivers/USB/Core/DeviceStandardReq.c ****   documentation, and that the name of the author not be used in
  18:../../../../tmk_core/protocol/lufa/LUFA-git/LUFA/Drivers/USB/Core/DeviceStandardReq.c ****   advertising or publicity pertaining to distribution of the
  19:../../../../tmk_core/protocol/lufa/LUFA-git/LUFA/Drivers/USB/Core/DeviceStandardReq.c ****   software without specific, written prior permission.
  20:../../../../tmk_core/protocol/lufa/LUFA-git/LUFA/Drivers/USB/Core/DeviceStandardReq.c **** 
  21:../../../../tmk_core/protocol/lufa/LUFA-git/LUFA/Drivers/USB/Core/DeviceStandardReq.c ****   The author disclaims all warranties with regard to this
  22:../../../../tmk_core/protocol/lufa/LUFA-git/LUFA/Drivers/USB/Core/DeviceStandardReq.c ****   software, including all implied warranties of merchantability
  23:../../../../tmk_core/protocol/lufa/LUFA-git/LUFA/Drivers/USB/Core/DeviceStandardReq.c ****   and fitness.  In no event shall the author be liable for any
  24:../../../../tmk_core/protocol/lufa/LUFA-git/LUFA/Drivers/USB/Core/DeviceStandardReq.c ****   special, indirect or consequential damages or any damages
  25:../../../../tmk_core/protocol/lufa/LUFA-git/LUFA/Drivers/USB/Core/DeviceStandardReq.c ****   whatsoever resulting from loss of use, data or profits, whether
  26:../../../../tmk_core/protocol/lufa/LUFA-git/LUFA/Drivers/USB/Core/DeviceStandardReq.c ****   in an action of contract, negligence or other tortious action,
  27:../../../../tmk_core/protocol/lufa/LUFA-git/LUFA/Drivers/USB/Core/DeviceStandardReq.c ****   arising out of or in connection with the use or performance of
  28:../../../../tmk_core/protocol/lufa/LUFA-git/LUFA/Drivers/USB/Core/DeviceStandardReq.c ****   this software.
  29:../../../../tmk_core/protocol/lufa/LUFA-git/LUFA/Drivers/USB/Core/DeviceStandardReq.c **** */
  30:../../../../tmk_core/protocol/lufa/LUFA-git/LUFA/Drivers/USB/Core/DeviceStandardReq.c **** 
  31:../../../../tmk_core/protocol/lufa/LUFA-git/LUFA/Drivers/USB/Core/DeviceStandardReq.c **** #define  __INCLUDE_FROM_USB_DRIVER
  32:../../../../tmk_core/protocol/lufa/LUFA-git/LUFA/Drivers/USB/Core/DeviceStandardReq.c **** #include "USBMode.h"
  33:../../../../tmk_core/protocol/lufa/LUFA-git/LUFA/Drivers/USB/Core/DeviceStandardReq.c **** 
  34:../../../../tmk_core/protocol/lufa/LUFA-git/LUFA/Drivers/USB/Core/DeviceStandardReq.c **** #if defined(USB_CAN_BE_DEVICE)
  35:../../../../tmk_core/protocol/lufa/LUFA-git/LUFA/Drivers/USB/Core/DeviceStandardReq.c **** 
  36:../../../../tmk_core/protocol/lufa/LUFA-git/LUFA/Drivers/USB/Core/DeviceStandardReq.c **** #define  __INCLUDE_FROM_DEVICESTDREQ_C
  37:../../../../tmk_core/protocol/lufa/LUFA-git/LUFA/Drivers/USB/Core/DeviceStandardReq.c **** #include "DeviceStandardReq.h"
  38:../../../../tmk_core/protocol/lufa/LUFA-git/LUFA/Drivers/USB/Core/DeviceStandardReq.c **** 
  39:../../../../tmk_core/protocol/lufa/LUFA-git/LUFA/Drivers/USB/Core/DeviceStandardReq.c **** uint8_t USB_Device_ConfigurationNumber;
  40:../../../../tmk_core/protocol/lufa/LUFA-git/LUFA/Drivers/USB/Core/DeviceStandardReq.c **** 
  41:../../../../tmk_core/protocol/lufa/LUFA-git/LUFA/Drivers/USB/Core/DeviceStandardReq.c **** #if !defined(NO_DEVICE_SELF_POWER)
  42:../../../../tmk_core/protocol/lufa/LUFA-git/LUFA/Drivers/USB/Core/DeviceStandardReq.c **** bool    USB_Device_CurrentlySelfPowered;
  43:../../../../tmk_core/protocol/lufa/LUFA-git/LUFA/Drivers/USB/Core/DeviceStandardReq.c **** #endif
  44:../../../../tmk_core/protocol/lufa/LUFA-git/LUFA/Drivers/USB/Core/DeviceStandardReq.c **** 
  45:../../../../tmk_core/protocol/lufa/LUFA-git/LUFA/Drivers/USB/Core/DeviceStandardReq.c **** #if !defined(NO_DEVICE_REMOTE_WAKEUP)
  46:../../../../tmk_core/protocol/lufa/LUFA-git/LUFA/Drivers/USB/Core/DeviceStandardReq.c **** bool    USB_Device_RemoteWakeupEnabled;
  47:../../../../tmk_core/protocol/lufa/LUFA-git/LUFA/Drivers/USB/Core/DeviceStandardReq.c **** #endif
  48:../../../../tmk_core/protocol/lufa/LUFA-git/LUFA/Drivers/USB/Core/DeviceStandardReq.c **** 
  49:../../../../tmk_core/protocol/lufa/LUFA-git/LUFA/Drivers/USB/Core/DeviceStandardReq.c **** void USB_Device_ProcessControlRequest(void)
  50:../../../../tmk_core/protocol/lufa/LUFA-git/LUFA/Drivers/USB/Core/DeviceStandardReq.c **** {
  17               		.loc 1 50 0
  18               		.cfi_startproc
  19 0000 1F93      		push r17
  20               	.LCFI0:
  21               		.cfi_def_cfa_offset 3
  22               		.cfi_offset 17, -2
  23 0002 CF93      		push r28
  24               	.LCFI1:
  25               		.cfi_def_cfa_offset 4
  26               		.cfi_offset 28, -3
  27 0004 DF93      		push r29
  28               	.LCFI2:
  29               		.cfi_def_cfa_offset 5
  30               		.cfi_offset 29, -4
  31 0006 CDB7      		in r28,__SP_L__
  32 0008 DEB7      		in r29,__SP_H__
  33               	.LCFI3:
  34               		.cfi_def_cfa_register 28
  35 000a AC97      		sbiw r28,44
  36               	.LCFI4:
  37               		.cfi_def_cfa_offset 49
  38 000c 0FB6      		in __tmp_reg__,__SREG__
  39 000e F894      		cli
  40 0010 DEBF      		out __SP_H__,r29
  41 0012 0FBE      		out __SREG__,__tmp_reg__
  42 0014 CDBF      		out __SP_L__,r28
  43               	/* prologue: function */
  44               	/* frame size = 44 */
  45               	/* stack size = 47 */
  46               	.L__stack_usage = 47
  47               	.LVL0:
  51:../../../../tmk_core/protocol/lufa/LUFA-git/LUFA/Drivers/USB/Core/DeviceStandardReq.c **** 	#if defined(ARCH_BIG_ENDIAN)
  52:../../../../tmk_core/protocol/lufa/LUFA-git/LUFA/Drivers/USB/Core/DeviceStandardReq.c **** 	USB_ControlRequest.bmRequestType = Endpoint_Read_8();
  53:../../../../tmk_core/protocol/lufa/LUFA-git/LUFA/Drivers/USB/Core/DeviceStandardReq.c **** 	USB_ControlRequest.bRequest      = Endpoint_Read_8();
  54:../../../../tmk_core/protocol/lufa/LUFA-git/LUFA/Drivers/USB/Core/DeviceStandardReq.c **** 	USB_ControlRequest.wValue        = Endpoint_Read_16_LE();
  55:../../../../tmk_core/protocol/lufa/LUFA-git/LUFA/Drivers/USB/Core/DeviceStandardReq.c **** 	USB_ControlRequest.wIndex        = Endpoint_Read_16_LE();
  56:../../../../tmk_core/protocol/lufa/LUFA-git/LUFA/Drivers/USB/Core/DeviceStandardReq.c **** 	USB_ControlRequest.wLength       = Endpoint_Read_16_LE();
  57:../../../../tmk_core/protocol/lufa/LUFA-git/LUFA/Drivers/USB/Core/DeviceStandardReq.c **** 	#else
  58:../../../../tmk_core/protocol/lufa/LUFA-git/LUFA/Drivers/USB/Core/DeviceStandardReq.c **** 	uint8_t* RequestHeader = (uint8_t*)&USB_ControlRequest;
  48               		.loc 1 58 0
  49 0016 E0E0      		ldi r30,lo8(USB_ControlRequest)
  50 0018 F0E0      		ldi r31,hi8(USB_ControlRequest)
  51               	.LVL1:
  52               	.L2:
  53               	.LBB170:
  54               	.LBB171:
  55               	.LBB172:
  56               		.file 2 "../../../../tmk_core/protocol/lufa/LUFA-git/LUFA/Drivers/USB/Core/AVR8/../AVR8/Endpoint_A
   1:../../../../tmk_core/protocol/lufa/LUFA-git/LUFA/Drivers/USB/Core/AVR8/../AVR8/Endpoint_AVR8.h **** /*
   2:../../../../tmk_core/protocol/lufa/LUFA-git/LUFA/Drivers/USB/Core/AVR8/../AVR8/Endpoint_AVR8.h ****              LUFA Library
   3:../../../../tmk_core/protocol/lufa/LUFA-git/LUFA/Drivers/USB/Core/AVR8/../AVR8/Endpoint_AVR8.h ****      Copyright (C) Dean Camera, 2014.
   4:../../../../tmk_core/protocol/lufa/LUFA-git/LUFA/Drivers/USB/Core/AVR8/../AVR8/Endpoint_AVR8.h **** 
   5:../../../../tmk_core/protocol/lufa/LUFA-git/LUFA/Drivers/USB/Core/AVR8/../AVR8/Endpoint_AVR8.h ****   dean [at] fourwalledcubicle [dot] com
   6:../../../../tmk_core/protocol/lufa/LUFA-git/LUFA/Drivers/USB/Core/AVR8/../AVR8/Endpoint_AVR8.h ****            www.lufa-lib.org
   7:../../../../tmk_core/protocol/lufa/LUFA-git/LUFA/Drivers/USB/Core/AVR8/../AVR8/Endpoint_AVR8.h **** */
   8:../../../../tmk_core/protocol/lufa/LUFA-git/LUFA/Drivers/USB/Core/AVR8/../AVR8/Endpoint_AVR8.h **** 
   9:../../../../tmk_core/protocol/lufa/LUFA-git/LUFA/Drivers/USB/Core/AVR8/../AVR8/Endpoint_AVR8.h **** /*
  10:../../../../tmk_core/protocol/lufa/LUFA-git/LUFA/Drivers/USB/Core/AVR8/../AVR8/Endpoint_AVR8.h ****   Copyright 2014  Dean Camera (dean [at] fourwalledcubicle [dot] com)
  11:../../../../tmk_core/protocol/lufa/LUFA-git/LUFA/Drivers/USB/Core/AVR8/../AVR8/Endpoint_AVR8.h **** 
  12:../../../../tmk_core/protocol/lufa/LUFA-git/LUFA/Drivers/USB/Core/AVR8/../AVR8/Endpoint_AVR8.h ****   Permission to use, copy, modify, distribute, and sell this
  13:../../../../tmk_core/protocol/lufa/LUFA-git/LUFA/Drivers/USB/Core/AVR8/../AVR8/Endpoint_AVR8.h ****   software and its documentation for any purpose is hereby granted
  14:../../../../tmk_core/protocol/lufa/LUFA-git/LUFA/Drivers/USB/Core/AVR8/../AVR8/Endpoint_AVR8.h ****   without fee, provided that the above copyright notice appear in
  15:../../../../tmk_core/protocol/lufa/LUFA-git/LUFA/Drivers/USB/Core/AVR8/../AVR8/Endpoint_AVR8.h ****   all copies and that both that the copyright notice and this
  16:../../../../tmk_core/protocol/lufa/LUFA-git/LUFA/Drivers/USB/Core/AVR8/../AVR8/Endpoint_AVR8.h ****   permission notice and warranty disclaimer appear in supporting
  17:../../../../tmk_core/protocol/lufa/LUFA-git/LUFA/Drivers/USB/Core/AVR8/../AVR8/Endpoint_AVR8.h ****   documentation, and that the name of the author not be used in
  18:../../../../tmk_core/protocol/lufa/LUFA-git/LUFA/Drivers/USB/Core/AVR8/../AVR8/Endpoint_AVR8.h ****   advertising or publicity pertaining to distribution of the
  19:../../../../tmk_core/protocol/lufa/LUFA-git/LUFA/Drivers/USB/Core/AVR8/../AVR8/Endpoint_AVR8.h ****   software without specific, written prior permission.
  20:../../../../tmk_core/protocol/lufa/LUFA-git/LUFA/Drivers/USB/Core/AVR8/../AVR8/Endpoint_AVR8.h **** 
  21:../../../../tmk_core/protocol/lufa/LUFA-git/LUFA/Drivers/USB/Core/AVR8/../AVR8/Endpoint_AVR8.h ****   The author disclaims all warranties with regard to this
  22:../../../../tmk_core/protocol/lufa/LUFA-git/LUFA/Drivers/USB/Core/AVR8/../AVR8/Endpoint_AVR8.h ****   software, including all implied warranties of merchantability
  23:../../../../tmk_core/protocol/lufa/LUFA-git/LUFA/Drivers/USB/Core/AVR8/../AVR8/Endpoint_AVR8.h ****   and fitness.  In no event shall the author be liable for any
  24:../../../../tmk_core/protocol/lufa/LUFA-git/LUFA/Drivers/USB/Core/AVR8/../AVR8/Endpoint_AVR8.h ****   special, indirect or consequential damages or any damages
  25:../../../../tmk_core/protocol/lufa/LUFA-git/LUFA/Drivers/USB/Core/AVR8/../AVR8/Endpoint_AVR8.h ****   whatsoever resulting from loss of use, data or profits, whether
  26:../../../../tmk_core/protocol/lufa/LUFA-git/LUFA/Drivers/USB/Core/AVR8/../AVR8/Endpoint_AVR8.h ****   in an action of contract, negligence or other tortious action,
  27:../../../../tmk_core/protocol/lufa/LUFA-git/LUFA/Drivers/USB/Core/AVR8/../AVR8/Endpoint_AVR8.h ****   arising out of or in connection with the use or performance of
  28:../../../../tmk_core/protocol/lufa/LUFA-git/LUFA/Drivers/USB/Core/AVR8/../AVR8/Endpoint_AVR8.h ****   this software.
  29:../../../../tmk_core/protocol/lufa/LUFA-git/LUFA/Drivers/USB/Core/AVR8/../AVR8/Endpoint_AVR8.h **** */
  30:../../../../tmk_core/protocol/lufa/LUFA-git/LUFA/Drivers/USB/Core/AVR8/../AVR8/Endpoint_AVR8.h **** 
  31:../../../../tmk_core/protocol/lufa/LUFA-git/LUFA/Drivers/USB/Core/AVR8/../AVR8/Endpoint_AVR8.h **** /** \file
  32:../../../../tmk_core/protocol/lufa/LUFA-git/LUFA/Drivers/USB/Core/AVR8/../AVR8/Endpoint_AVR8.h ****  *  \brief USB Endpoint definitions for the AVR8 microcontrollers.
  33:../../../../tmk_core/protocol/lufa/LUFA-git/LUFA/Drivers/USB/Core/AVR8/../AVR8/Endpoint_AVR8.h ****  *  \copydetails Group_EndpointManagement_AVR8
  34:../../../../tmk_core/protocol/lufa/LUFA-git/LUFA/Drivers/USB/Core/AVR8/../AVR8/Endpoint_AVR8.h ****  *
  35:../../../../tmk_core/protocol/lufa/LUFA-git/LUFA/Drivers/USB/Core/AVR8/../AVR8/Endpoint_AVR8.h ****  *  \note This file should not be included directly. It is automatically included as needed by the 
  36:../../../../tmk_core/protocol/lufa/LUFA-git/LUFA/Drivers/USB/Core/AVR8/../AVR8/Endpoint_AVR8.h ****  *        dispatch header located in LUFA/Drivers/USB/USB.h.
  37:../../../../tmk_core/protocol/lufa/LUFA-git/LUFA/Drivers/USB/Core/AVR8/../AVR8/Endpoint_AVR8.h ****  */
  38:../../../../tmk_core/protocol/lufa/LUFA-git/LUFA/Drivers/USB/Core/AVR8/../AVR8/Endpoint_AVR8.h **** 
  39:../../../../tmk_core/protocol/lufa/LUFA-git/LUFA/Drivers/USB/Core/AVR8/../AVR8/Endpoint_AVR8.h **** /** \ingroup Group_EndpointRW
  40:../../../../tmk_core/protocol/lufa/LUFA-git/LUFA/Drivers/USB/Core/AVR8/../AVR8/Endpoint_AVR8.h ****  *  \defgroup Group_EndpointRW_AVR8 Endpoint Data Reading and Writing (AVR8)
  41:../../../../tmk_core/protocol/lufa/LUFA-git/LUFA/Drivers/USB/Core/AVR8/../AVR8/Endpoint_AVR8.h ****  *  \brief Endpoint data read/write definitions for the Atmel AVR8 architecture.
  42:../../../../tmk_core/protocol/lufa/LUFA-git/LUFA/Drivers/USB/Core/AVR8/../AVR8/Endpoint_AVR8.h ****  *
  43:../../../../tmk_core/protocol/lufa/LUFA-git/LUFA/Drivers/USB/Core/AVR8/../AVR8/Endpoint_AVR8.h ****  *  Functions, macros, variables, enums and types related to data reading and writing from and to e
  44:../../../../tmk_core/protocol/lufa/LUFA-git/LUFA/Drivers/USB/Core/AVR8/../AVR8/Endpoint_AVR8.h ****  */
  45:../../../../tmk_core/protocol/lufa/LUFA-git/LUFA/Drivers/USB/Core/AVR8/../AVR8/Endpoint_AVR8.h **** 
  46:../../../../tmk_core/protocol/lufa/LUFA-git/LUFA/Drivers/USB/Core/AVR8/../AVR8/Endpoint_AVR8.h **** /** \ingroup Group_EndpointPrimitiveRW
  47:../../../../tmk_core/protocol/lufa/LUFA-git/LUFA/Drivers/USB/Core/AVR8/../AVR8/Endpoint_AVR8.h ****  *  \defgroup Group_EndpointPrimitiveRW_AVR8 Read/Write of Primitive Data Types (AVR8)
  48:../../../../tmk_core/protocol/lufa/LUFA-git/LUFA/Drivers/USB/Core/AVR8/../AVR8/Endpoint_AVR8.h ****  *  \brief Endpoint primitive read/write definitions for the Atmel AVR8 architecture.
  49:../../../../tmk_core/protocol/lufa/LUFA-git/LUFA/Drivers/USB/Core/AVR8/../AVR8/Endpoint_AVR8.h ****  *
  50:../../../../tmk_core/protocol/lufa/LUFA-git/LUFA/Drivers/USB/Core/AVR8/../AVR8/Endpoint_AVR8.h ****  *  Functions, macros, variables, enums and types related to data reading and writing of primitive 
  51:../../../../tmk_core/protocol/lufa/LUFA-git/LUFA/Drivers/USB/Core/AVR8/../AVR8/Endpoint_AVR8.h ****  *  from and to endpoints.
  52:../../../../tmk_core/protocol/lufa/LUFA-git/LUFA/Drivers/USB/Core/AVR8/../AVR8/Endpoint_AVR8.h ****  */
  53:../../../../tmk_core/protocol/lufa/LUFA-git/LUFA/Drivers/USB/Core/AVR8/../AVR8/Endpoint_AVR8.h **** 
  54:../../../../tmk_core/protocol/lufa/LUFA-git/LUFA/Drivers/USB/Core/AVR8/../AVR8/Endpoint_AVR8.h **** /** \ingroup Group_EndpointPacketManagement
  55:../../../../tmk_core/protocol/lufa/LUFA-git/LUFA/Drivers/USB/Core/AVR8/../AVR8/Endpoint_AVR8.h ****  *  \defgroup Group_EndpointPacketManagement_AVR8 Endpoint Packet Management (AVR8)
  56:../../../../tmk_core/protocol/lufa/LUFA-git/LUFA/Drivers/USB/Core/AVR8/../AVR8/Endpoint_AVR8.h ****  *  \brief Endpoint packet management definitions for the Atmel AVR8 architecture.
  57:../../../../tmk_core/protocol/lufa/LUFA-git/LUFA/Drivers/USB/Core/AVR8/../AVR8/Endpoint_AVR8.h ****  *
  58:../../../../tmk_core/protocol/lufa/LUFA-git/LUFA/Drivers/USB/Core/AVR8/../AVR8/Endpoint_AVR8.h ****  *  Functions, macros, variables, enums and types related to packet management of endpoints.
  59:../../../../tmk_core/protocol/lufa/LUFA-git/LUFA/Drivers/USB/Core/AVR8/../AVR8/Endpoint_AVR8.h ****  */
  60:../../../../tmk_core/protocol/lufa/LUFA-git/LUFA/Drivers/USB/Core/AVR8/../AVR8/Endpoint_AVR8.h **** 
  61:../../../../tmk_core/protocol/lufa/LUFA-git/LUFA/Drivers/USB/Core/AVR8/../AVR8/Endpoint_AVR8.h **** /** \ingroup Group_EndpointManagement
  62:../../../../tmk_core/protocol/lufa/LUFA-git/LUFA/Drivers/USB/Core/AVR8/../AVR8/Endpoint_AVR8.h ****  *  \defgroup Group_EndpointManagement_AVR8 Endpoint Management (AVR8)
  63:../../../../tmk_core/protocol/lufa/LUFA-git/LUFA/Drivers/USB/Core/AVR8/../AVR8/Endpoint_AVR8.h ****  *  \brief Endpoint management definitions for the Atmel AVR8 architecture.
  64:../../../../tmk_core/protocol/lufa/LUFA-git/LUFA/Drivers/USB/Core/AVR8/../AVR8/Endpoint_AVR8.h ****  *
  65:../../../../tmk_core/protocol/lufa/LUFA-git/LUFA/Drivers/USB/Core/AVR8/../AVR8/Endpoint_AVR8.h ****  *  Functions, macros and enums related to endpoint management when in USB Device mode. This
  66:../../../../tmk_core/protocol/lufa/LUFA-git/LUFA/Drivers/USB/Core/AVR8/../AVR8/Endpoint_AVR8.h ****  *  module contains the endpoint management macros, as well as endpoint interrupt and data
  67:../../../../tmk_core/protocol/lufa/LUFA-git/LUFA/Drivers/USB/Core/AVR8/../AVR8/Endpoint_AVR8.h ****  *  send/receive functions for various data types.
  68:../../../../tmk_core/protocol/lufa/LUFA-git/LUFA/Drivers/USB/Core/AVR8/../AVR8/Endpoint_AVR8.h ****  *
  69:../../../../tmk_core/protocol/lufa/LUFA-git/LUFA/Drivers/USB/Core/AVR8/../AVR8/Endpoint_AVR8.h ****  *  @{
  70:../../../../tmk_core/protocol/lufa/LUFA-git/LUFA/Drivers/USB/Core/AVR8/../AVR8/Endpoint_AVR8.h ****  */
  71:../../../../tmk_core/protocol/lufa/LUFA-git/LUFA/Drivers/USB/Core/AVR8/../AVR8/Endpoint_AVR8.h **** 
  72:../../../../tmk_core/protocol/lufa/LUFA-git/LUFA/Drivers/USB/Core/AVR8/../AVR8/Endpoint_AVR8.h **** #ifndef __ENDPOINT_AVR8_H__
  73:../../../../tmk_core/protocol/lufa/LUFA-git/LUFA/Drivers/USB/Core/AVR8/../AVR8/Endpoint_AVR8.h **** #define __ENDPOINT_AVR8_H__
  74:../../../../tmk_core/protocol/lufa/LUFA-git/LUFA/Drivers/USB/Core/AVR8/../AVR8/Endpoint_AVR8.h **** 
  75:../../../../tmk_core/protocol/lufa/LUFA-git/LUFA/Drivers/USB/Core/AVR8/../AVR8/Endpoint_AVR8.h **** 	/* Includes: */
  76:../../../../tmk_core/protocol/lufa/LUFA-git/LUFA/Drivers/USB/Core/AVR8/../AVR8/Endpoint_AVR8.h **** 		#include "../../../../Common/Common.h"
  77:../../../../tmk_core/protocol/lufa/LUFA-git/LUFA/Drivers/USB/Core/AVR8/../AVR8/Endpoint_AVR8.h **** 		#include "../USBTask.h"
  78:../../../../tmk_core/protocol/lufa/LUFA-git/LUFA/Drivers/USB/Core/AVR8/../AVR8/Endpoint_AVR8.h **** 		#include "../USBInterrupt.h"
  79:../../../../tmk_core/protocol/lufa/LUFA-git/LUFA/Drivers/USB/Core/AVR8/../AVR8/Endpoint_AVR8.h **** 
  80:../../../../tmk_core/protocol/lufa/LUFA-git/LUFA/Drivers/USB/Core/AVR8/../AVR8/Endpoint_AVR8.h **** 	/* Enable C linkage for C++ Compilers: */
  81:../../../../tmk_core/protocol/lufa/LUFA-git/LUFA/Drivers/USB/Core/AVR8/../AVR8/Endpoint_AVR8.h **** 		#if defined(__cplusplus)
  82:../../../../tmk_core/protocol/lufa/LUFA-git/LUFA/Drivers/USB/Core/AVR8/../AVR8/Endpoint_AVR8.h **** 			extern "C" {
  83:../../../../tmk_core/protocol/lufa/LUFA-git/LUFA/Drivers/USB/Core/AVR8/../AVR8/Endpoint_AVR8.h **** 		#endif
  84:../../../../tmk_core/protocol/lufa/LUFA-git/LUFA/Drivers/USB/Core/AVR8/../AVR8/Endpoint_AVR8.h **** 
  85:../../../../tmk_core/protocol/lufa/LUFA-git/LUFA/Drivers/USB/Core/AVR8/../AVR8/Endpoint_AVR8.h **** 	/* Preprocessor Checks: */
  86:../../../../tmk_core/protocol/lufa/LUFA-git/LUFA/Drivers/USB/Core/AVR8/../AVR8/Endpoint_AVR8.h **** 		#if !defined(__INCLUDE_FROM_USB_DRIVER)
  87:../../../../tmk_core/protocol/lufa/LUFA-git/LUFA/Drivers/USB/Core/AVR8/../AVR8/Endpoint_AVR8.h **** 			#error Do not include this file directly. Include LUFA/Drivers/USB/USB.h instead.
  88:../../../../tmk_core/protocol/lufa/LUFA-git/LUFA/Drivers/USB/Core/AVR8/../AVR8/Endpoint_AVR8.h **** 		#endif
  89:../../../../tmk_core/protocol/lufa/LUFA-git/LUFA/Drivers/USB/Core/AVR8/../AVR8/Endpoint_AVR8.h **** 
  90:../../../../tmk_core/protocol/lufa/LUFA-git/LUFA/Drivers/USB/Core/AVR8/../AVR8/Endpoint_AVR8.h **** 	/* Private Interface - For use in library only: */
  91:../../../../tmk_core/protocol/lufa/LUFA-git/LUFA/Drivers/USB/Core/AVR8/../AVR8/Endpoint_AVR8.h **** 	#if !defined(__DOXYGEN__)
  92:../../../../tmk_core/protocol/lufa/LUFA-git/LUFA/Drivers/USB/Core/AVR8/../AVR8/Endpoint_AVR8.h **** 		/* Inline Functions: */
  93:../../../../tmk_core/protocol/lufa/LUFA-git/LUFA/Drivers/USB/Core/AVR8/../AVR8/Endpoint_AVR8.h **** 			static inline uint8_t Endpoint_BytesToEPSizeMask(const uint16_t Bytes) ATTR_WARN_UNUSED_RESULT A
  94:../../../../tmk_core/protocol/lufa/LUFA-git/LUFA/Drivers/USB/Core/AVR8/../AVR8/Endpoint_AVR8.h **** 			                                                                       ATTR_ALWAYS_INLINE;
  95:../../../../tmk_core/protocol/lufa/LUFA-git/LUFA/Drivers/USB/Core/AVR8/../AVR8/Endpoint_AVR8.h **** 			static inline uint8_t Endpoint_BytesToEPSizeMask(const uint16_t Bytes)
  96:../../../../tmk_core/protocol/lufa/LUFA-git/LUFA/Drivers/USB/Core/AVR8/../AVR8/Endpoint_AVR8.h **** 			{
  97:../../../../tmk_core/protocol/lufa/LUFA-git/LUFA/Drivers/USB/Core/AVR8/../AVR8/Endpoint_AVR8.h **** 				uint8_t  MaskVal    = 0;
  98:../../../../tmk_core/protocol/lufa/LUFA-git/LUFA/Drivers/USB/Core/AVR8/../AVR8/Endpoint_AVR8.h **** 				uint16_t CheckBytes = 8;
  99:../../../../tmk_core/protocol/lufa/LUFA-git/LUFA/Drivers/USB/Core/AVR8/../AVR8/Endpoint_AVR8.h **** 
 100:../../../../tmk_core/protocol/lufa/LUFA-git/LUFA/Drivers/USB/Core/AVR8/../AVR8/Endpoint_AVR8.h **** 				while (CheckBytes < Bytes)
 101:../../../../tmk_core/protocol/lufa/LUFA-git/LUFA/Drivers/USB/Core/AVR8/../AVR8/Endpoint_AVR8.h **** 				{
 102:../../../../tmk_core/protocol/lufa/LUFA-git/LUFA/Drivers/USB/Core/AVR8/../AVR8/Endpoint_AVR8.h **** 					MaskVal++;
 103:../../../../tmk_core/protocol/lufa/LUFA-git/LUFA/Drivers/USB/Core/AVR8/../AVR8/Endpoint_AVR8.h **** 					CheckBytes <<= 1;
 104:../../../../tmk_core/protocol/lufa/LUFA-git/LUFA/Drivers/USB/Core/AVR8/../AVR8/Endpoint_AVR8.h **** 				}
 105:../../../../tmk_core/protocol/lufa/LUFA-git/LUFA/Drivers/USB/Core/AVR8/../AVR8/Endpoint_AVR8.h **** 
 106:../../../../tmk_core/protocol/lufa/LUFA-git/LUFA/Drivers/USB/Core/AVR8/../AVR8/Endpoint_AVR8.h **** 				return (MaskVal << EPSIZE0);
 107:../../../../tmk_core/protocol/lufa/LUFA-git/LUFA/Drivers/USB/Core/AVR8/../AVR8/Endpoint_AVR8.h **** 			}
 108:../../../../tmk_core/protocol/lufa/LUFA-git/LUFA/Drivers/USB/Core/AVR8/../AVR8/Endpoint_AVR8.h **** 
 109:../../../../tmk_core/protocol/lufa/LUFA-git/LUFA/Drivers/USB/Core/AVR8/../AVR8/Endpoint_AVR8.h **** 		/* Function Prototypes: */
 110:../../../../tmk_core/protocol/lufa/LUFA-git/LUFA/Drivers/USB/Core/AVR8/../AVR8/Endpoint_AVR8.h **** 			void Endpoint_ClearEndpoints(void);
 111:../../../../tmk_core/protocol/lufa/LUFA-git/LUFA/Drivers/USB/Core/AVR8/../AVR8/Endpoint_AVR8.h **** 			bool Endpoint_ConfigureEndpoint_Prv(const uint8_t Number,
 112:../../../../tmk_core/protocol/lufa/LUFA-git/LUFA/Drivers/USB/Core/AVR8/../AVR8/Endpoint_AVR8.h **** 			                                    const uint8_t UECFG0XData,
 113:../../../../tmk_core/protocol/lufa/LUFA-git/LUFA/Drivers/USB/Core/AVR8/../AVR8/Endpoint_AVR8.h **** 			                                    const uint8_t UECFG1XData);
 114:../../../../tmk_core/protocol/lufa/LUFA-git/LUFA/Drivers/USB/Core/AVR8/../AVR8/Endpoint_AVR8.h **** 
 115:../../../../tmk_core/protocol/lufa/LUFA-git/LUFA/Drivers/USB/Core/AVR8/../AVR8/Endpoint_AVR8.h **** 	#endif
 116:../../../../tmk_core/protocol/lufa/LUFA-git/LUFA/Drivers/USB/Core/AVR8/../AVR8/Endpoint_AVR8.h **** 
 117:../../../../tmk_core/protocol/lufa/LUFA-git/LUFA/Drivers/USB/Core/AVR8/../AVR8/Endpoint_AVR8.h **** 	/* Public Interface - May be used in end-application: */
 118:../../../../tmk_core/protocol/lufa/LUFA-git/LUFA/Drivers/USB/Core/AVR8/../AVR8/Endpoint_AVR8.h **** 		/* Macros: */
 119:../../../../tmk_core/protocol/lufa/LUFA-git/LUFA/Drivers/USB/Core/AVR8/../AVR8/Endpoint_AVR8.h **** 			#if (!defined(FIXED_CONTROL_ENDPOINT_SIZE) || defined(__DOXYGEN__))
 120:../../../../tmk_core/protocol/lufa/LUFA-git/LUFA/Drivers/USB/Core/AVR8/../AVR8/Endpoint_AVR8.h **** 				/** Default size of the default control endpoint's bank, until altered by the control endpoint 
 121:../../../../tmk_core/protocol/lufa/LUFA-git/LUFA/Drivers/USB/Core/AVR8/../AVR8/Endpoint_AVR8.h **** 				 *  value in the device descriptor. Not available if the \c FIXED_CONTROL_ENDPOINT_SIZE token i
 122:../../../../tmk_core/protocol/lufa/LUFA-git/LUFA/Drivers/USB/Core/AVR8/../AVR8/Endpoint_AVR8.h **** 				 */
 123:../../../../tmk_core/protocol/lufa/LUFA-git/LUFA/Drivers/USB/Core/AVR8/../AVR8/Endpoint_AVR8.h **** 				#define ENDPOINT_CONTROLEP_DEFAULT_SIZE     8
 124:../../../../tmk_core/protocol/lufa/LUFA-git/LUFA/Drivers/USB/Core/AVR8/../AVR8/Endpoint_AVR8.h **** 			#endif
 125:../../../../tmk_core/protocol/lufa/LUFA-git/LUFA/Drivers/USB/Core/AVR8/../AVR8/Endpoint_AVR8.h **** 
 126:../../../../tmk_core/protocol/lufa/LUFA-git/LUFA/Drivers/USB/Core/AVR8/../AVR8/Endpoint_AVR8.h **** 			#if !defined(CONTROL_ONLY_DEVICE) || defined(__DOXYGEN__)
 127:../../../../tmk_core/protocol/lufa/LUFA-git/LUFA/Drivers/USB/Core/AVR8/../AVR8/Endpoint_AVR8.h **** 				#if defined(USB_SERIES_4_AVR) || defined(USB_SERIES_6_AVR) || defined(USB_SERIES_7_AVR) || defi
 128:../../../../tmk_core/protocol/lufa/LUFA-git/LUFA/Drivers/USB/Core/AVR8/../AVR8/Endpoint_AVR8.h **** 					/** Total number of endpoints (including the default control endpoint at address 0) which may
 129:../../../../tmk_core/protocol/lufa/LUFA-git/LUFA/Drivers/USB/Core/AVR8/../AVR8/Endpoint_AVR8.h **** 					 *  be used in the device. Different USB AVR models support different amounts of endpoints,
 130:../../../../tmk_core/protocol/lufa/LUFA-git/LUFA/Drivers/USB/Core/AVR8/../AVR8/Endpoint_AVR8.h **** 					 *  this value reflects the maximum number of endpoints for the currently selected AVR model.
 131:../../../../tmk_core/protocol/lufa/LUFA-git/LUFA/Drivers/USB/Core/AVR8/../AVR8/Endpoint_AVR8.h **** 					 */
 132:../../../../tmk_core/protocol/lufa/LUFA-git/LUFA/Drivers/USB/Core/AVR8/../AVR8/Endpoint_AVR8.h **** 					#define ENDPOINT_TOTAL_ENDPOINTS        7
 133:../../../../tmk_core/protocol/lufa/LUFA-git/LUFA/Drivers/USB/Core/AVR8/../AVR8/Endpoint_AVR8.h **** 				#else
 134:../../../../tmk_core/protocol/lufa/LUFA-git/LUFA/Drivers/USB/Core/AVR8/../AVR8/Endpoint_AVR8.h **** 					#define ENDPOINT_TOTAL_ENDPOINTS        5
 135:../../../../tmk_core/protocol/lufa/LUFA-git/LUFA/Drivers/USB/Core/AVR8/../AVR8/Endpoint_AVR8.h **** 				#endif
 136:../../../../tmk_core/protocol/lufa/LUFA-git/LUFA/Drivers/USB/Core/AVR8/../AVR8/Endpoint_AVR8.h **** 			#else
 137:../../../../tmk_core/protocol/lufa/LUFA-git/LUFA/Drivers/USB/Core/AVR8/../AVR8/Endpoint_AVR8.h **** 				#define ENDPOINT_TOTAL_ENDPOINTS            1
 138:../../../../tmk_core/protocol/lufa/LUFA-git/LUFA/Drivers/USB/Core/AVR8/../AVR8/Endpoint_AVR8.h **** 			#endif
 139:../../../../tmk_core/protocol/lufa/LUFA-git/LUFA/Drivers/USB/Core/AVR8/../AVR8/Endpoint_AVR8.h **** 
 140:../../../../tmk_core/protocol/lufa/LUFA-git/LUFA/Drivers/USB/Core/AVR8/../AVR8/Endpoint_AVR8.h **** 		/* Enums: */
 141:../../../../tmk_core/protocol/lufa/LUFA-git/LUFA/Drivers/USB/Core/AVR8/../AVR8/Endpoint_AVR8.h **** 			/** Enum for the possible error return codes of the \ref Endpoint_WaitUntilReady() function.
 142:../../../../tmk_core/protocol/lufa/LUFA-git/LUFA/Drivers/USB/Core/AVR8/../AVR8/Endpoint_AVR8.h **** 			 *
 143:../../../../tmk_core/protocol/lufa/LUFA-git/LUFA/Drivers/USB/Core/AVR8/../AVR8/Endpoint_AVR8.h **** 			 *  \ingroup Group_EndpointRW_AVR8
 144:../../../../tmk_core/protocol/lufa/LUFA-git/LUFA/Drivers/USB/Core/AVR8/../AVR8/Endpoint_AVR8.h **** 			 */
 145:../../../../tmk_core/protocol/lufa/LUFA-git/LUFA/Drivers/USB/Core/AVR8/../AVR8/Endpoint_AVR8.h **** 			enum Endpoint_WaitUntilReady_ErrorCodes_t
 146:../../../../tmk_core/protocol/lufa/LUFA-git/LUFA/Drivers/USB/Core/AVR8/../AVR8/Endpoint_AVR8.h **** 			{
 147:../../../../tmk_core/protocol/lufa/LUFA-git/LUFA/Drivers/USB/Core/AVR8/../AVR8/Endpoint_AVR8.h **** 				ENDPOINT_READYWAIT_NoError                 = 0, /**< Endpoint is ready for next packet, no erro
 148:../../../../tmk_core/protocol/lufa/LUFA-git/LUFA/Drivers/USB/Core/AVR8/../AVR8/Endpoint_AVR8.h **** 				ENDPOINT_READYWAIT_EndpointStalled         = 1, /**< The endpoint was stalled during the stream
 149:../../../../tmk_core/protocol/lufa/LUFA-git/LUFA/Drivers/USB/Core/AVR8/../AVR8/Endpoint_AVR8.h **** 				                                                 *   transfer by the host or device.
 150:../../../../tmk_core/protocol/lufa/LUFA-git/LUFA/Drivers/USB/Core/AVR8/../AVR8/Endpoint_AVR8.h **** 				                                                 */
 151:../../../../tmk_core/protocol/lufa/LUFA-git/LUFA/Drivers/USB/Core/AVR8/../AVR8/Endpoint_AVR8.h **** 				ENDPOINT_READYWAIT_DeviceDisconnected      = 2,	/**< Device was disconnected from the host whil
 152:../../../../tmk_core/protocol/lufa/LUFA-git/LUFA/Drivers/USB/Core/AVR8/../AVR8/Endpoint_AVR8.h **** 				                                                 *   waiting for the endpoint to become ready.
 153:../../../../tmk_core/protocol/lufa/LUFA-git/LUFA/Drivers/USB/Core/AVR8/../AVR8/Endpoint_AVR8.h **** 				                                                 */
 154:../../../../tmk_core/protocol/lufa/LUFA-git/LUFA/Drivers/USB/Core/AVR8/../AVR8/Endpoint_AVR8.h **** 				ENDPOINT_READYWAIT_BusSuspended            = 3, /**< The USB bus has been suspended by the host
 155:../../../../tmk_core/protocol/lufa/LUFA-git/LUFA/Drivers/USB/Core/AVR8/../AVR8/Endpoint_AVR8.h **** 				                                                 *   no USB endpoint traffic can occur until th
 156:../../../../tmk_core/protocol/lufa/LUFA-git/LUFA/Drivers/USB/Core/AVR8/../AVR8/Endpoint_AVR8.h **** 				                                                 *   has resumed.
 157:../../../../tmk_core/protocol/lufa/LUFA-git/LUFA/Drivers/USB/Core/AVR8/../AVR8/Endpoint_AVR8.h **** 				                                                 */
 158:../../../../tmk_core/protocol/lufa/LUFA-git/LUFA/Drivers/USB/Core/AVR8/../AVR8/Endpoint_AVR8.h **** 				ENDPOINT_READYWAIT_Timeout                 = 4, /**< The host failed to accept or send the next
 159:../../../../tmk_core/protocol/lufa/LUFA-git/LUFA/Drivers/USB/Core/AVR8/../AVR8/Endpoint_AVR8.h **** 				                                                 *   within the software timeout period set by 
 160:../../../../tmk_core/protocol/lufa/LUFA-git/LUFA/Drivers/USB/Core/AVR8/../AVR8/Endpoint_AVR8.h **** 				                                                 *   \ref USB_STREAM_TIMEOUT_MS macro.
 161:../../../../tmk_core/protocol/lufa/LUFA-git/LUFA/Drivers/USB/Core/AVR8/../AVR8/Endpoint_AVR8.h **** 				                                                 */
 162:../../../../tmk_core/protocol/lufa/LUFA-git/LUFA/Drivers/USB/Core/AVR8/../AVR8/Endpoint_AVR8.h **** 			};
 163:../../../../tmk_core/protocol/lufa/LUFA-git/LUFA/Drivers/USB/Core/AVR8/../AVR8/Endpoint_AVR8.h **** 
 164:../../../../tmk_core/protocol/lufa/LUFA-git/LUFA/Drivers/USB/Core/AVR8/../AVR8/Endpoint_AVR8.h **** 		/* Inline Functions: */
 165:../../../../tmk_core/protocol/lufa/LUFA-git/LUFA/Drivers/USB/Core/AVR8/../AVR8/Endpoint_AVR8.h **** 			/** Configures the specified endpoint address with the given endpoint type, bank size and number
 166:../../../../tmk_core/protocol/lufa/LUFA-git/LUFA/Drivers/USB/Core/AVR8/../AVR8/Endpoint_AVR8.h **** 			 *  banks. Once configured, the endpoint may be read from or written to, depending on its direct
 167:../../../../tmk_core/protocol/lufa/LUFA-git/LUFA/Drivers/USB/Core/AVR8/../AVR8/Endpoint_AVR8.h **** 			 *
 168:../../../../tmk_core/protocol/lufa/LUFA-git/LUFA/Drivers/USB/Core/AVR8/../AVR8/Endpoint_AVR8.h **** 			 *  \param[in] Address    Endpoint address to configure.
 169:../../../../tmk_core/protocol/lufa/LUFA-git/LUFA/Drivers/USB/Core/AVR8/../AVR8/Endpoint_AVR8.h **** 			 *
 170:../../../../tmk_core/protocol/lufa/LUFA-git/LUFA/Drivers/USB/Core/AVR8/../AVR8/Endpoint_AVR8.h **** 			 *  \param[in] Type       Type of endpoint to configure, a \c EP_TYPE_* mask. Not all endpoint t
 171:../../../../tmk_core/protocol/lufa/LUFA-git/LUFA/Drivers/USB/Core/AVR8/../AVR8/Endpoint_AVR8.h **** 			 *                        are available on Low Speed USB devices - refer to the USB 2.0 specific
 172:../../../../tmk_core/protocol/lufa/LUFA-git/LUFA/Drivers/USB/Core/AVR8/../AVR8/Endpoint_AVR8.h **** 			 *
 173:../../../../tmk_core/protocol/lufa/LUFA-git/LUFA/Drivers/USB/Core/AVR8/../AVR8/Endpoint_AVR8.h **** 			 *  \param[in] Size       Size of the endpoint's bank, where packets are stored before they are 
 174:../../../../tmk_core/protocol/lufa/LUFA-git/LUFA/Drivers/USB/Core/AVR8/../AVR8/Endpoint_AVR8.h **** 			 *                        to the USB host, or after they have been received from the USB host (d
 175:../../../../tmk_core/protocol/lufa/LUFA-git/LUFA/Drivers/USB/Core/AVR8/../AVR8/Endpoint_AVR8.h **** 			 *                        the endpoint's data direction). The bank size must indicate the maximu
 176:../../../../tmk_core/protocol/lufa/LUFA-git/LUFA/Drivers/USB/Core/AVR8/../AVR8/Endpoint_AVR8.h **** 			 *                        that the endpoint can handle.
 177:../../../../tmk_core/protocol/lufa/LUFA-git/LUFA/Drivers/USB/Core/AVR8/../AVR8/Endpoint_AVR8.h **** 			 *
 178:../../../../tmk_core/protocol/lufa/LUFA-git/LUFA/Drivers/USB/Core/AVR8/../AVR8/Endpoint_AVR8.h **** 			 *  \param[in] Banks      Number of banks to use for the endpoint being configured.
 179:../../../../tmk_core/protocol/lufa/LUFA-git/LUFA/Drivers/USB/Core/AVR8/../AVR8/Endpoint_AVR8.h **** 			 *
 180:../../../../tmk_core/protocol/lufa/LUFA-git/LUFA/Drivers/USB/Core/AVR8/../AVR8/Endpoint_AVR8.h **** 			 *  \attention When the \c ORDERED_EP_CONFIG compile time option is used, Endpoints <b>must</b> 
 181:../../../../tmk_core/protocol/lufa/LUFA-git/LUFA/Drivers/USB/Core/AVR8/../AVR8/Endpoint_AVR8.h **** 			 *             ascending order, or bank corruption will occur.
 182:../../../../tmk_core/protocol/lufa/LUFA-git/LUFA/Drivers/USB/Core/AVR8/../AVR8/Endpoint_AVR8.h **** 			 *
 183:../../../../tmk_core/protocol/lufa/LUFA-git/LUFA/Drivers/USB/Core/AVR8/../AVR8/Endpoint_AVR8.h **** 			 *  \note Different endpoints may have different maximum packet sizes based on the endpoint's in
 184:../../../../tmk_core/protocol/lufa/LUFA-git/LUFA/Drivers/USB/Core/AVR8/../AVR8/Endpoint_AVR8.h **** 			 *        refer to the chosen microcontroller model's datasheet to determine the maximum bank si
 185:../../../../tmk_core/protocol/lufa/LUFA-git/LUFA/Drivers/USB/Core/AVR8/../AVR8/Endpoint_AVR8.h **** 			 *        \n\n
 186:../../../../tmk_core/protocol/lufa/LUFA-git/LUFA/Drivers/USB/Core/AVR8/../AVR8/Endpoint_AVR8.h **** 			 *
 187:../../../../tmk_core/protocol/lufa/LUFA-git/LUFA/Drivers/USB/Core/AVR8/../AVR8/Endpoint_AVR8.h **** 			 *  \note The default control endpoint should not be manually configured by the user application
 188:../../../../tmk_core/protocol/lufa/LUFA-git/LUFA/Drivers/USB/Core/AVR8/../AVR8/Endpoint_AVR8.h **** 			 *        it is automatically configured by the library internally.
 189:../../../../tmk_core/protocol/lufa/LUFA-git/LUFA/Drivers/USB/Core/AVR8/../AVR8/Endpoint_AVR8.h **** 			 *        \n\n
 190:../../../../tmk_core/protocol/lufa/LUFA-git/LUFA/Drivers/USB/Core/AVR8/../AVR8/Endpoint_AVR8.h **** 			 *
 191:../../../../tmk_core/protocol/lufa/LUFA-git/LUFA/Drivers/USB/Core/AVR8/../AVR8/Endpoint_AVR8.h **** 			 *  \note This routine will automatically select the specified endpoint upon success. Upon failu
 192:../../../../tmk_core/protocol/lufa/LUFA-git/LUFA/Drivers/USB/Core/AVR8/../AVR8/Endpoint_AVR8.h **** 			 *        which failed to reconfigure correctly will be selected.
 193:../../../../tmk_core/protocol/lufa/LUFA-git/LUFA/Drivers/USB/Core/AVR8/../AVR8/Endpoint_AVR8.h **** 			 *
 194:../../../../tmk_core/protocol/lufa/LUFA-git/LUFA/Drivers/USB/Core/AVR8/../AVR8/Endpoint_AVR8.h **** 			 *  \return Boolean \c true if the configuration succeeded, \c false otherwise.
 195:../../../../tmk_core/protocol/lufa/LUFA-git/LUFA/Drivers/USB/Core/AVR8/../AVR8/Endpoint_AVR8.h **** 			 */
 196:../../../../tmk_core/protocol/lufa/LUFA-git/LUFA/Drivers/USB/Core/AVR8/../AVR8/Endpoint_AVR8.h **** 			static inline bool Endpoint_ConfigureEndpoint(const uint8_t Address,
 197:../../../../tmk_core/protocol/lufa/LUFA-git/LUFA/Drivers/USB/Core/AVR8/../AVR8/Endpoint_AVR8.h **** 			                                              const uint8_t Type,
 198:../../../../tmk_core/protocol/lufa/LUFA-git/LUFA/Drivers/USB/Core/AVR8/../AVR8/Endpoint_AVR8.h **** 			                                              const uint16_t Size,
 199:../../../../tmk_core/protocol/lufa/LUFA-git/LUFA/Drivers/USB/Core/AVR8/../AVR8/Endpoint_AVR8.h **** 			                                              const uint8_t Banks) ATTR_ALWAYS_INLINE;
 200:../../../../tmk_core/protocol/lufa/LUFA-git/LUFA/Drivers/USB/Core/AVR8/../AVR8/Endpoint_AVR8.h **** 			static inline bool Endpoint_ConfigureEndpoint(const uint8_t Address,
 201:../../../../tmk_core/protocol/lufa/LUFA-git/LUFA/Drivers/USB/Core/AVR8/../AVR8/Endpoint_AVR8.h **** 			                                              const uint8_t Type,
 202:../../../../tmk_core/protocol/lufa/LUFA-git/LUFA/Drivers/USB/Core/AVR8/../AVR8/Endpoint_AVR8.h **** 			                                              const uint16_t Size,
 203:../../../../tmk_core/protocol/lufa/LUFA-git/LUFA/Drivers/USB/Core/AVR8/../AVR8/Endpoint_AVR8.h **** 			                                              const uint8_t Banks)
 204:../../../../tmk_core/protocol/lufa/LUFA-git/LUFA/Drivers/USB/Core/AVR8/../AVR8/Endpoint_AVR8.h **** 			{
 205:../../../../tmk_core/protocol/lufa/LUFA-git/LUFA/Drivers/USB/Core/AVR8/../AVR8/Endpoint_AVR8.h **** 				uint8_t Number = (Address & ENDPOINT_EPNUM_MASK);
 206:../../../../tmk_core/protocol/lufa/LUFA-git/LUFA/Drivers/USB/Core/AVR8/../AVR8/Endpoint_AVR8.h **** 
 207:../../../../tmk_core/protocol/lufa/LUFA-git/LUFA/Drivers/USB/Core/AVR8/../AVR8/Endpoint_AVR8.h **** 				if (Number >= ENDPOINT_TOTAL_ENDPOINTS)
 208:../../../../tmk_core/protocol/lufa/LUFA-git/LUFA/Drivers/USB/Core/AVR8/../AVR8/Endpoint_AVR8.h **** 				  return false;
 209:../../../../tmk_core/protocol/lufa/LUFA-git/LUFA/Drivers/USB/Core/AVR8/../AVR8/Endpoint_AVR8.h **** 
 210:../../../../tmk_core/protocol/lufa/LUFA-git/LUFA/Drivers/USB/Core/AVR8/../AVR8/Endpoint_AVR8.h **** 				return Endpoint_ConfigureEndpoint_Prv(Number,
 211:../../../../tmk_core/protocol/lufa/LUFA-git/LUFA/Drivers/USB/Core/AVR8/../AVR8/Endpoint_AVR8.h **** 				                                      ((Type << EPTYPE0) | ((Address & ENDPOINT_DIR_IN) ? (1 <<
 212:../../../../tmk_core/protocol/lufa/LUFA-git/LUFA/Drivers/USB/Core/AVR8/../AVR8/Endpoint_AVR8.h **** 				                                      ((1 << ALLOC) | ((Banks > 1) ? (1 << EPBK0) : 0) | Endpoi
 213:../../../../tmk_core/protocol/lufa/LUFA-git/LUFA/Drivers/USB/Core/AVR8/../AVR8/Endpoint_AVR8.h **** 			}
 214:../../../../tmk_core/protocol/lufa/LUFA-git/LUFA/Drivers/USB/Core/AVR8/../AVR8/Endpoint_AVR8.h **** 
 215:../../../../tmk_core/protocol/lufa/LUFA-git/LUFA/Drivers/USB/Core/AVR8/../AVR8/Endpoint_AVR8.h **** 			/** Indicates the number of bytes currently stored in the current endpoint's selected bank.
 216:../../../../tmk_core/protocol/lufa/LUFA-git/LUFA/Drivers/USB/Core/AVR8/../AVR8/Endpoint_AVR8.h **** 			 *
 217:../../../../tmk_core/protocol/lufa/LUFA-git/LUFA/Drivers/USB/Core/AVR8/../AVR8/Endpoint_AVR8.h **** 			 *  \ingroup Group_EndpointRW_AVR8
 218:../../../../tmk_core/protocol/lufa/LUFA-git/LUFA/Drivers/USB/Core/AVR8/../AVR8/Endpoint_AVR8.h **** 			 *
 219:../../../../tmk_core/protocol/lufa/LUFA-git/LUFA/Drivers/USB/Core/AVR8/../AVR8/Endpoint_AVR8.h **** 			 *  \return Total number of bytes in the currently selected Endpoint's FIFO buffer.
 220:../../../../tmk_core/protocol/lufa/LUFA-git/LUFA/Drivers/USB/Core/AVR8/../AVR8/Endpoint_AVR8.h **** 			 */
 221:../../../../tmk_core/protocol/lufa/LUFA-git/LUFA/Drivers/USB/Core/AVR8/../AVR8/Endpoint_AVR8.h **** 			static inline uint16_t Endpoint_BytesInEndpoint(void) ATTR_WARN_UNUSED_RESULT ATTR_ALWAYS_INLINE
 222:../../../../tmk_core/protocol/lufa/LUFA-git/LUFA/Drivers/USB/Core/AVR8/../AVR8/Endpoint_AVR8.h **** 			static inline uint16_t Endpoint_BytesInEndpoint(void)
 223:../../../../tmk_core/protocol/lufa/LUFA-git/LUFA/Drivers/USB/Core/AVR8/../AVR8/Endpoint_AVR8.h **** 			{
 224:../../../../tmk_core/protocol/lufa/LUFA-git/LUFA/Drivers/USB/Core/AVR8/../AVR8/Endpoint_AVR8.h **** 				#if (defined(USB_SERIES_6_AVR) || defined(USB_SERIES_7_AVR))
 225:../../../../tmk_core/protocol/lufa/LUFA-git/LUFA/Drivers/USB/Core/AVR8/../AVR8/Endpoint_AVR8.h **** 					return UEBCX;
 226:../../../../tmk_core/protocol/lufa/LUFA-git/LUFA/Drivers/USB/Core/AVR8/../AVR8/Endpoint_AVR8.h **** 				#elif defined(USB_SERIES_4_AVR)
 227:../../../../tmk_core/protocol/lufa/LUFA-git/LUFA/Drivers/USB/Core/AVR8/../AVR8/Endpoint_AVR8.h **** 					return (((uint16_t)UEBCHX << 8) | UEBCLX);
 228:../../../../tmk_core/protocol/lufa/LUFA-git/LUFA/Drivers/USB/Core/AVR8/../AVR8/Endpoint_AVR8.h **** 				#elif defined(USB_SERIES_2_AVR)
 229:../../../../tmk_core/protocol/lufa/LUFA-git/LUFA/Drivers/USB/Core/AVR8/../AVR8/Endpoint_AVR8.h **** 					return UEBCLX;
 230:../../../../tmk_core/protocol/lufa/LUFA-git/LUFA/Drivers/USB/Core/AVR8/../AVR8/Endpoint_AVR8.h **** 				#endif
 231:../../../../tmk_core/protocol/lufa/LUFA-git/LUFA/Drivers/USB/Core/AVR8/../AVR8/Endpoint_AVR8.h **** 			}
 232:../../../../tmk_core/protocol/lufa/LUFA-git/LUFA/Drivers/USB/Core/AVR8/../AVR8/Endpoint_AVR8.h **** 
 233:../../../../tmk_core/protocol/lufa/LUFA-git/LUFA/Drivers/USB/Core/AVR8/../AVR8/Endpoint_AVR8.h **** 			/** Determines the currently selected endpoint's direction.
 234:../../../../tmk_core/protocol/lufa/LUFA-git/LUFA/Drivers/USB/Core/AVR8/../AVR8/Endpoint_AVR8.h **** 			 *
 235:../../../../tmk_core/protocol/lufa/LUFA-git/LUFA/Drivers/USB/Core/AVR8/../AVR8/Endpoint_AVR8.h **** 			 *  \return The currently selected endpoint's direction, as a \c ENDPOINT_DIR_* mask.
 236:../../../../tmk_core/protocol/lufa/LUFA-git/LUFA/Drivers/USB/Core/AVR8/../AVR8/Endpoint_AVR8.h **** 			 */
 237:../../../../tmk_core/protocol/lufa/LUFA-git/LUFA/Drivers/USB/Core/AVR8/../AVR8/Endpoint_AVR8.h **** 			static inline uint8_t Endpoint_GetEndpointDirection(void) ATTR_WARN_UNUSED_RESULT ATTR_ALWAYS_IN
 238:../../../../tmk_core/protocol/lufa/LUFA-git/LUFA/Drivers/USB/Core/AVR8/../AVR8/Endpoint_AVR8.h **** 			static inline uint8_t Endpoint_GetEndpointDirection(void)
 239:../../../../tmk_core/protocol/lufa/LUFA-git/LUFA/Drivers/USB/Core/AVR8/../AVR8/Endpoint_AVR8.h **** 			{
 240:../../../../tmk_core/protocol/lufa/LUFA-git/LUFA/Drivers/USB/Core/AVR8/../AVR8/Endpoint_AVR8.h **** 				return (UECFG0X & (1 << EPDIR)) ? ENDPOINT_DIR_IN : ENDPOINT_DIR_OUT;
 241:../../../../tmk_core/protocol/lufa/LUFA-git/LUFA/Drivers/USB/Core/AVR8/../AVR8/Endpoint_AVR8.h **** 			}
 242:../../../../tmk_core/protocol/lufa/LUFA-git/LUFA/Drivers/USB/Core/AVR8/../AVR8/Endpoint_AVR8.h **** 
 243:../../../../tmk_core/protocol/lufa/LUFA-git/LUFA/Drivers/USB/Core/AVR8/../AVR8/Endpoint_AVR8.h **** 			/** Get the endpoint address of the currently selected endpoint. This is typically used to save
 244:../../../../tmk_core/protocol/lufa/LUFA-git/LUFA/Drivers/USB/Core/AVR8/../AVR8/Endpoint_AVR8.h **** 			 *  the currently selected endpoint so that it can be restored after another endpoint has been
 245:../../../../tmk_core/protocol/lufa/LUFA-git/LUFA/Drivers/USB/Core/AVR8/../AVR8/Endpoint_AVR8.h **** 			 *  manipulated.
 246:../../../../tmk_core/protocol/lufa/LUFA-git/LUFA/Drivers/USB/Core/AVR8/../AVR8/Endpoint_AVR8.h **** 			 *
 247:../../../../tmk_core/protocol/lufa/LUFA-git/LUFA/Drivers/USB/Core/AVR8/../AVR8/Endpoint_AVR8.h **** 			 *  \return Index of the currently selected endpoint.
 248:../../../../tmk_core/protocol/lufa/LUFA-git/LUFA/Drivers/USB/Core/AVR8/../AVR8/Endpoint_AVR8.h **** 			 */
 249:../../../../tmk_core/protocol/lufa/LUFA-git/LUFA/Drivers/USB/Core/AVR8/../AVR8/Endpoint_AVR8.h **** 			static inline uint8_t Endpoint_GetCurrentEndpoint(void) ATTR_WARN_UNUSED_RESULT ATTR_ALWAYS_INLI
 250:../../../../tmk_core/protocol/lufa/LUFA-git/LUFA/Drivers/USB/Core/AVR8/../AVR8/Endpoint_AVR8.h **** 			static inline uint8_t Endpoint_GetCurrentEndpoint(void)
 251:../../../../tmk_core/protocol/lufa/LUFA-git/LUFA/Drivers/USB/Core/AVR8/../AVR8/Endpoint_AVR8.h **** 			{
 252:../../../../tmk_core/protocol/lufa/LUFA-git/LUFA/Drivers/USB/Core/AVR8/../AVR8/Endpoint_AVR8.h **** 				#if !defined(CONTROL_ONLY_DEVICE)
 253:../../../../tmk_core/protocol/lufa/LUFA-git/LUFA/Drivers/USB/Core/AVR8/../AVR8/Endpoint_AVR8.h **** 					return ((UENUM & ENDPOINT_EPNUM_MASK) | Endpoint_GetEndpointDirection());
 254:../../../../tmk_core/protocol/lufa/LUFA-git/LUFA/Drivers/USB/Core/AVR8/../AVR8/Endpoint_AVR8.h **** 				#else
 255:../../../../tmk_core/protocol/lufa/LUFA-git/LUFA/Drivers/USB/Core/AVR8/../AVR8/Endpoint_AVR8.h **** 					return ENDPOINT_CONTROLEP;
 256:../../../../tmk_core/protocol/lufa/LUFA-git/LUFA/Drivers/USB/Core/AVR8/../AVR8/Endpoint_AVR8.h **** 				#endif
 257:../../../../tmk_core/protocol/lufa/LUFA-git/LUFA/Drivers/USB/Core/AVR8/../AVR8/Endpoint_AVR8.h **** 			}
 258:../../../../tmk_core/protocol/lufa/LUFA-git/LUFA/Drivers/USB/Core/AVR8/../AVR8/Endpoint_AVR8.h **** 
 259:../../../../tmk_core/protocol/lufa/LUFA-git/LUFA/Drivers/USB/Core/AVR8/../AVR8/Endpoint_AVR8.h **** 			/** Selects the given endpoint address.
 260:../../../../tmk_core/protocol/lufa/LUFA-git/LUFA/Drivers/USB/Core/AVR8/../AVR8/Endpoint_AVR8.h **** 			 *
 261:../../../../tmk_core/protocol/lufa/LUFA-git/LUFA/Drivers/USB/Core/AVR8/../AVR8/Endpoint_AVR8.h **** 			 *  Any endpoint operations which do not require the endpoint address to be indicated will opera
 262:../../../../tmk_core/protocol/lufa/LUFA-git/LUFA/Drivers/USB/Core/AVR8/../AVR8/Endpoint_AVR8.h **** 			 *  the currently selected endpoint.
 263:../../../../tmk_core/protocol/lufa/LUFA-git/LUFA/Drivers/USB/Core/AVR8/../AVR8/Endpoint_AVR8.h **** 			 *
 264:../../../../tmk_core/protocol/lufa/LUFA-git/LUFA/Drivers/USB/Core/AVR8/../AVR8/Endpoint_AVR8.h **** 			 *  \param[in] Address Endpoint address to select.
 265:../../../../tmk_core/protocol/lufa/LUFA-git/LUFA/Drivers/USB/Core/AVR8/../AVR8/Endpoint_AVR8.h **** 			 */
 266:../../../../tmk_core/protocol/lufa/LUFA-git/LUFA/Drivers/USB/Core/AVR8/../AVR8/Endpoint_AVR8.h **** 			static inline void Endpoint_SelectEndpoint(const uint8_t Address) ATTR_ALWAYS_INLINE;
 267:../../../../tmk_core/protocol/lufa/LUFA-git/LUFA/Drivers/USB/Core/AVR8/../AVR8/Endpoint_AVR8.h **** 			static inline void Endpoint_SelectEndpoint(const uint8_t Address)
 268:../../../../tmk_core/protocol/lufa/LUFA-git/LUFA/Drivers/USB/Core/AVR8/../AVR8/Endpoint_AVR8.h **** 			{
 269:../../../../tmk_core/protocol/lufa/LUFA-git/LUFA/Drivers/USB/Core/AVR8/../AVR8/Endpoint_AVR8.h **** 				#if !defined(CONTROL_ONLY_DEVICE)
 270:../../../../tmk_core/protocol/lufa/LUFA-git/LUFA/Drivers/USB/Core/AVR8/../AVR8/Endpoint_AVR8.h **** 					UENUM = (Address & ENDPOINT_EPNUM_MASK);
 271:../../../../tmk_core/protocol/lufa/LUFA-git/LUFA/Drivers/USB/Core/AVR8/../AVR8/Endpoint_AVR8.h **** 				#endif
 272:../../../../tmk_core/protocol/lufa/LUFA-git/LUFA/Drivers/USB/Core/AVR8/../AVR8/Endpoint_AVR8.h **** 			}
 273:../../../../tmk_core/protocol/lufa/LUFA-git/LUFA/Drivers/USB/Core/AVR8/../AVR8/Endpoint_AVR8.h **** 
 274:../../../../tmk_core/protocol/lufa/LUFA-git/LUFA/Drivers/USB/Core/AVR8/../AVR8/Endpoint_AVR8.h **** 			/** Resets the endpoint bank FIFO. This clears all the endpoint banks and resets the USB control
 275:../../../../tmk_core/protocol/lufa/LUFA-git/LUFA/Drivers/USB/Core/AVR8/../AVR8/Endpoint_AVR8.h **** 			 *  data In and Out pointers to the bank's contents.
 276:../../../../tmk_core/protocol/lufa/LUFA-git/LUFA/Drivers/USB/Core/AVR8/../AVR8/Endpoint_AVR8.h **** 			 *
 277:../../../../tmk_core/protocol/lufa/LUFA-git/LUFA/Drivers/USB/Core/AVR8/../AVR8/Endpoint_AVR8.h **** 			 *  \param[in] Address  Endpoint address whose FIFO buffers are to be reset.
 278:../../../../tmk_core/protocol/lufa/LUFA-git/LUFA/Drivers/USB/Core/AVR8/../AVR8/Endpoint_AVR8.h **** 			 */
 279:../../../../tmk_core/protocol/lufa/LUFA-git/LUFA/Drivers/USB/Core/AVR8/../AVR8/Endpoint_AVR8.h **** 			static inline void Endpoint_ResetEndpoint(const uint8_t Address) ATTR_ALWAYS_INLINE;
 280:../../../../tmk_core/protocol/lufa/LUFA-git/LUFA/Drivers/USB/Core/AVR8/../AVR8/Endpoint_AVR8.h **** 			static inline void Endpoint_ResetEndpoint(const uint8_t Address)
 281:../../../../tmk_core/protocol/lufa/LUFA-git/LUFA/Drivers/USB/Core/AVR8/../AVR8/Endpoint_AVR8.h **** 			{
 282:../../../../tmk_core/protocol/lufa/LUFA-git/LUFA/Drivers/USB/Core/AVR8/../AVR8/Endpoint_AVR8.h **** 				UERST = (1 << (Address & ENDPOINT_EPNUM_MASK));
 283:../../../../tmk_core/protocol/lufa/LUFA-git/LUFA/Drivers/USB/Core/AVR8/../AVR8/Endpoint_AVR8.h **** 				UERST = 0;
 284:../../../../tmk_core/protocol/lufa/LUFA-git/LUFA/Drivers/USB/Core/AVR8/../AVR8/Endpoint_AVR8.h **** 			}
 285:../../../../tmk_core/protocol/lufa/LUFA-git/LUFA/Drivers/USB/Core/AVR8/../AVR8/Endpoint_AVR8.h **** 
 286:../../../../tmk_core/protocol/lufa/LUFA-git/LUFA/Drivers/USB/Core/AVR8/../AVR8/Endpoint_AVR8.h **** 			/** Enables the currently selected endpoint so that data can be sent and received through it to
 287:../../../../tmk_core/protocol/lufa/LUFA-git/LUFA/Drivers/USB/Core/AVR8/../AVR8/Endpoint_AVR8.h **** 			 *  and from a host.
 288:../../../../tmk_core/protocol/lufa/LUFA-git/LUFA/Drivers/USB/Core/AVR8/../AVR8/Endpoint_AVR8.h **** 			 *
 289:../../../../tmk_core/protocol/lufa/LUFA-git/LUFA/Drivers/USB/Core/AVR8/../AVR8/Endpoint_AVR8.h **** 			 *  \note Endpoints must first be configured properly via \ref Endpoint_ConfigureEndpoint().
 290:../../../../tmk_core/protocol/lufa/LUFA-git/LUFA/Drivers/USB/Core/AVR8/../AVR8/Endpoint_AVR8.h **** 			 */
 291:../../../../tmk_core/protocol/lufa/LUFA-git/LUFA/Drivers/USB/Core/AVR8/../AVR8/Endpoint_AVR8.h **** 			static inline void Endpoint_EnableEndpoint(void) ATTR_ALWAYS_INLINE;
 292:../../../../tmk_core/protocol/lufa/LUFA-git/LUFA/Drivers/USB/Core/AVR8/../AVR8/Endpoint_AVR8.h **** 			static inline void Endpoint_EnableEndpoint(void)
 293:../../../../tmk_core/protocol/lufa/LUFA-git/LUFA/Drivers/USB/Core/AVR8/../AVR8/Endpoint_AVR8.h **** 			{
 294:../../../../tmk_core/protocol/lufa/LUFA-git/LUFA/Drivers/USB/Core/AVR8/../AVR8/Endpoint_AVR8.h **** 				UECONX |= (1 << EPEN);
 295:../../../../tmk_core/protocol/lufa/LUFA-git/LUFA/Drivers/USB/Core/AVR8/../AVR8/Endpoint_AVR8.h **** 			}
 296:../../../../tmk_core/protocol/lufa/LUFA-git/LUFA/Drivers/USB/Core/AVR8/../AVR8/Endpoint_AVR8.h **** 
 297:../../../../tmk_core/protocol/lufa/LUFA-git/LUFA/Drivers/USB/Core/AVR8/../AVR8/Endpoint_AVR8.h **** 			/** Disables the currently selected endpoint so that data cannot be sent and received through it
 298:../../../../tmk_core/protocol/lufa/LUFA-git/LUFA/Drivers/USB/Core/AVR8/../AVR8/Endpoint_AVR8.h **** 			 *  to and from a host.
 299:../../../../tmk_core/protocol/lufa/LUFA-git/LUFA/Drivers/USB/Core/AVR8/../AVR8/Endpoint_AVR8.h **** 			 */
 300:../../../../tmk_core/protocol/lufa/LUFA-git/LUFA/Drivers/USB/Core/AVR8/../AVR8/Endpoint_AVR8.h **** 			static inline void Endpoint_DisableEndpoint(void) ATTR_ALWAYS_INLINE;
 301:../../../../tmk_core/protocol/lufa/LUFA-git/LUFA/Drivers/USB/Core/AVR8/../AVR8/Endpoint_AVR8.h **** 			static inline void Endpoint_DisableEndpoint(void)
 302:../../../../tmk_core/protocol/lufa/LUFA-git/LUFA/Drivers/USB/Core/AVR8/../AVR8/Endpoint_AVR8.h **** 			{
 303:../../../../tmk_core/protocol/lufa/LUFA-git/LUFA/Drivers/USB/Core/AVR8/../AVR8/Endpoint_AVR8.h **** 				UECONX &= ~(1 << EPEN);
 304:../../../../tmk_core/protocol/lufa/LUFA-git/LUFA/Drivers/USB/Core/AVR8/../AVR8/Endpoint_AVR8.h **** 			}
 305:../../../../tmk_core/protocol/lufa/LUFA-git/LUFA/Drivers/USB/Core/AVR8/../AVR8/Endpoint_AVR8.h **** 
 306:../../../../tmk_core/protocol/lufa/LUFA-git/LUFA/Drivers/USB/Core/AVR8/../AVR8/Endpoint_AVR8.h **** 			/** Determines if the currently selected endpoint is enabled, but not necessarily configured.
 307:../../../../tmk_core/protocol/lufa/LUFA-git/LUFA/Drivers/USB/Core/AVR8/../AVR8/Endpoint_AVR8.h **** 			 *
 308:../../../../tmk_core/protocol/lufa/LUFA-git/LUFA/Drivers/USB/Core/AVR8/../AVR8/Endpoint_AVR8.h **** 			 * \return Boolean \c true if the currently selected endpoint is enabled, \c false otherwise.
 309:../../../../tmk_core/protocol/lufa/LUFA-git/LUFA/Drivers/USB/Core/AVR8/../AVR8/Endpoint_AVR8.h **** 			 */
 310:../../../../tmk_core/protocol/lufa/LUFA-git/LUFA/Drivers/USB/Core/AVR8/../AVR8/Endpoint_AVR8.h **** 			static inline bool Endpoint_IsEnabled(void) ATTR_WARN_UNUSED_RESULT ATTR_ALWAYS_INLINE;
 311:../../../../tmk_core/protocol/lufa/LUFA-git/LUFA/Drivers/USB/Core/AVR8/../AVR8/Endpoint_AVR8.h **** 			static inline bool Endpoint_IsEnabled(void)
 312:../../../../tmk_core/protocol/lufa/LUFA-git/LUFA/Drivers/USB/Core/AVR8/../AVR8/Endpoint_AVR8.h **** 			{
 313:../../../../tmk_core/protocol/lufa/LUFA-git/LUFA/Drivers/USB/Core/AVR8/../AVR8/Endpoint_AVR8.h **** 				return ((UECONX & (1 << EPEN)) ? true : false);
 314:../../../../tmk_core/protocol/lufa/LUFA-git/LUFA/Drivers/USB/Core/AVR8/../AVR8/Endpoint_AVR8.h **** 			}
 315:../../../../tmk_core/protocol/lufa/LUFA-git/LUFA/Drivers/USB/Core/AVR8/../AVR8/Endpoint_AVR8.h **** 
 316:../../../../tmk_core/protocol/lufa/LUFA-git/LUFA/Drivers/USB/Core/AVR8/../AVR8/Endpoint_AVR8.h **** 			/** Retrieves the number of busy banks in the currently selected endpoint, which have been queue
 317:../../../../tmk_core/protocol/lufa/LUFA-git/LUFA/Drivers/USB/Core/AVR8/../AVR8/Endpoint_AVR8.h **** 			 *  transmission via the \ref Endpoint_ClearIN() command, or are awaiting acknowledgment via the
 318:../../../../tmk_core/protocol/lufa/LUFA-git/LUFA/Drivers/USB/Core/AVR8/../AVR8/Endpoint_AVR8.h **** 			 *  \ref Endpoint_ClearOUT() command.
 319:../../../../tmk_core/protocol/lufa/LUFA-git/LUFA/Drivers/USB/Core/AVR8/../AVR8/Endpoint_AVR8.h **** 			 *
 320:../../../../tmk_core/protocol/lufa/LUFA-git/LUFA/Drivers/USB/Core/AVR8/../AVR8/Endpoint_AVR8.h **** 			 *  \ingroup Group_EndpointPacketManagement_AVR8
 321:../../../../tmk_core/protocol/lufa/LUFA-git/LUFA/Drivers/USB/Core/AVR8/../AVR8/Endpoint_AVR8.h **** 			 *
 322:../../../../tmk_core/protocol/lufa/LUFA-git/LUFA/Drivers/USB/Core/AVR8/../AVR8/Endpoint_AVR8.h **** 			 *  \return Total number of busy banks in the selected endpoint.
 323:../../../../tmk_core/protocol/lufa/LUFA-git/LUFA/Drivers/USB/Core/AVR8/../AVR8/Endpoint_AVR8.h **** 			 */
 324:../../../../tmk_core/protocol/lufa/LUFA-git/LUFA/Drivers/USB/Core/AVR8/../AVR8/Endpoint_AVR8.h **** 			static inline uint8_t Endpoint_GetBusyBanks(void) ATTR_ALWAYS_INLINE ATTR_WARN_UNUSED_RESULT;
 325:../../../../tmk_core/protocol/lufa/LUFA-git/LUFA/Drivers/USB/Core/AVR8/../AVR8/Endpoint_AVR8.h **** 			static inline uint8_t Endpoint_GetBusyBanks(void)
 326:../../../../tmk_core/protocol/lufa/LUFA-git/LUFA/Drivers/USB/Core/AVR8/../AVR8/Endpoint_AVR8.h **** 			{
 327:../../../../tmk_core/protocol/lufa/LUFA-git/LUFA/Drivers/USB/Core/AVR8/../AVR8/Endpoint_AVR8.h **** 				return (UESTA0X & (0x03 << NBUSYBK0));
 328:../../../../tmk_core/protocol/lufa/LUFA-git/LUFA/Drivers/USB/Core/AVR8/../AVR8/Endpoint_AVR8.h **** 			}
 329:../../../../tmk_core/protocol/lufa/LUFA-git/LUFA/Drivers/USB/Core/AVR8/../AVR8/Endpoint_AVR8.h **** 
 330:../../../../tmk_core/protocol/lufa/LUFA-git/LUFA/Drivers/USB/Core/AVR8/../AVR8/Endpoint_AVR8.h **** 			/** Aborts all pending IN transactions on the currently selected endpoint, once the bank
 331:../../../../tmk_core/protocol/lufa/LUFA-git/LUFA/Drivers/USB/Core/AVR8/../AVR8/Endpoint_AVR8.h **** 			 *  has been queued for transmission to the host via \ref Endpoint_ClearIN(). This function
 332:../../../../tmk_core/protocol/lufa/LUFA-git/LUFA/Drivers/USB/Core/AVR8/../AVR8/Endpoint_AVR8.h **** 			 *  will terminate all queued transactions, resetting the endpoint banks ready for a new
 333:../../../../tmk_core/protocol/lufa/LUFA-git/LUFA/Drivers/USB/Core/AVR8/../AVR8/Endpoint_AVR8.h **** 			 *  packet.
 334:../../../../tmk_core/protocol/lufa/LUFA-git/LUFA/Drivers/USB/Core/AVR8/../AVR8/Endpoint_AVR8.h **** 			 *
 335:../../../../tmk_core/protocol/lufa/LUFA-git/LUFA/Drivers/USB/Core/AVR8/../AVR8/Endpoint_AVR8.h **** 			 *  \ingroup Group_EndpointPacketManagement_AVR8
 336:../../../../tmk_core/protocol/lufa/LUFA-git/LUFA/Drivers/USB/Core/AVR8/../AVR8/Endpoint_AVR8.h **** 			 */
 337:../../../../tmk_core/protocol/lufa/LUFA-git/LUFA/Drivers/USB/Core/AVR8/../AVR8/Endpoint_AVR8.h **** 			static inline void Endpoint_AbortPendingIN(void)
 338:../../../../tmk_core/protocol/lufa/LUFA-git/LUFA/Drivers/USB/Core/AVR8/../AVR8/Endpoint_AVR8.h **** 			{
 339:../../../../tmk_core/protocol/lufa/LUFA-git/LUFA/Drivers/USB/Core/AVR8/../AVR8/Endpoint_AVR8.h **** 				while (Endpoint_GetBusyBanks() != 0)
 340:../../../../tmk_core/protocol/lufa/LUFA-git/LUFA/Drivers/USB/Core/AVR8/../AVR8/Endpoint_AVR8.h **** 				{
 341:../../../../tmk_core/protocol/lufa/LUFA-git/LUFA/Drivers/USB/Core/AVR8/../AVR8/Endpoint_AVR8.h **** 					UEINTX |= (1 << RXOUTI);
 342:../../../../tmk_core/protocol/lufa/LUFA-git/LUFA/Drivers/USB/Core/AVR8/../AVR8/Endpoint_AVR8.h **** 					while (UEINTX & (1 << RXOUTI));
 343:../../../../tmk_core/protocol/lufa/LUFA-git/LUFA/Drivers/USB/Core/AVR8/../AVR8/Endpoint_AVR8.h **** 				}
 344:../../../../tmk_core/protocol/lufa/LUFA-git/LUFA/Drivers/USB/Core/AVR8/../AVR8/Endpoint_AVR8.h **** 			}
 345:../../../../tmk_core/protocol/lufa/LUFA-git/LUFA/Drivers/USB/Core/AVR8/../AVR8/Endpoint_AVR8.h **** 
 346:../../../../tmk_core/protocol/lufa/LUFA-git/LUFA/Drivers/USB/Core/AVR8/../AVR8/Endpoint_AVR8.h **** 			/** Determines if the currently selected endpoint may be read from (if data is waiting in the en
 347:../../../../tmk_core/protocol/lufa/LUFA-git/LUFA/Drivers/USB/Core/AVR8/../AVR8/Endpoint_AVR8.h **** 			 *  bank and the endpoint is an OUT direction, or if the bank is not yet full if the endpoint is
 348:../../../../tmk_core/protocol/lufa/LUFA-git/LUFA/Drivers/USB/Core/AVR8/../AVR8/Endpoint_AVR8.h **** 			 *  direction). This function will return false if an error has occurred in the endpoint, if the
 349:../../../../tmk_core/protocol/lufa/LUFA-git/LUFA/Drivers/USB/Core/AVR8/../AVR8/Endpoint_AVR8.h **** 			 *  is an OUT direction and no packet (or an empty packet) has been received, or if the endpoint
 350:../../../../tmk_core/protocol/lufa/LUFA-git/LUFA/Drivers/USB/Core/AVR8/../AVR8/Endpoint_AVR8.h **** 			 *  direction and the endpoint bank is full.
 351:../../../../tmk_core/protocol/lufa/LUFA-git/LUFA/Drivers/USB/Core/AVR8/../AVR8/Endpoint_AVR8.h **** 			 *
 352:../../../../tmk_core/protocol/lufa/LUFA-git/LUFA/Drivers/USB/Core/AVR8/../AVR8/Endpoint_AVR8.h **** 			 *  \ingroup Group_EndpointPacketManagement_AVR8
 353:../../../../tmk_core/protocol/lufa/LUFA-git/LUFA/Drivers/USB/Core/AVR8/../AVR8/Endpoint_AVR8.h **** 			 *
 354:../../../../tmk_core/protocol/lufa/LUFA-git/LUFA/Drivers/USB/Core/AVR8/../AVR8/Endpoint_AVR8.h **** 			 *  \return Boolean \c true if the currently selected endpoint may be read from or written to, d
 355:../../../../tmk_core/protocol/lufa/LUFA-git/LUFA/Drivers/USB/Core/AVR8/../AVR8/Endpoint_AVR8.h **** 			 *          on its direction.
 356:../../../../tmk_core/protocol/lufa/LUFA-git/LUFA/Drivers/USB/Core/AVR8/../AVR8/Endpoint_AVR8.h **** 			 */
 357:../../../../tmk_core/protocol/lufa/LUFA-git/LUFA/Drivers/USB/Core/AVR8/../AVR8/Endpoint_AVR8.h **** 			static inline bool Endpoint_IsReadWriteAllowed(void) ATTR_WARN_UNUSED_RESULT ATTR_ALWAYS_INLINE;
 358:../../../../tmk_core/protocol/lufa/LUFA-git/LUFA/Drivers/USB/Core/AVR8/../AVR8/Endpoint_AVR8.h **** 			static inline bool Endpoint_IsReadWriteAllowed(void)
 359:../../../../tmk_core/protocol/lufa/LUFA-git/LUFA/Drivers/USB/Core/AVR8/../AVR8/Endpoint_AVR8.h **** 			{
 360:../../../../tmk_core/protocol/lufa/LUFA-git/LUFA/Drivers/USB/Core/AVR8/../AVR8/Endpoint_AVR8.h **** 				return ((UEINTX & (1 << RWAL)) ? true : false);
 361:../../../../tmk_core/protocol/lufa/LUFA-git/LUFA/Drivers/USB/Core/AVR8/../AVR8/Endpoint_AVR8.h **** 			}
 362:../../../../tmk_core/protocol/lufa/LUFA-git/LUFA/Drivers/USB/Core/AVR8/../AVR8/Endpoint_AVR8.h **** 
 363:../../../../tmk_core/protocol/lufa/LUFA-git/LUFA/Drivers/USB/Core/AVR8/../AVR8/Endpoint_AVR8.h **** 			/** Determines if the currently selected endpoint is configured.
 364:../../../../tmk_core/protocol/lufa/LUFA-git/LUFA/Drivers/USB/Core/AVR8/../AVR8/Endpoint_AVR8.h **** 			 *
 365:../../../../tmk_core/protocol/lufa/LUFA-git/LUFA/Drivers/USB/Core/AVR8/../AVR8/Endpoint_AVR8.h **** 			 *  \return Boolean \c true if the currently selected endpoint has been configured, \c false oth
 366:../../../../tmk_core/protocol/lufa/LUFA-git/LUFA/Drivers/USB/Core/AVR8/../AVR8/Endpoint_AVR8.h **** 			 */
 367:../../../../tmk_core/protocol/lufa/LUFA-git/LUFA/Drivers/USB/Core/AVR8/../AVR8/Endpoint_AVR8.h **** 			static inline bool Endpoint_IsConfigured(void) ATTR_WARN_UNUSED_RESULT ATTR_ALWAYS_INLINE;
 368:../../../../tmk_core/protocol/lufa/LUFA-git/LUFA/Drivers/USB/Core/AVR8/../AVR8/Endpoint_AVR8.h **** 			static inline bool Endpoint_IsConfigured(void)
 369:../../../../tmk_core/protocol/lufa/LUFA-git/LUFA/Drivers/USB/Core/AVR8/../AVR8/Endpoint_AVR8.h **** 			{
 370:../../../../tmk_core/protocol/lufa/LUFA-git/LUFA/Drivers/USB/Core/AVR8/../AVR8/Endpoint_AVR8.h **** 				return ((UESTA0X & (1 << CFGOK)) ? true : false);
 371:../../../../tmk_core/protocol/lufa/LUFA-git/LUFA/Drivers/USB/Core/AVR8/../AVR8/Endpoint_AVR8.h **** 			}
 372:../../../../tmk_core/protocol/lufa/LUFA-git/LUFA/Drivers/USB/Core/AVR8/../AVR8/Endpoint_AVR8.h **** 
 373:../../../../tmk_core/protocol/lufa/LUFA-git/LUFA/Drivers/USB/Core/AVR8/../AVR8/Endpoint_AVR8.h **** 			/** Returns a mask indicating which INTERRUPT type endpoints have interrupted - i.e. their
 374:../../../../tmk_core/protocol/lufa/LUFA-git/LUFA/Drivers/USB/Core/AVR8/../AVR8/Endpoint_AVR8.h **** 			 *  interrupt duration has elapsed. Which endpoints have interrupted can be determined by
 375:../../../../tmk_core/protocol/lufa/LUFA-git/LUFA/Drivers/USB/Core/AVR8/../AVR8/Endpoint_AVR8.h **** 			 *  masking the return value against <tt>(1 << <i>{Endpoint Number}</i>)</tt>.
 376:../../../../tmk_core/protocol/lufa/LUFA-git/LUFA/Drivers/USB/Core/AVR8/../AVR8/Endpoint_AVR8.h **** 			 *
 377:../../../../tmk_core/protocol/lufa/LUFA-git/LUFA/Drivers/USB/Core/AVR8/../AVR8/Endpoint_AVR8.h **** 			 *  \return Mask whose bits indicate which endpoints have interrupted.
 378:../../../../tmk_core/protocol/lufa/LUFA-git/LUFA/Drivers/USB/Core/AVR8/../AVR8/Endpoint_AVR8.h **** 			 */
 379:../../../../tmk_core/protocol/lufa/LUFA-git/LUFA/Drivers/USB/Core/AVR8/../AVR8/Endpoint_AVR8.h **** 			static inline uint8_t Endpoint_GetEndpointInterrupts(void) ATTR_WARN_UNUSED_RESULT ATTR_ALWAYS_I
 380:../../../../tmk_core/protocol/lufa/LUFA-git/LUFA/Drivers/USB/Core/AVR8/../AVR8/Endpoint_AVR8.h **** 			static inline uint8_t Endpoint_GetEndpointInterrupts(void)
 381:../../../../tmk_core/protocol/lufa/LUFA-git/LUFA/Drivers/USB/Core/AVR8/../AVR8/Endpoint_AVR8.h **** 			{
 382:../../../../tmk_core/protocol/lufa/LUFA-git/LUFA/Drivers/USB/Core/AVR8/../AVR8/Endpoint_AVR8.h **** 				return UEINT;
 383:../../../../tmk_core/protocol/lufa/LUFA-git/LUFA/Drivers/USB/Core/AVR8/../AVR8/Endpoint_AVR8.h **** 			}
 384:../../../../tmk_core/protocol/lufa/LUFA-git/LUFA/Drivers/USB/Core/AVR8/../AVR8/Endpoint_AVR8.h **** 
 385:../../../../tmk_core/protocol/lufa/LUFA-git/LUFA/Drivers/USB/Core/AVR8/../AVR8/Endpoint_AVR8.h **** 			/** Determines if the specified endpoint number has interrupted (valid only for INTERRUPT type
 386:../../../../tmk_core/protocol/lufa/LUFA-git/LUFA/Drivers/USB/Core/AVR8/../AVR8/Endpoint_AVR8.h **** 			 *  endpoints).
 387:../../../../tmk_core/protocol/lufa/LUFA-git/LUFA/Drivers/USB/Core/AVR8/../AVR8/Endpoint_AVR8.h **** 			 *
 388:../../../../tmk_core/protocol/lufa/LUFA-git/LUFA/Drivers/USB/Core/AVR8/../AVR8/Endpoint_AVR8.h **** 			 *  \param[in] Address  Address of the endpoint whose interrupt flag should be tested.
 389:../../../../tmk_core/protocol/lufa/LUFA-git/LUFA/Drivers/USB/Core/AVR8/../AVR8/Endpoint_AVR8.h **** 			 *
 390:../../../../tmk_core/protocol/lufa/LUFA-git/LUFA/Drivers/USB/Core/AVR8/../AVR8/Endpoint_AVR8.h **** 			 *  \return Boolean \c true if the specified endpoint has interrupted, \c false otherwise.
 391:../../../../tmk_core/protocol/lufa/LUFA-git/LUFA/Drivers/USB/Core/AVR8/../AVR8/Endpoint_AVR8.h **** 			 */
 392:../../../../tmk_core/protocol/lufa/LUFA-git/LUFA/Drivers/USB/Core/AVR8/../AVR8/Endpoint_AVR8.h **** 			static inline bool Endpoint_HasEndpointInterrupted(const uint8_t Address) ATTR_WARN_UNUSED_RESUL
 393:../../../../tmk_core/protocol/lufa/LUFA-git/LUFA/Drivers/USB/Core/AVR8/../AVR8/Endpoint_AVR8.h **** 			static inline bool Endpoint_HasEndpointInterrupted(const uint8_t Address)
 394:../../../../tmk_core/protocol/lufa/LUFA-git/LUFA/Drivers/USB/Core/AVR8/../AVR8/Endpoint_AVR8.h **** 			{
 395:../../../../tmk_core/protocol/lufa/LUFA-git/LUFA/Drivers/USB/Core/AVR8/../AVR8/Endpoint_AVR8.h **** 				return ((Endpoint_GetEndpointInterrupts() & (1 << (Address & ENDPOINT_EPNUM_MASK))) ? true : fa
 396:../../../../tmk_core/protocol/lufa/LUFA-git/LUFA/Drivers/USB/Core/AVR8/../AVR8/Endpoint_AVR8.h **** 			}
 397:../../../../tmk_core/protocol/lufa/LUFA-git/LUFA/Drivers/USB/Core/AVR8/../AVR8/Endpoint_AVR8.h **** 
 398:../../../../tmk_core/protocol/lufa/LUFA-git/LUFA/Drivers/USB/Core/AVR8/../AVR8/Endpoint_AVR8.h **** 			/** Determines if the selected IN endpoint is ready for a new packet to be sent to the host.
 399:../../../../tmk_core/protocol/lufa/LUFA-git/LUFA/Drivers/USB/Core/AVR8/../AVR8/Endpoint_AVR8.h **** 			 *
 400:../../../../tmk_core/protocol/lufa/LUFA-git/LUFA/Drivers/USB/Core/AVR8/../AVR8/Endpoint_AVR8.h **** 			 *  \ingroup Group_EndpointPacketManagement_AVR8
 401:../../../../tmk_core/protocol/lufa/LUFA-git/LUFA/Drivers/USB/Core/AVR8/../AVR8/Endpoint_AVR8.h **** 			 *
 402:../../../../tmk_core/protocol/lufa/LUFA-git/LUFA/Drivers/USB/Core/AVR8/../AVR8/Endpoint_AVR8.h **** 			 *  \return Boolean \c true if the current endpoint is ready for an IN packet, \c false otherwis
 403:../../../../tmk_core/protocol/lufa/LUFA-git/LUFA/Drivers/USB/Core/AVR8/../AVR8/Endpoint_AVR8.h **** 			 */
 404:../../../../tmk_core/protocol/lufa/LUFA-git/LUFA/Drivers/USB/Core/AVR8/../AVR8/Endpoint_AVR8.h **** 			static inline bool Endpoint_IsINReady(void) ATTR_WARN_UNUSED_RESULT ATTR_ALWAYS_INLINE;
 405:../../../../tmk_core/protocol/lufa/LUFA-git/LUFA/Drivers/USB/Core/AVR8/../AVR8/Endpoint_AVR8.h **** 			static inline bool Endpoint_IsINReady(void)
 406:../../../../tmk_core/protocol/lufa/LUFA-git/LUFA/Drivers/USB/Core/AVR8/../AVR8/Endpoint_AVR8.h **** 			{
 407:../../../../tmk_core/protocol/lufa/LUFA-git/LUFA/Drivers/USB/Core/AVR8/../AVR8/Endpoint_AVR8.h **** 				return ((UEINTX & (1 << TXINI)) ? true : false);
 408:../../../../tmk_core/protocol/lufa/LUFA-git/LUFA/Drivers/USB/Core/AVR8/../AVR8/Endpoint_AVR8.h **** 			}
 409:../../../../tmk_core/protocol/lufa/LUFA-git/LUFA/Drivers/USB/Core/AVR8/../AVR8/Endpoint_AVR8.h **** 
 410:../../../../tmk_core/protocol/lufa/LUFA-git/LUFA/Drivers/USB/Core/AVR8/../AVR8/Endpoint_AVR8.h **** 			/** Determines if the selected OUT endpoint has received new packet from the host.
 411:../../../../tmk_core/protocol/lufa/LUFA-git/LUFA/Drivers/USB/Core/AVR8/../AVR8/Endpoint_AVR8.h **** 			 *
 412:../../../../tmk_core/protocol/lufa/LUFA-git/LUFA/Drivers/USB/Core/AVR8/../AVR8/Endpoint_AVR8.h **** 			 *  \ingroup Group_EndpointPacketManagement_AVR8
 413:../../../../tmk_core/protocol/lufa/LUFA-git/LUFA/Drivers/USB/Core/AVR8/../AVR8/Endpoint_AVR8.h **** 			 *
 414:../../../../tmk_core/protocol/lufa/LUFA-git/LUFA/Drivers/USB/Core/AVR8/../AVR8/Endpoint_AVR8.h **** 			 *  \return Boolean \c true if current endpoint is has received an OUT packet, \c false otherwis
 415:../../../../tmk_core/protocol/lufa/LUFA-git/LUFA/Drivers/USB/Core/AVR8/../AVR8/Endpoint_AVR8.h **** 			 */
 416:../../../../tmk_core/protocol/lufa/LUFA-git/LUFA/Drivers/USB/Core/AVR8/../AVR8/Endpoint_AVR8.h **** 			static inline bool Endpoint_IsOUTReceived(void) ATTR_WARN_UNUSED_RESULT ATTR_ALWAYS_INLINE;
 417:../../../../tmk_core/protocol/lufa/LUFA-git/LUFA/Drivers/USB/Core/AVR8/../AVR8/Endpoint_AVR8.h **** 			static inline bool Endpoint_IsOUTReceived(void)
 418:../../../../tmk_core/protocol/lufa/LUFA-git/LUFA/Drivers/USB/Core/AVR8/../AVR8/Endpoint_AVR8.h **** 			{
 419:../../../../tmk_core/protocol/lufa/LUFA-git/LUFA/Drivers/USB/Core/AVR8/../AVR8/Endpoint_AVR8.h **** 				return ((UEINTX & (1 << RXOUTI)) ? true : false);
 420:../../../../tmk_core/protocol/lufa/LUFA-git/LUFA/Drivers/USB/Core/AVR8/../AVR8/Endpoint_AVR8.h **** 			}
 421:../../../../tmk_core/protocol/lufa/LUFA-git/LUFA/Drivers/USB/Core/AVR8/../AVR8/Endpoint_AVR8.h **** 
 422:../../../../tmk_core/protocol/lufa/LUFA-git/LUFA/Drivers/USB/Core/AVR8/../AVR8/Endpoint_AVR8.h **** 			/** Determines if the current CONTROL type endpoint has received a SETUP packet.
 423:../../../../tmk_core/protocol/lufa/LUFA-git/LUFA/Drivers/USB/Core/AVR8/../AVR8/Endpoint_AVR8.h **** 			 *
 424:../../../../tmk_core/protocol/lufa/LUFA-git/LUFA/Drivers/USB/Core/AVR8/../AVR8/Endpoint_AVR8.h **** 			 *  \ingroup Group_EndpointPacketManagement_AVR8
 425:../../../../tmk_core/protocol/lufa/LUFA-git/LUFA/Drivers/USB/Core/AVR8/../AVR8/Endpoint_AVR8.h **** 			 *
 426:../../../../tmk_core/protocol/lufa/LUFA-git/LUFA/Drivers/USB/Core/AVR8/../AVR8/Endpoint_AVR8.h **** 			 *  \return Boolean \c true if the selected endpoint has received a SETUP packet, \c false other
 427:../../../../tmk_core/protocol/lufa/LUFA-git/LUFA/Drivers/USB/Core/AVR8/../AVR8/Endpoint_AVR8.h **** 			 */
 428:../../../../tmk_core/protocol/lufa/LUFA-git/LUFA/Drivers/USB/Core/AVR8/../AVR8/Endpoint_AVR8.h **** 			static inline bool Endpoint_IsSETUPReceived(void) ATTR_WARN_UNUSED_RESULT ATTR_ALWAYS_INLINE;
 429:../../../../tmk_core/protocol/lufa/LUFA-git/LUFA/Drivers/USB/Core/AVR8/../AVR8/Endpoint_AVR8.h **** 			static inline bool Endpoint_IsSETUPReceived(void)
 430:../../../../tmk_core/protocol/lufa/LUFA-git/LUFA/Drivers/USB/Core/AVR8/../AVR8/Endpoint_AVR8.h **** 			{
 431:../../../../tmk_core/protocol/lufa/LUFA-git/LUFA/Drivers/USB/Core/AVR8/../AVR8/Endpoint_AVR8.h **** 				return ((UEINTX & (1 << RXSTPI)) ? true : false);
 432:../../../../tmk_core/protocol/lufa/LUFA-git/LUFA/Drivers/USB/Core/AVR8/../AVR8/Endpoint_AVR8.h **** 			}
 433:../../../../tmk_core/protocol/lufa/LUFA-git/LUFA/Drivers/USB/Core/AVR8/../AVR8/Endpoint_AVR8.h **** 
 434:../../../../tmk_core/protocol/lufa/LUFA-git/LUFA/Drivers/USB/Core/AVR8/../AVR8/Endpoint_AVR8.h **** 			/** Clears a received SETUP packet on the currently selected CONTROL type endpoint, freeing up t
 435:../../../../tmk_core/protocol/lufa/LUFA-git/LUFA/Drivers/USB/Core/AVR8/../AVR8/Endpoint_AVR8.h **** 			 *  endpoint for the next packet.
 436:../../../../tmk_core/protocol/lufa/LUFA-git/LUFA/Drivers/USB/Core/AVR8/../AVR8/Endpoint_AVR8.h **** 			 *
 437:../../../../tmk_core/protocol/lufa/LUFA-git/LUFA/Drivers/USB/Core/AVR8/../AVR8/Endpoint_AVR8.h **** 			 *  \ingroup Group_EndpointPacketManagement_AVR8
 438:../../../../tmk_core/protocol/lufa/LUFA-git/LUFA/Drivers/USB/Core/AVR8/../AVR8/Endpoint_AVR8.h **** 			 *
 439:../../../../tmk_core/protocol/lufa/LUFA-git/LUFA/Drivers/USB/Core/AVR8/../AVR8/Endpoint_AVR8.h **** 			 *  \note This is not applicable for non CONTROL type endpoints.
 440:../../../../tmk_core/protocol/lufa/LUFA-git/LUFA/Drivers/USB/Core/AVR8/../AVR8/Endpoint_AVR8.h **** 			 */
 441:../../../../tmk_core/protocol/lufa/LUFA-git/LUFA/Drivers/USB/Core/AVR8/../AVR8/Endpoint_AVR8.h **** 			static inline void Endpoint_ClearSETUP(void) ATTR_ALWAYS_INLINE;
 442:../../../../tmk_core/protocol/lufa/LUFA-git/LUFA/Drivers/USB/Core/AVR8/../AVR8/Endpoint_AVR8.h **** 			static inline void Endpoint_ClearSETUP(void)
 443:../../../../tmk_core/protocol/lufa/LUFA-git/LUFA/Drivers/USB/Core/AVR8/../AVR8/Endpoint_AVR8.h **** 			{
 444:../../../../tmk_core/protocol/lufa/LUFA-git/LUFA/Drivers/USB/Core/AVR8/../AVR8/Endpoint_AVR8.h **** 				UEINTX &= ~(1 << RXSTPI);
 445:../../../../tmk_core/protocol/lufa/LUFA-git/LUFA/Drivers/USB/Core/AVR8/../AVR8/Endpoint_AVR8.h **** 			}
 446:../../../../tmk_core/protocol/lufa/LUFA-git/LUFA/Drivers/USB/Core/AVR8/../AVR8/Endpoint_AVR8.h **** 
 447:../../../../tmk_core/protocol/lufa/LUFA-git/LUFA/Drivers/USB/Core/AVR8/../AVR8/Endpoint_AVR8.h **** 			/** Sends an IN packet to the host on the currently selected endpoint, freeing up the endpoint f
 448:../../../../tmk_core/protocol/lufa/LUFA-git/LUFA/Drivers/USB/Core/AVR8/../AVR8/Endpoint_AVR8.h **** 			 *  next packet and switching to the alternative endpoint bank if double banked.
 449:../../../../tmk_core/protocol/lufa/LUFA-git/LUFA/Drivers/USB/Core/AVR8/../AVR8/Endpoint_AVR8.h **** 			 *
 450:../../../../tmk_core/protocol/lufa/LUFA-git/LUFA/Drivers/USB/Core/AVR8/../AVR8/Endpoint_AVR8.h **** 			 *  \ingroup Group_EndpointPacketManagement_AVR8
 451:../../../../tmk_core/protocol/lufa/LUFA-git/LUFA/Drivers/USB/Core/AVR8/../AVR8/Endpoint_AVR8.h **** 			 */
 452:../../../../tmk_core/protocol/lufa/LUFA-git/LUFA/Drivers/USB/Core/AVR8/../AVR8/Endpoint_AVR8.h **** 			static inline void Endpoint_ClearIN(void) ATTR_ALWAYS_INLINE;
 453:../../../../tmk_core/protocol/lufa/LUFA-git/LUFA/Drivers/USB/Core/AVR8/../AVR8/Endpoint_AVR8.h **** 			static inline void Endpoint_ClearIN(void)
 454:../../../../tmk_core/protocol/lufa/LUFA-git/LUFA/Drivers/USB/Core/AVR8/../AVR8/Endpoint_AVR8.h **** 			{
 455:../../../../tmk_core/protocol/lufa/LUFA-git/LUFA/Drivers/USB/Core/AVR8/../AVR8/Endpoint_AVR8.h **** 				#if !defined(CONTROL_ONLY_DEVICE)
 456:../../../../tmk_core/protocol/lufa/LUFA-git/LUFA/Drivers/USB/Core/AVR8/../AVR8/Endpoint_AVR8.h **** 					UEINTX &= ~((1 << TXINI) | (1 << FIFOCON));
 457:../../../../tmk_core/protocol/lufa/LUFA-git/LUFA/Drivers/USB/Core/AVR8/../AVR8/Endpoint_AVR8.h **** 				#else
 458:../../../../tmk_core/protocol/lufa/LUFA-git/LUFA/Drivers/USB/Core/AVR8/../AVR8/Endpoint_AVR8.h **** 					UEINTX &= ~(1 << TXINI);
 459:../../../../tmk_core/protocol/lufa/LUFA-git/LUFA/Drivers/USB/Core/AVR8/../AVR8/Endpoint_AVR8.h **** 				#endif
 460:../../../../tmk_core/protocol/lufa/LUFA-git/LUFA/Drivers/USB/Core/AVR8/../AVR8/Endpoint_AVR8.h **** 			}
 461:../../../../tmk_core/protocol/lufa/LUFA-git/LUFA/Drivers/USB/Core/AVR8/../AVR8/Endpoint_AVR8.h **** 
 462:../../../../tmk_core/protocol/lufa/LUFA-git/LUFA/Drivers/USB/Core/AVR8/../AVR8/Endpoint_AVR8.h **** 			/** Acknowledges an OUT packet to the host on the currently selected endpoint, freeing up the en
 463:../../../../tmk_core/protocol/lufa/LUFA-git/LUFA/Drivers/USB/Core/AVR8/../AVR8/Endpoint_AVR8.h **** 			 *  for the next packet and switching to the alternative endpoint bank if double banked.
 464:../../../../tmk_core/protocol/lufa/LUFA-git/LUFA/Drivers/USB/Core/AVR8/../AVR8/Endpoint_AVR8.h **** 			 *
 465:../../../../tmk_core/protocol/lufa/LUFA-git/LUFA/Drivers/USB/Core/AVR8/../AVR8/Endpoint_AVR8.h **** 			 *  \ingroup Group_EndpointPacketManagement_AVR8
 466:../../../../tmk_core/protocol/lufa/LUFA-git/LUFA/Drivers/USB/Core/AVR8/../AVR8/Endpoint_AVR8.h **** 			 */
 467:../../../../tmk_core/protocol/lufa/LUFA-git/LUFA/Drivers/USB/Core/AVR8/../AVR8/Endpoint_AVR8.h **** 			static inline void Endpoint_ClearOUT(void) ATTR_ALWAYS_INLINE;
 468:../../../../tmk_core/protocol/lufa/LUFA-git/LUFA/Drivers/USB/Core/AVR8/../AVR8/Endpoint_AVR8.h **** 			static inline void Endpoint_ClearOUT(void)
 469:../../../../tmk_core/protocol/lufa/LUFA-git/LUFA/Drivers/USB/Core/AVR8/../AVR8/Endpoint_AVR8.h **** 			{
 470:../../../../tmk_core/protocol/lufa/LUFA-git/LUFA/Drivers/USB/Core/AVR8/../AVR8/Endpoint_AVR8.h **** 				#if !defined(CONTROL_ONLY_DEVICE)
 471:../../../../tmk_core/protocol/lufa/LUFA-git/LUFA/Drivers/USB/Core/AVR8/../AVR8/Endpoint_AVR8.h **** 					UEINTX &= ~((1 << RXOUTI) | (1 << FIFOCON));
 472:../../../../tmk_core/protocol/lufa/LUFA-git/LUFA/Drivers/USB/Core/AVR8/../AVR8/Endpoint_AVR8.h **** 				#else
 473:../../../../tmk_core/protocol/lufa/LUFA-git/LUFA/Drivers/USB/Core/AVR8/../AVR8/Endpoint_AVR8.h **** 					UEINTX &= ~(1 << RXOUTI);
 474:../../../../tmk_core/protocol/lufa/LUFA-git/LUFA/Drivers/USB/Core/AVR8/../AVR8/Endpoint_AVR8.h **** 				#endif
 475:../../../../tmk_core/protocol/lufa/LUFA-git/LUFA/Drivers/USB/Core/AVR8/../AVR8/Endpoint_AVR8.h **** 			}
 476:../../../../tmk_core/protocol/lufa/LUFA-git/LUFA/Drivers/USB/Core/AVR8/../AVR8/Endpoint_AVR8.h **** 
 477:../../../../tmk_core/protocol/lufa/LUFA-git/LUFA/Drivers/USB/Core/AVR8/../AVR8/Endpoint_AVR8.h **** 			/** Stalls the current endpoint, indicating to the host that a logical problem occurred with the
 478:../../../../tmk_core/protocol/lufa/LUFA-git/LUFA/Drivers/USB/Core/AVR8/../AVR8/Endpoint_AVR8.h **** 			 *  indicated endpoint and that the current transfer sequence should be aborted. This provides a
 479:../../../../tmk_core/protocol/lufa/LUFA-git/LUFA/Drivers/USB/Core/AVR8/../AVR8/Endpoint_AVR8.h **** 			 *  way for devices to indicate invalid commands to the host so that the current transfer can be
 480:../../../../tmk_core/protocol/lufa/LUFA-git/LUFA/Drivers/USB/Core/AVR8/../AVR8/Endpoint_AVR8.h **** 			 *  aborted and the host can begin its own recovery sequence.
 481:../../../../tmk_core/protocol/lufa/LUFA-git/LUFA/Drivers/USB/Core/AVR8/../AVR8/Endpoint_AVR8.h **** 			 *
 482:../../../../tmk_core/protocol/lufa/LUFA-git/LUFA/Drivers/USB/Core/AVR8/../AVR8/Endpoint_AVR8.h **** 			 *  The currently selected endpoint remains stalled until either the \ref Endpoint_ClearStall() 
 483:../../../../tmk_core/protocol/lufa/LUFA-git/LUFA/Drivers/USB/Core/AVR8/../AVR8/Endpoint_AVR8.h **** 			 *  is called, or the host issues a CLEAR FEATURE request to the device for the currently select
 484:../../../../tmk_core/protocol/lufa/LUFA-git/LUFA/Drivers/USB/Core/AVR8/../AVR8/Endpoint_AVR8.h **** 			 *  endpoint.
 485:../../../../tmk_core/protocol/lufa/LUFA-git/LUFA/Drivers/USB/Core/AVR8/../AVR8/Endpoint_AVR8.h **** 			 *
 486:../../../../tmk_core/protocol/lufa/LUFA-git/LUFA/Drivers/USB/Core/AVR8/../AVR8/Endpoint_AVR8.h **** 			 *  \ingroup Group_EndpointPacketManagement_AVR8
 487:../../../../tmk_core/protocol/lufa/LUFA-git/LUFA/Drivers/USB/Core/AVR8/../AVR8/Endpoint_AVR8.h **** 			 */
 488:../../../../tmk_core/protocol/lufa/LUFA-git/LUFA/Drivers/USB/Core/AVR8/../AVR8/Endpoint_AVR8.h **** 			static inline void Endpoint_StallTransaction(void) ATTR_ALWAYS_INLINE;
 489:../../../../tmk_core/protocol/lufa/LUFA-git/LUFA/Drivers/USB/Core/AVR8/../AVR8/Endpoint_AVR8.h **** 			static inline void Endpoint_StallTransaction(void)
 490:../../../../tmk_core/protocol/lufa/LUFA-git/LUFA/Drivers/USB/Core/AVR8/../AVR8/Endpoint_AVR8.h **** 			{
 491:../../../../tmk_core/protocol/lufa/LUFA-git/LUFA/Drivers/USB/Core/AVR8/../AVR8/Endpoint_AVR8.h **** 				UECONX |= (1 << STALLRQ);
 492:../../../../tmk_core/protocol/lufa/LUFA-git/LUFA/Drivers/USB/Core/AVR8/../AVR8/Endpoint_AVR8.h **** 			}
 493:../../../../tmk_core/protocol/lufa/LUFA-git/LUFA/Drivers/USB/Core/AVR8/../AVR8/Endpoint_AVR8.h **** 
 494:../../../../tmk_core/protocol/lufa/LUFA-git/LUFA/Drivers/USB/Core/AVR8/../AVR8/Endpoint_AVR8.h **** 			/** Clears the STALL condition on the currently selected endpoint.
 495:../../../../tmk_core/protocol/lufa/LUFA-git/LUFA/Drivers/USB/Core/AVR8/../AVR8/Endpoint_AVR8.h **** 			 *
 496:../../../../tmk_core/protocol/lufa/LUFA-git/LUFA/Drivers/USB/Core/AVR8/../AVR8/Endpoint_AVR8.h **** 			 *  \ingroup Group_EndpointPacketManagement_AVR8
 497:../../../../tmk_core/protocol/lufa/LUFA-git/LUFA/Drivers/USB/Core/AVR8/../AVR8/Endpoint_AVR8.h **** 			 */
 498:../../../../tmk_core/protocol/lufa/LUFA-git/LUFA/Drivers/USB/Core/AVR8/../AVR8/Endpoint_AVR8.h **** 			static inline void Endpoint_ClearStall(void) ATTR_ALWAYS_INLINE;
 499:../../../../tmk_core/protocol/lufa/LUFA-git/LUFA/Drivers/USB/Core/AVR8/../AVR8/Endpoint_AVR8.h **** 			static inline void Endpoint_ClearStall(void)
 500:../../../../tmk_core/protocol/lufa/LUFA-git/LUFA/Drivers/USB/Core/AVR8/../AVR8/Endpoint_AVR8.h **** 			{
 501:../../../../tmk_core/protocol/lufa/LUFA-git/LUFA/Drivers/USB/Core/AVR8/../AVR8/Endpoint_AVR8.h **** 				UECONX |= (1 << STALLRQC);
 502:../../../../tmk_core/protocol/lufa/LUFA-git/LUFA/Drivers/USB/Core/AVR8/../AVR8/Endpoint_AVR8.h **** 			}
 503:../../../../tmk_core/protocol/lufa/LUFA-git/LUFA/Drivers/USB/Core/AVR8/../AVR8/Endpoint_AVR8.h **** 
 504:../../../../tmk_core/protocol/lufa/LUFA-git/LUFA/Drivers/USB/Core/AVR8/../AVR8/Endpoint_AVR8.h **** 			/** Determines if the currently selected endpoint is stalled, \c false otherwise.
 505:../../../../tmk_core/protocol/lufa/LUFA-git/LUFA/Drivers/USB/Core/AVR8/../AVR8/Endpoint_AVR8.h **** 			 *
 506:../../../../tmk_core/protocol/lufa/LUFA-git/LUFA/Drivers/USB/Core/AVR8/../AVR8/Endpoint_AVR8.h **** 			 *  \ingroup Group_EndpointPacketManagement_AVR8
 507:../../../../tmk_core/protocol/lufa/LUFA-git/LUFA/Drivers/USB/Core/AVR8/../AVR8/Endpoint_AVR8.h **** 			 *
 508:../../../../tmk_core/protocol/lufa/LUFA-git/LUFA/Drivers/USB/Core/AVR8/../AVR8/Endpoint_AVR8.h **** 			 *  \return Boolean \c true if the currently selected endpoint is stalled, \c false otherwise.
 509:../../../../tmk_core/protocol/lufa/LUFA-git/LUFA/Drivers/USB/Core/AVR8/../AVR8/Endpoint_AVR8.h **** 			 */
 510:../../../../tmk_core/protocol/lufa/LUFA-git/LUFA/Drivers/USB/Core/AVR8/../AVR8/Endpoint_AVR8.h **** 			static inline bool Endpoint_IsStalled(void) ATTR_WARN_UNUSED_RESULT ATTR_ALWAYS_INLINE;
 511:../../../../tmk_core/protocol/lufa/LUFA-git/LUFA/Drivers/USB/Core/AVR8/../AVR8/Endpoint_AVR8.h **** 			static inline bool Endpoint_IsStalled(void)
 512:../../../../tmk_core/protocol/lufa/LUFA-git/LUFA/Drivers/USB/Core/AVR8/../AVR8/Endpoint_AVR8.h **** 			{
 513:../../../../tmk_core/protocol/lufa/LUFA-git/LUFA/Drivers/USB/Core/AVR8/../AVR8/Endpoint_AVR8.h **** 				return ((UECONX & (1 << STALLRQ)) ? true : false);
 514:../../../../tmk_core/protocol/lufa/LUFA-git/LUFA/Drivers/USB/Core/AVR8/../AVR8/Endpoint_AVR8.h **** 			}
 515:../../../../tmk_core/protocol/lufa/LUFA-git/LUFA/Drivers/USB/Core/AVR8/../AVR8/Endpoint_AVR8.h **** 
 516:../../../../tmk_core/protocol/lufa/LUFA-git/LUFA/Drivers/USB/Core/AVR8/../AVR8/Endpoint_AVR8.h **** 			/** Resets the data toggle of the currently selected endpoint. */
 517:../../../../tmk_core/protocol/lufa/LUFA-git/LUFA/Drivers/USB/Core/AVR8/../AVR8/Endpoint_AVR8.h **** 			static inline void Endpoint_ResetDataToggle(void) ATTR_ALWAYS_INLINE;
 518:../../../../tmk_core/protocol/lufa/LUFA-git/LUFA/Drivers/USB/Core/AVR8/../AVR8/Endpoint_AVR8.h **** 			static inline void Endpoint_ResetDataToggle(void)
 519:../../../../tmk_core/protocol/lufa/LUFA-git/LUFA/Drivers/USB/Core/AVR8/../AVR8/Endpoint_AVR8.h **** 			{
 520:../../../../tmk_core/protocol/lufa/LUFA-git/LUFA/Drivers/USB/Core/AVR8/../AVR8/Endpoint_AVR8.h **** 				UECONX |= (1 << RSTDT);
 521:../../../../tmk_core/protocol/lufa/LUFA-git/LUFA/Drivers/USB/Core/AVR8/../AVR8/Endpoint_AVR8.h **** 			}
 522:../../../../tmk_core/protocol/lufa/LUFA-git/LUFA/Drivers/USB/Core/AVR8/../AVR8/Endpoint_AVR8.h **** 
 523:../../../../tmk_core/protocol/lufa/LUFA-git/LUFA/Drivers/USB/Core/AVR8/../AVR8/Endpoint_AVR8.h **** 			/** Sets the direction of the currently selected endpoint.
 524:../../../../tmk_core/protocol/lufa/LUFA-git/LUFA/Drivers/USB/Core/AVR8/../AVR8/Endpoint_AVR8.h **** 			 *
 525:../../../../tmk_core/protocol/lufa/LUFA-git/LUFA/Drivers/USB/Core/AVR8/../AVR8/Endpoint_AVR8.h **** 			 *  \param[in] DirectionMask  New endpoint direction, as a \c ENDPOINT_DIR_* mask.
 526:../../../../tmk_core/protocol/lufa/LUFA-git/LUFA/Drivers/USB/Core/AVR8/../AVR8/Endpoint_AVR8.h **** 			 */
 527:../../../../tmk_core/protocol/lufa/LUFA-git/LUFA/Drivers/USB/Core/AVR8/../AVR8/Endpoint_AVR8.h **** 			static inline void Endpoint_SetEndpointDirection(const uint8_t DirectionMask) ATTR_ALWAYS_INLINE
 528:../../../../tmk_core/protocol/lufa/LUFA-git/LUFA/Drivers/USB/Core/AVR8/../AVR8/Endpoint_AVR8.h **** 			static inline void Endpoint_SetEndpointDirection(const uint8_t DirectionMask)
 529:../../../../tmk_core/protocol/lufa/LUFA-git/LUFA/Drivers/USB/Core/AVR8/../AVR8/Endpoint_AVR8.h **** 			{
 530:../../../../tmk_core/protocol/lufa/LUFA-git/LUFA/Drivers/USB/Core/AVR8/../AVR8/Endpoint_AVR8.h **** 				UECFG0X = ((UECFG0X & ~(1 << EPDIR)) | (DirectionMask ? (1 << EPDIR) : 0));
 531:../../../../tmk_core/protocol/lufa/LUFA-git/LUFA/Drivers/USB/Core/AVR8/../AVR8/Endpoint_AVR8.h **** 			}
 532:../../../../tmk_core/protocol/lufa/LUFA-git/LUFA/Drivers/USB/Core/AVR8/../AVR8/Endpoint_AVR8.h **** 
 533:../../../../tmk_core/protocol/lufa/LUFA-git/LUFA/Drivers/USB/Core/AVR8/../AVR8/Endpoint_AVR8.h **** 			/** Reads one byte from the currently selected endpoint's bank, for OUT direction endpoints.
 534:../../../../tmk_core/protocol/lufa/LUFA-git/LUFA/Drivers/USB/Core/AVR8/../AVR8/Endpoint_AVR8.h **** 			 *
 535:../../../../tmk_core/protocol/lufa/LUFA-git/LUFA/Drivers/USB/Core/AVR8/../AVR8/Endpoint_AVR8.h **** 			 *  \ingroup Group_EndpointPrimitiveRW_AVR8
 536:../../../../tmk_core/protocol/lufa/LUFA-git/LUFA/Drivers/USB/Core/AVR8/../AVR8/Endpoint_AVR8.h **** 			 *
 537:../../../../tmk_core/protocol/lufa/LUFA-git/LUFA/Drivers/USB/Core/AVR8/../AVR8/Endpoint_AVR8.h **** 			 *  \return Next byte in the currently selected endpoint's FIFO buffer.
 538:../../../../tmk_core/protocol/lufa/LUFA-git/LUFA/Drivers/USB/Core/AVR8/../AVR8/Endpoint_AVR8.h **** 			 */
 539:../../../../tmk_core/protocol/lufa/LUFA-git/LUFA/Drivers/USB/Core/AVR8/../AVR8/Endpoint_AVR8.h **** 			static inline uint8_t Endpoint_Read_8(void) ATTR_WARN_UNUSED_RESULT ATTR_ALWAYS_INLINE;
 540:../../../../tmk_core/protocol/lufa/LUFA-git/LUFA/Drivers/USB/Core/AVR8/../AVR8/Endpoint_AVR8.h **** 			static inline uint8_t Endpoint_Read_8(void)
 541:../../../../tmk_core/protocol/lufa/LUFA-git/LUFA/Drivers/USB/Core/AVR8/../AVR8/Endpoint_AVR8.h **** 			{
 542:../../../../tmk_core/protocol/lufa/LUFA-git/LUFA/Drivers/USB/Core/AVR8/../AVR8/Endpoint_AVR8.h **** 				return UEDATX;
  57               		.loc 2 542 0
  58 001a 8091 F100 		lds r24,241
  59               	.LBE172:
  60               	.LBE171:
  59:../../../../tmk_core/protocol/lufa/LUFA-git/LUFA/Drivers/USB/Core/DeviceStandardReq.c **** 
  60:../../../../tmk_core/protocol/lufa/LUFA-git/LUFA/Drivers/USB/Core/DeviceStandardReq.c **** 	for (uint8_t RequestHeaderByte = 0; RequestHeaderByte < sizeof(USB_Request_Header_t); RequestHeade
  61:../../../../tmk_core/protocol/lufa/LUFA-git/LUFA/Drivers/USB/Core/DeviceStandardReq.c **** 	  *(RequestHeader++) = Endpoint_Read_8();
  61               		.loc 1 61 0
  62 001e 8193      		st Z+,r24
  63               	.LVL2:
  60:../../../../tmk_core/protocol/lufa/LUFA-git/LUFA/Drivers/USB/Core/DeviceStandardReq.c **** 	for (uint8_t RequestHeaderByte = 0; RequestHeaderByte < sizeof(USB_Request_Header_t); RequestHeade
  64               		.loc 1 60 0
  65 0020 20E0      		ldi r18,hi8(USB_ControlRequest+8)
  66 0022 E030      		cpi r30,lo8(USB_ControlRequest+8)
  67 0024 F207      		cpc r31,r18
  68 0026 01F4      		brne .L2
  69               	.LBE170:
  62:../../../../tmk_core/protocol/lufa/LUFA-git/LUFA/Drivers/USB/Core/DeviceStandardReq.c **** 	#endif
  63:../../../../tmk_core/protocol/lufa/LUFA-git/LUFA/Drivers/USB/Core/DeviceStandardReq.c **** 
  64:../../../../tmk_core/protocol/lufa/LUFA-git/LUFA/Drivers/USB/Core/DeviceStandardReq.c **** 	EVENT_USB_Device_ControlRequest();
  70               		.loc 1 64 0
  71 0028 0E94 0000 		call EVENT_USB_Device_ControlRequest
  72               	.LVL3:
  73               	.LBB173:
  74               	.LBB174:
 431:../../../../tmk_core/protocol/lufa/LUFA-git/LUFA/Drivers/USB/Core/AVR8/../AVR8/Endpoint_AVR8.h **** 				return ((UEINTX & (1 << RXSTPI)) ? true : false);
  75               		.loc 2 431 0
  76 002c 8091 E800 		lds r24,232
  77               	.LBE174:
  78               	.LBE173:
  65:../../../../tmk_core/protocol/lufa/LUFA-git/LUFA/Drivers/USB/Core/DeviceStandardReq.c **** 
  66:../../../../tmk_core/protocol/lufa/LUFA-git/LUFA/Drivers/USB/Core/DeviceStandardReq.c **** 	if (Endpoint_IsSETUPReceived())
  79               		.loc 1 66 0
  80 0030 83FF      		sbrs r24,3
  81 0032 00C0      		rjmp .L3
  82               	.LBB175:
  67:../../../../tmk_core/protocol/lufa/LUFA-git/LUFA/Drivers/USB/Core/DeviceStandardReq.c **** 	{
  68:../../../../tmk_core/protocol/lufa/LUFA-git/LUFA/Drivers/USB/Core/DeviceStandardReq.c **** 		uint8_t bmRequestType = USB_ControlRequest.bmRequestType;
  83               		.loc 1 68 0
  84 0034 8091 0000 		lds r24,USB_ControlRequest
  85               	.LVL4:
  69:../../../../tmk_core/protocol/lufa/LUFA-git/LUFA/Drivers/USB/Core/DeviceStandardReq.c **** 
  70:../../../../tmk_core/protocol/lufa/LUFA-git/LUFA/Drivers/USB/Core/DeviceStandardReq.c **** 		switch (USB_ControlRequest.bRequest)
  86               		.loc 1 70 0
  87 0038 9091 0000 		lds r25,USB_ControlRequest+1
  88 003c 9530      		cpi r25,lo8(5)
  89 003e 01F4      		brne .+2
  90 0040 00C0      		rjmp .L6
  91 0042 00F4      		brsh .L10
  92 0044 9130      		cpi r25,lo8(1)
  93 0046 01F0      		breq .L5
  94 0048 00F0      		brlo .L4
  95 004a 9330      		cpi r25,lo8(3)
  96 004c 01F0      		breq .+2
  97 004e 00C0      		rjmp .L3
  98 0050 00C0      		rjmp .L5
  99               	.L10:
 100 0052 9830      		cpi r25,lo8(8)
 101 0054 01F4      		brne .+2
 102 0056 00C0      		rjmp .L8
 103 0058 9930      		cpi r25,lo8(9)
 104 005a 01F4      		brne .+2
 105 005c 00C0      		rjmp .L9
 106 005e 9630      		cpi r25,lo8(6)
 107 0060 01F0      		breq .+2
 108 0062 00C0      		rjmp .L3
 109 0064 00C0      		rjmp .L7
 110               	.L4:
  71:../../../../tmk_core/protocol/lufa/LUFA-git/LUFA/Drivers/USB/Core/DeviceStandardReq.c **** 		{
  72:../../../../tmk_core/protocol/lufa/LUFA-git/LUFA/Drivers/USB/Core/DeviceStandardReq.c **** 			case REQ_GetStatus:
  73:../../../../tmk_core/protocol/lufa/LUFA-git/LUFA/Drivers/USB/Core/DeviceStandardReq.c **** 				if ((bmRequestType == (REQDIR_DEVICETOHOST | REQTYPE_STANDARD | REQREC_DEVICE)) ||
 111               		.loc 1 73 0
 112 0066 8038      		cpi r24,lo8(-128)
 113 0068 01F0      		breq .L11
 114               		.loc 1 73 0 is_stmt 0 discriminator 1
 115 006a 8238      		cpi r24,lo8(-126)
 116 006c 01F0      		breq .+2
 117 006e 00C0      		rjmp .L3
 118 0070 00C0      		rjmp .L12
 119               	.L11:
 120               	.LVL5:
  74:../../../../tmk_core/protocol/lufa/LUFA-git/LUFA/Drivers/USB/Core/DeviceStandardReq.c **** 					(bmRequestType == (REQDIR_DEVICETOHOST | REQTYPE_STANDARD | REQREC_ENDPOINT)))
  75:../../../../tmk_core/protocol/lufa/LUFA-git/LUFA/Drivers/USB/Core/DeviceStandardReq.c **** 				{
  76:../../../../tmk_core/protocol/lufa/LUFA-git/LUFA/Drivers/USB/Core/DeviceStandardReq.c **** 					USB_Device_GetStatus();
  77:../../../../tmk_core/protocol/lufa/LUFA-git/LUFA/Drivers/USB/Core/DeviceStandardReq.c **** 				}
  78:../../../../tmk_core/protocol/lufa/LUFA-git/LUFA/Drivers/USB/Core/DeviceStandardReq.c **** 
  79:../../../../tmk_core/protocol/lufa/LUFA-git/LUFA/Drivers/USB/Core/DeviceStandardReq.c **** 				break;
  80:../../../../tmk_core/protocol/lufa/LUFA-git/LUFA/Drivers/USB/Core/DeviceStandardReq.c **** 			case REQ_ClearFeature:
  81:../../../../tmk_core/protocol/lufa/LUFA-git/LUFA/Drivers/USB/Core/DeviceStandardReq.c **** 			case REQ_SetFeature:
  82:../../../../tmk_core/protocol/lufa/LUFA-git/LUFA/Drivers/USB/Core/DeviceStandardReq.c **** 				if ((bmRequestType == (REQDIR_HOSTTODEVICE | REQTYPE_STANDARD | REQREC_DEVICE)) ||
  83:../../../../tmk_core/protocol/lufa/LUFA-git/LUFA/Drivers/USB/Core/DeviceStandardReq.c **** 					(bmRequestType == (REQDIR_HOSTTODEVICE | REQTYPE_STANDARD | REQREC_ENDPOINT)))
  84:../../../../tmk_core/protocol/lufa/LUFA-git/LUFA/Drivers/USB/Core/DeviceStandardReq.c **** 				{
  85:../../../../tmk_core/protocol/lufa/LUFA-git/LUFA/Drivers/USB/Core/DeviceStandardReq.c **** 					USB_Device_ClearSetFeature();
  86:../../../../tmk_core/protocol/lufa/LUFA-git/LUFA/Drivers/USB/Core/DeviceStandardReq.c **** 				}
  87:../../../../tmk_core/protocol/lufa/LUFA-git/LUFA/Drivers/USB/Core/DeviceStandardReq.c **** 
  88:../../../../tmk_core/protocol/lufa/LUFA-git/LUFA/Drivers/USB/Core/DeviceStandardReq.c **** 				break;
  89:../../../../tmk_core/protocol/lufa/LUFA-git/LUFA/Drivers/USB/Core/DeviceStandardReq.c **** 			case REQ_SetAddress:
  90:../../../../tmk_core/protocol/lufa/LUFA-git/LUFA/Drivers/USB/Core/DeviceStandardReq.c **** 				if (bmRequestType == (REQDIR_HOSTTODEVICE | REQTYPE_STANDARD | REQREC_DEVICE))
  91:../../../../tmk_core/protocol/lufa/LUFA-git/LUFA/Drivers/USB/Core/DeviceStandardReq.c **** 				  USB_Device_SetAddress();
  92:../../../../tmk_core/protocol/lufa/LUFA-git/LUFA/Drivers/USB/Core/DeviceStandardReq.c **** 
  93:../../../../tmk_core/protocol/lufa/LUFA-git/LUFA/Drivers/USB/Core/DeviceStandardReq.c **** 				break;
  94:../../../../tmk_core/protocol/lufa/LUFA-git/LUFA/Drivers/USB/Core/DeviceStandardReq.c **** 			case REQ_GetDescriptor:
  95:../../../../tmk_core/protocol/lufa/LUFA-git/LUFA/Drivers/USB/Core/DeviceStandardReq.c **** 				if ((bmRequestType == (REQDIR_DEVICETOHOST | REQTYPE_STANDARD | REQREC_DEVICE)) ||
  96:../../../../tmk_core/protocol/lufa/LUFA-git/LUFA/Drivers/USB/Core/DeviceStandardReq.c **** 					(bmRequestType == (REQDIR_DEVICETOHOST | REQTYPE_STANDARD | REQREC_INTERFACE)))
  97:../../../../tmk_core/protocol/lufa/LUFA-git/LUFA/Drivers/USB/Core/DeviceStandardReq.c **** 				{
  98:../../../../tmk_core/protocol/lufa/LUFA-git/LUFA/Drivers/USB/Core/DeviceStandardReq.c **** 					USB_Device_GetDescriptor();
  99:../../../../tmk_core/protocol/lufa/LUFA-git/LUFA/Drivers/USB/Core/DeviceStandardReq.c **** 				}
 100:../../../../tmk_core/protocol/lufa/LUFA-git/LUFA/Drivers/USB/Core/DeviceStandardReq.c **** 
 101:../../../../tmk_core/protocol/lufa/LUFA-git/LUFA/Drivers/USB/Core/DeviceStandardReq.c **** 				break;
 102:../../../../tmk_core/protocol/lufa/LUFA-git/LUFA/Drivers/USB/Core/DeviceStandardReq.c **** 			case REQ_GetConfiguration:
 103:../../../../tmk_core/protocol/lufa/LUFA-git/LUFA/Drivers/USB/Core/DeviceStandardReq.c **** 				if (bmRequestType == (REQDIR_DEVICETOHOST | REQTYPE_STANDARD | REQREC_DEVICE))
 104:../../../../tmk_core/protocol/lufa/LUFA-git/LUFA/Drivers/USB/Core/DeviceStandardReq.c **** 				  USB_Device_GetConfiguration();
 105:../../../../tmk_core/protocol/lufa/LUFA-git/LUFA/Drivers/USB/Core/DeviceStandardReq.c **** 
 106:../../../../tmk_core/protocol/lufa/LUFA-git/LUFA/Drivers/USB/Core/DeviceStandardReq.c **** 				break;
 107:../../../../tmk_core/protocol/lufa/LUFA-git/LUFA/Drivers/USB/Core/DeviceStandardReq.c **** 			case REQ_SetConfiguration:
 108:../../../../tmk_core/protocol/lufa/LUFA-git/LUFA/Drivers/USB/Core/DeviceStandardReq.c **** 				if (bmRequestType == (REQDIR_HOSTTODEVICE | REQTYPE_STANDARD | REQREC_DEVICE))
 109:../../../../tmk_core/protocol/lufa/LUFA-git/LUFA/Drivers/USB/Core/DeviceStandardReq.c **** 				  USB_Device_SetConfiguration();
 110:../../../../tmk_core/protocol/lufa/LUFA-git/LUFA/Drivers/USB/Core/DeviceStandardReq.c **** 
 111:../../../../tmk_core/protocol/lufa/LUFA-git/LUFA/Drivers/USB/Core/DeviceStandardReq.c **** 				break;
 112:../../../../tmk_core/protocol/lufa/LUFA-git/LUFA/Drivers/USB/Core/DeviceStandardReq.c **** 
 113:../../../../tmk_core/protocol/lufa/LUFA-git/LUFA/Drivers/USB/Core/DeviceStandardReq.c **** 			default:
 114:../../../../tmk_core/protocol/lufa/LUFA-git/LUFA/Drivers/USB/Core/DeviceStandardReq.c **** 				break;
 115:../../../../tmk_core/protocol/lufa/LUFA-git/LUFA/Drivers/USB/Core/DeviceStandardReq.c **** 		}
 116:../../../../tmk_core/protocol/lufa/LUFA-git/LUFA/Drivers/USB/Core/DeviceStandardReq.c **** 	}
 117:../../../../tmk_core/protocol/lufa/LUFA-git/LUFA/Drivers/USB/Core/DeviceStandardReq.c **** 
 118:../../../../tmk_core/protocol/lufa/LUFA-git/LUFA/Drivers/USB/Core/DeviceStandardReq.c **** 	if (Endpoint_IsSETUPReceived())
 119:../../../../tmk_core/protocol/lufa/LUFA-git/LUFA/Drivers/USB/Core/DeviceStandardReq.c **** 	{
 120:../../../../tmk_core/protocol/lufa/LUFA-git/LUFA/Drivers/USB/Core/DeviceStandardReq.c **** 		Endpoint_ClearSETUP();
 121:../../../../tmk_core/protocol/lufa/LUFA-git/LUFA/Drivers/USB/Core/DeviceStandardReq.c **** 		Endpoint_StallTransaction();
 122:../../../../tmk_core/protocol/lufa/LUFA-git/LUFA/Drivers/USB/Core/DeviceStandardReq.c **** 	}
 123:../../../../tmk_core/protocol/lufa/LUFA-git/LUFA/Drivers/USB/Core/DeviceStandardReq.c **** }
 124:../../../../tmk_core/protocol/lufa/LUFA-git/LUFA/Drivers/USB/Core/DeviceStandardReq.c **** 
 125:../../../../tmk_core/protocol/lufa/LUFA-git/LUFA/Drivers/USB/Core/DeviceStandardReq.c **** static void USB_Device_SetAddress(void)
 126:../../../../tmk_core/protocol/lufa/LUFA-git/LUFA/Drivers/USB/Core/DeviceStandardReq.c **** {
 127:../../../../tmk_core/protocol/lufa/LUFA-git/LUFA/Drivers/USB/Core/DeviceStandardReq.c **** 	uint8_t DeviceAddress = (USB_ControlRequest.wValue & 0x7F);
 128:../../../../tmk_core/protocol/lufa/LUFA-git/LUFA/Drivers/USB/Core/DeviceStandardReq.c **** 
 129:../../../../tmk_core/protocol/lufa/LUFA-git/LUFA/Drivers/USB/Core/DeviceStandardReq.c **** 	USB_Device_SetDeviceAddress(DeviceAddress);
 130:../../../../tmk_core/protocol/lufa/LUFA-git/LUFA/Drivers/USB/Core/DeviceStandardReq.c **** 
 131:../../../../tmk_core/protocol/lufa/LUFA-git/LUFA/Drivers/USB/Core/DeviceStandardReq.c **** 	Endpoint_ClearSETUP();
 132:../../../../tmk_core/protocol/lufa/LUFA-git/LUFA/Drivers/USB/Core/DeviceStandardReq.c **** 
 133:../../../../tmk_core/protocol/lufa/LUFA-git/LUFA/Drivers/USB/Core/DeviceStandardReq.c **** 	Endpoint_ClearStatusStage();
 134:../../../../tmk_core/protocol/lufa/LUFA-git/LUFA/Drivers/USB/Core/DeviceStandardReq.c **** 
 135:../../../../tmk_core/protocol/lufa/LUFA-git/LUFA/Drivers/USB/Core/DeviceStandardReq.c **** 	while (!(Endpoint_IsINReady()));
 136:../../../../tmk_core/protocol/lufa/LUFA-git/LUFA/Drivers/USB/Core/DeviceStandardReq.c **** 
 137:../../../../tmk_core/protocol/lufa/LUFA-git/LUFA/Drivers/USB/Core/DeviceStandardReq.c **** 	USB_Device_EnableDeviceAddress(DeviceAddress);
 138:../../../../tmk_core/protocol/lufa/LUFA-git/LUFA/Drivers/USB/Core/DeviceStandardReq.c **** 
 139:../../../../tmk_core/protocol/lufa/LUFA-git/LUFA/Drivers/USB/Core/DeviceStandardReq.c **** 	USB_DeviceState = (DeviceAddress) ? DEVICE_STATE_Addressed : DEVICE_STATE_Default;
 140:../../../../tmk_core/protocol/lufa/LUFA-git/LUFA/Drivers/USB/Core/DeviceStandardReq.c **** }
 141:../../../../tmk_core/protocol/lufa/LUFA-git/LUFA/Drivers/USB/Core/DeviceStandardReq.c **** 
 142:../../../../tmk_core/protocol/lufa/LUFA-git/LUFA/Drivers/USB/Core/DeviceStandardReq.c **** static void USB_Device_SetConfiguration(void)
 143:../../../../tmk_core/protocol/lufa/LUFA-git/LUFA/Drivers/USB/Core/DeviceStandardReq.c **** {
 144:../../../../tmk_core/protocol/lufa/LUFA-git/LUFA/Drivers/USB/Core/DeviceStandardReq.c **** 	#if defined(FIXED_NUM_CONFIGURATIONS)
 145:../../../../tmk_core/protocol/lufa/LUFA-git/LUFA/Drivers/USB/Core/DeviceStandardReq.c **** 	if ((uint8_t)USB_ControlRequest.wValue > FIXED_NUM_CONFIGURATIONS)
 146:../../../../tmk_core/protocol/lufa/LUFA-git/LUFA/Drivers/USB/Core/DeviceStandardReq.c **** 	  return;
 147:../../../../tmk_core/protocol/lufa/LUFA-git/LUFA/Drivers/USB/Core/DeviceStandardReq.c **** 	#else
 148:../../../../tmk_core/protocol/lufa/LUFA-git/LUFA/Drivers/USB/Core/DeviceStandardReq.c **** 	USB_Descriptor_Device_t* DevDescriptorPtr;
 149:../../../../tmk_core/protocol/lufa/LUFA-git/LUFA/Drivers/USB/Core/DeviceStandardReq.c **** 
 150:../../../../tmk_core/protocol/lufa/LUFA-git/LUFA/Drivers/USB/Core/DeviceStandardReq.c **** 	#if defined(ARCH_HAS_MULTI_ADDRESS_SPACE)
 151:../../../../tmk_core/protocol/lufa/LUFA-git/LUFA/Drivers/USB/Core/DeviceStandardReq.c **** 		#if defined(USE_FLASH_DESCRIPTORS)
 152:../../../../tmk_core/protocol/lufa/LUFA-git/LUFA/Drivers/USB/Core/DeviceStandardReq.c **** 			#define MemoryAddressSpace  MEMSPACE_FLASH
 153:../../../../tmk_core/protocol/lufa/LUFA-git/LUFA/Drivers/USB/Core/DeviceStandardReq.c **** 		#elif defined(USE_EEPROM_DESCRIPTORS)
 154:../../../../tmk_core/protocol/lufa/LUFA-git/LUFA/Drivers/USB/Core/DeviceStandardReq.c **** 			#define MemoryAddressSpace  MEMSPACE_EEPROM
 155:../../../../tmk_core/protocol/lufa/LUFA-git/LUFA/Drivers/USB/Core/DeviceStandardReq.c **** 		#elif defined(USE_SRAM_DESCRIPTORS)
 156:../../../../tmk_core/protocol/lufa/LUFA-git/LUFA/Drivers/USB/Core/DeviceStandardReq.c **** 			#define MemoryAddressSpace  MEMSPACE_SRAM
 157:../../../../tmk_core/protocol/lufa/LUFA-git/LUFA/Drivers/USB/Core/DeviceStandardReq.c **** 		#else
 158:../../../../tmk_core/protocol/lufa/LUFA-git/LUFA/Drivers/USB/Core/DeviceStandardReq.c **** 			uint8_t MemoryAddressSpace;
 159:../../../../tmk_core/protocol/lufa/LUFA-git/LUFA/Drivers/USB/Core/DeviceStandardReq.c **** 		#endif
 160:../../../../tmk_core/protocol/lufa/LUFA-git/LUFA/Drivers/USB/Core/DeviceStandardReq.c **** 	#endif
 161:../../../../tmk_core/protocol/lufa/LUFA-git/LUFA/Drivers/USB/Core/DeviceStandardReq.c **** 
 162:../../../../tmk_core/protocol/lufa/LUFA-git/LUFA/Drivers/USB/Core/DeviceStandardReq.c **** 	if (CALLBACK_USB_GetDescriptor((DTYPE_Device << 8), 0, (void*)&DevDescriptorPtr
 163:../../../../tmk_core/protocol/lufa/LUFA-git/LUFA/Drivers/USB/Core/DeviceStandardReq.c **** 	#if defined(ARCH_HAS_MULTI_ADDRESS_SPACE) && \
 164:../../../../tmk_core/protocol/lufa/LUFA-git/LUFA/Drivers/USB/Core/DeviceStandardReq.c **** 	    !(defined(USE_FLASH_DESCRIPTORS) || defined(USE_EEPROM_DESCRIPTORS) || defined(USE_RAM_DESCRIP
 165:../../../../tmk_core/protocol/lufa/LUFA-git/LUFA/Drivers/USB/Core/DeviceStandardReq.c **** 	                               , &MemoryAddressSpace
 166:../../../../tmk_core/protocol/lufa/LUFA-git/LUFA/Drivers/USB/Core/DeviceStandardReq.c **** 	#endif
 167:../../../../tmk_core/protocol/lufa/LUFA-git/LUFA/Drivers/USB/Core/DeviceStandardReq.c **** 	                               ) == NO_DESCRIPTOR)
 168:../../../../tmk_core/protocol/lufa/LUFA-git/LUFA/Drivers/USB/Core/DeviceStandardReq.c **** 	{
 169:../../../../tmk_core/protocol/lufa/LUFA-git/LUFA/Drivers/USB/Core/DeviceStandardReq.c **** 		return;
 170:../../../../tmk_core/protocol/lufa/LUFA-git/LUFA/Drivers/USB/Core/DeviceStandardReq.c **** 	}
 171:../../../../tmk_core/protocol/lufa/LUFA-git/LUFA/Drivers/USB/Core/DeviceStandardReq.c **** 
 172:../../../../tmk_core/protocol/lufa/LUFA-git/LUFA/Drivers/USB/Core/DeviceStandardReq.c **** 	#if defined(ARCH_HAS_MULTI_ADDRESS_SPACE)
 173:../../../../tmk_core/protocol/lufa/LUFA-git/LUFA/Drivers/USB/Core/DeviceStandardReq.c **** 	if (MemoryAddressSpace == MEMSPACE_FLASH)
 174:../../../../tmk_core/protocol/lufa/LUFA-git/LUFA/Drivers/USB/Core/DeviceStandardReq.c **** 	{
 175:../../../../tmk_core/protocol/lufa/LUFA-git/LUFA/Drivers/USB/Core/DeviceStandardReq.c **** 		if (((uint8_t)USB_ControlRequest.wValue > pgm_read_byte(&DevDescriptorPtr->NumberOfConfigurations
 176:../../../../tmk_core/protocol/lufa/LUFA-git/LUFA/Drivers/USB/Core/DeviceStandardReq.c **** 		  return;
 177:../../../../tmk_core/protocol/lufa/LUFA-git/LUFA/Drivers/USB/Core/DeviceStandardReq.c **** 	}
 178:../../../../tmk_core/protocol/lufa/LUFA-git/LUFA/Drivers/USB/Core/DeviceStandardReq.c **** 	else if (MemoryAddressSpace == MEMSPACE_EEPROM)
 179:../../../../tmk_core/protocol/lufa/LUFA-git/LUFA/Drivers/USB/Core/DeviceStandardReq.c **** 	{
 180:../../../../tmk_core/protocol/lufa/LUFA-git/LUFA/Drivers/USB/Core/DeviceStandardReq.c **** 		if (((uint8_t)USB_ControlRequest.wValue > eeprom_read_byte(&DevDescriptorPtr->NumberOfConfigurati
 181:../../../../tmk_core/protocol/lufa/LUFA-git/LUFA/Drivers/USB/Core/DeviceStandardReq.c **** 		  return;
 182:../../../../tmk_core/protocol/lufa/LUFA-git/LUFA/Drivers/USB/Core/DeviceStandardReq.c **** 	}
 183:../../../../tmk_core/protocol/lufa/LUFA-git/LUFA/Drivers/USB/Core/DeviceStandardReq.c **** 	else
 184:../../../../tmk_core/protocol/lufa/LUFA-git/LUFA/Drivers/USB/Core/DeviceStandardReq.c **** 	{
 185:../../../../tmk_core/protocol/lufa/LUFA-git/LUFA/Drivers/USB/Core/DeviceStandardReq.c **** 		if ((uint8_t)USB_ControlRequest.wValue > DevDescriptorPtr->NumberOfConfigurations)
 186:../../../../tmk_core/protocol/lufa/LUFA-git/LUFA/Drivers/USB/Core/DeviceStandardReq.c **** 		  return;
 187:../../../../tmk_core/protocol/lufa/LUFA-git/LUFA/Drivers/USB/Core/DeviceStandardReq.c **** 	}
 188:../../../../tmk_core/protocol/lufa/LUFA-git/LUFA/Drivers/USB/Core/DeviceStandardReq.c **** 	#else
 189:../../../../tmk_core/protocol/lufa/LUFA-git/LUFA/Drivers/USB/Core/DeviceStandardReq.c **** 	if ((uint8_t)USB_ControlRequest.wValue > DevDescriptorPtr->NumberOfConfigurations)
 190:../../../../tmk_core/protocol/lufa/LUFA-git/LUFA/Drivers/USB/Core/DeviceStandardReq.c **** 	  return;
 191:../../../../tmk_core/protocol/lufa/LUFA-git/LUFA/Drivers/USB/Core/DeviceStandardReq.c **** 	#endif
 192:../../../../tmk_core/protocol/lufa/LUFA-git/LUFA/Drivers/USB/Core/DeviceStandardReq.c **** 	#endif
 193:../../../../tmk_core/protocol/lufa/LUFA-git/LUFA/Drivers/USB/Core/DeviceStandardReq.c **** 
 194:../../../../tmk_core/protocol/lufa/LUFA-git/LUFA/Drivers/USB/Core/DeviceStandardReq.c **** 	Endpoint_ClearSETUP();
 195:../../../../tmk_core/protocol/lufa/LUFA-git/LUFA/Drivers/USB/Core/DeviceStandardReq.c **** 
 196:../../../../tmk_core/protocol/lufa/LUFA-git/LUFA/Drivers/USB/Core/DeviceStandardReq.c **** 	USB_Device_ConfigurationNumber = (uint8_t)USB_ControlRequest.wValue;
 197:../../../../tmk_core/protocol/lufa/LUFA-git/LUFA/Drivers/USB/Core/DeviceStandardReq.c **** 
 198:../../../../tmk_core/protocol/lufa/LUFA-git/LUFA/Drivers/USB/Core/DeviceStandardReq.c **** 	Endpoint_ClearStatusStage();
 199:../../../../tmk_core/protocol/lufa/LUFA-git/LUFA/Drivers/USB/Core/DeviceStandardReq.c **** 
 200:../../../../tmk_core/protocol/lufa/LUFA-git/LUFA/Drivers/USB/Core/DeviceStandardReq.c **** 	if (USB_Device_ConfigurationNumber)
 201:../../../../tmk_core/protocol/lufa/LUFA-git/LUFA/Drivers/USB/Core/DeviceStandardReq.c **** 	  USB_DeviceState = DEVICE_STATE_Configured;
 202:../../../../tmk_core/protocol/lufa/LUFA-git/LUFA/Drivers/USB/Core/DeviceStandardReq.c **** 	else
 203:../../../../tmk_core/protocol/lufa/LUFA-git/LUFA/Drivers/USB/Core/DeviceStandardReq.c **** 	  USB_DeviceState = (USB_Device_IsAddressSet()) ? DEVICE_STATE_Configured : DEVICE_STATE_Powered;
 204:../../../../tmk_core/protocol/lufa/LUFA-git/LUFA/Drivers/USB/Core/DeviceStandardReq.c **** 
 205:../../../../tmk_core/protocol/lufa/LUFA-git/LUFA/Drivers/USB/Core/DeviceStandardReq.c **** 	EVENT_USB_Device_ConfigurationChanged();
 206:../../../../tmk_core/protocol/lufa/LUFA-git/LUFA/Drivers/USB/Core/DeviceStandardReq.c **** }
 207:../../../../tmk_core/protocol/lufa/LUFA-git/LUFA/Drivers/USB/Core/DeviceStandardReq.c **** 
 208:../../../../tmk_core/protocol/lufa/LUFA-git/LUFA/Drivers/USB/Core/DeviceStandardReq.c **** static void USB_Device_GetConfiguration(void)
 209:../../../../tmk_core/protocol/lufa/LUFA-git/LUFA/Drivers/USB/Core/DeviceStandardReq.c **** {
 210:../../../../tmk_core/protocol/lufa/LUFA-git/LUFA/Drivers/USB/Core/DeviceStandardReq.c **** 	Endpoint_ClearSETUP();
 211:../../../../tmk_core/protocol/lufa/LUFA-git/LUFA/Drivers/USB/Core/DeviceStandardReq.c **** 
 212:../../../../tmk_core/protocol/lufa/LUFA-git/LUFA/Drivers/USB/Core/DeviceStandardReq.c **** 	Endpoint_Write_8(USB_Device_ConfigurationNumber);
 213:../../../../tmk_core/protocol/lufa/LUFA-git/LUFA/Drivers/USB/Core/DeviceStandardReq.c **** 	Endpoint_ClearIN();
 214:../../../../tmk_core/protocol/lufa/LUFA-git/LUFA/Drivers/USB/Core/DeviceStandardReq.c **** 
 215:../../../../tmk_core/protocol/lufa/LUFA-git/LUFA/Drivers/USB/Core/DeviceStandardReq.c **** 	Endpoint_ClearStatusStage();
 216:../../../../tmk_core/protocol/lufa/LUFA-git/LUFA/Drivers/USB/Core/DeviceStandardReq.c **** }
 217:../../../../tmk_core/protocol/lufa/LUFA-git/LUFA/Drivers/USB/Core/DeviceStandardReq.c **** 
 218:../../../../tmk_core/protocol/lufa/LUFA-git/LUFA/Drivers/USB/Core/DeviceStandardReq.c **** #if !defined(NO_INTERNAL_SERIAL) && (USE_INTERNAL_SERIAL != NO_DESCRIPTOR)
 219:../../../../tmk_core/protocol/lufa/LUFA-git/LUFA/Drivers/USB/Core/DeviceStandardReq.c **** static void USB_Device_GetInternalSerialDescriptor(void)
 220:../../../../tmk_core/protocol/lufa/LUFA-git/LUFA/Drivers/USB/Core/DeviceStandardReq.c **** {
 221:../../../../tmk_core/protocol/lufa/LUFA-git/LUFA/Drivers/USB/Core/DeviceStandardReq.c **** 	struct
 222:../../../../tmk_core/protocol/lufa/LUFA-git/LUFA/Drivers/USB/Core/DeviceStandardReq.c **** 	{
 223:../../../../tmk_core/protocol/lufa/LUFA-git/LUFA/Drivers/USB/Core/DeviceStandardReq.c **** 		USB_Descriptor_Header_t Header;
 224:../../../../tmk_core/protocol/lufa/LUFA-git/LUFA/Drivers/USB/Core/DeviceStandardReq.c **** 		uint16_t                UnicodeString[INTERNAL_SERIAL_LENGTH_BITS / 4];
 225:../../../../tmk_core/protocol/lufa/LUFA-git/LUFA/Drivers/USB/Core/DeviceStandardReq.c **** 	} SignatureDescriptor;
 226:../../../../tmk_core/protocol/lufa/LUFA-git/LUFA/Drivers/USB/Core/DeviceStandardReq.c **** 
 227:../../../../tmk_core/protocol/lufa/LUFA-git/LUFA/Drivers/USB/Core/DeviceStandardReq.c **** 	SignatureDescriptor.Header.Type = DTYPE_String;
 228:../../../../tmk_core/protocol/lufa/LUFA-git/LUFA/Drivers/USB/Core/DeviceStandardReq.c **** 	SignatureDescriptor.Header.Size = USB_STRING_LEN(INTERNAL_SERIAL_LENGTH_BITS / 4);
 229:../../../../tmk_core/protocol/lufa/LUFA-git/LUFA/Drivers/USB/Core/DeviceStandardReq.c **** 
 230:../../../../tmk_core/protocol/lufa/LUFA-git/LUFA/Drivers/USB/Core/DeviceStandardReq.c **** 	USB_Device_GetSerialString(SignatureDescriptor.UnicodeString);
 231:../../../../tmk_core/protocol/lufa/LUFA-git/LUFA/Drivers/USB/Core/DeviceStandardReq.c **** 
 232:../../../../tmk_core/protocol/lufa/LUFA-git/LUFA/Drivers/USB/Core/DeviceStandardReq.c **** 	Endpoint_ClearSETUP();
 233:../../../../tmk_core/protocol/lufa/LUFA-git/LUFA/Drivers/USB/Core/DeviceStandardReq.c **** 
 234:../../../../tmk_core/protocol/lufa/LUFA-git/LUFA/Drivers/USB/Core/DeviceStandardReq.c **** 	Endpoint_Write_Control_Stream_LE(&SignatureDescriptor, sizeof(SignatureDescriptor));
 235:../../../../tmk_core/protocol/lufa/LUFA-git/LUFA/Drivers/USB/Core/DeviceStandardReq.c **** 	Endpoint_ClearOUT();
 236:../../../../tmk_core/protocol/lufa/LUFA-git/LUFA/Drivers/USB/Core/DeviceStandardReq.c **** }
 237:../../../../tmk_core/protocol/lufa/LUFA-git/LUFA/Drivers/USB/Core/DeviceStandardReq.c **** #endif
 238:../../../../tmk_core/protocol/lufa/LUFA-git/LUFA/Drivers/USB/Core/DeviceStandardReq.c **** 
 239:../../../../tmk_core/protocol/lufa/LUFA-git/LUFA/Drivers/USB/Core/DeviceStandardReq.c **** static void USB_Device_GetDescriptor(void)
 240:../../../../tmk_core/protocol/lufa/LUFA-git/LUFA/Drivers/USB/Core/DeviceStandardReq.c **** {
 241:../../../../tmk_core/protocol/lufa/LUFA-git/LUFA/Drivers/USB/Core/DeviceStandardReq.c **** 	const void* DescriptorPointer;
 242:../../../../tmk_core/protocol/lufa/LUFA-git/LUFA/Drivers/USB/Core/DeviceStandardReq.c **** 	uint16_t    DescriptorSize;
 243:../../../../tmk_core/protocol/lufa/LUFA-git/LUFA/Drivers/USB/Core/DeviceStandardReq.c **** 
 244:../../../../tmk_core/protocol/lufa/LUFA-git/LUFA/Drivers/USB/Core/DeviceStandardReq.c **** 	#if defined(ARCH_HAS_MULTI_ADDRESS_SPACE) && \
 245:../../../../tmk_core/protocol/lufa/LUFA-git/LUFA/Drivers/USB/Core/DeviceStandardReq.c **** 	    !(defined(USE_FLASH_DESCRIPTORS) || defined(USE_EEPROM_DESCRIPTORS) || defined(USE_RAM_DESCRIP
 246:../../../../tmk_core/protocol/lufa/LUFA-git/LUFA/Drivers/USB/Core/DeviceStandardReq.c **** 	uint8_t DescriptorAddressSpace;
 247:../../../../tmk_core/protocol/lufa/LUFA-git/LUFA/Drivers/USB/Core/DeviceStandardReq.c **** 	#endif
 248:../../../../tmk_core/protocol/lufa/LUFA-git/LUFA/Drivers/USB/Core/DeviceStandardReq.c **** 
 249:../../../../tmk_core/protocol/lufa/LUFA-git/LUFA/Drivers/USB/Core/DeviceStandardReq.c **** 	#if !defined(NO_INTERNAL_SERIAL) && (USE_INTERNAL_SERIAL != NO_DESCRIPTOR)
 250:../../../../tmk_core/protocol/lufa/LUFA-git/LUFA/Drivers/USB/Core/DeviceStandardReq.c **** 	if (USB_ControlRequest.wValue == ((DTYPE_String << 8) | USE_INTERNAL_SERIAL))
 251:../../../../tmk_core/protocol/lufa/LUFA-git/LUFA/Drivers/USB/Core/DeviceStandardReq.c **** 	{
 252:../../../../tmk_core/protocol/lufa/LUFA-git/LUFA/Drivers/USB/Core/DeviceStandardReq.c **** 		USB_Device_GetInternalSerialDescriptor();
 253:../../../../tmk_core/protocol/lufa/LUFA-git/LUFA/Drivers/USB/Core/DeviceStandardReq.c **** 		return;
 254:../../../../tmk_core/protocol/lufa/LUFA-git/LUFA/Drivers/USB/Core/DeviceStandardReq.c **** 	}
 255:../../../../tmk_core/protocol/lufa/LUFA-git/LUFA/Drivers/USB/Core/DeviceStandardReq.c **** 	#endif
 256:../../../../tmk_core/protocol/lufa/LUFA-git/LUFA/Drivers/USB/Core/DeviceStandardReq.c **** 
 257:../../../../tmk_core/protocol/lufa/LUFA-git/LUFA/Drivers/USB/Core/DeviceStandardReq.c **** 	if ((DescriptorSize = CALLBACK_USB_GetDescriptor(USB_ControlRequest.wValue, USB_ControlRequest.wIn
 258:../../../../tmk_core/protocol/lufa/LUFA-git/LUFA/Drivers/USB/Core/DeviceStandardReq.c **** 	                                                 &DescriptorPointer
 259:../../../../tmk_core/protocol/lufa/LUFA-git/LUFA/Drivers/USB/Core/DeviceStandardReq.c **** 	#if defined(ARCH_HAS_MULTI_ADDRESS_SPACE) && \
 260:../../../../tmk_core/protocol/lufa/LUFA-git/LUFA/Drivers/USB/Core/DeviceStandardReq.c **** 	    !(defined(USE_FLASH_DESCRIPTORS) || defined(USE_EEPROM_DESCRIPTORS) || defined(USE_RAM_DESCRIP
 261:../../../../tmk_core/protocol/lufa/LUFA-git/LUFA/Drivers/USB/Core/DeviceStandardReq.c **** 	                                                 , &DescriptorAddressSpace
 262:../../../../tmk_core/protocol/lufa/LUFA-git/LUFA/Drivers/USB/Core/DeviceStandardReq.c **** 	#endif
 263:../../../../tmk_core/protocol/lufa/LUFA-git/LUFA/Drivers/USB/Core/DeviceStandardReq.c **** 													 )) == NO_DESCRIPTOR)
 264:../../../../tmk_core/protocol/lufa/LUFA-git/LUFA/Drivers/USB/Core/DeviceStandardReq.c **** 	{
 265:../../../../tmk_core/protocol/lufa/LUFA-git/LUFA/Drivers/USB/Core/DeviceStandardReq.c **** 		return;
 266:../../../../tmk_core/protocol/lufa/LUFA-git/LUFA/Drivers/USB/Core/DeviceStandardReq.c **** 	}
 267:../../../../tmk_core/protocol/lufa/LUFA-git/LUFA/Drivers/USB/Core/DeviceStandardReq.c **** 
 268:../../../../tmk_core/protocol/lufa/LUFA-git/LUFA/Drivers/USB/Core/DeviceStandardReq.c **** 	Endpoint_ClearSETUP();
 269:../../../../tmk_core/protocol/lufa/LUFA-git/LUFA/Drivers/USB/Core/DeviceStandardReq.c **** 
 270:../../../../tmk_core/protocol/lufa/LUFA-git/LUFA/Drivers/USB/Core/DeviceStandardReq.c **** 	#if defined(USE_RAM_DESCRIPTORS) || !defined(ARCH_HAS_MULTI_ADDRESS_SPACE)
 271:../../../../tmk_core/protocol/lufa/LUFA-git/LUFA/Drivers/USB/Core/DeviceStandardReq.c **** 	Endpoint_Write_Control_Stream_LE(DescriptorPointer, DescriptorSize);
 272:../../../../tmk_core/protocol/lufa/LUFA-git/LUFA/Drivers/USB/Core/DeviceStandardReq.c **** 	#elif defined(USE_EEPROM_DESCRIPTORS)
 273:../../../../tmk_core/protocol/lufa/LUFA-git/LUFA/Drivers/USB/Core/DeviceStandardReq.c **** 	Endpoint_Write_Control_EStream_LE(DescriptorPointer, DescriptorSize);
 274:../../../../tmk_core/protocol/lufa/LUFA-git/LUFA/Drivers/USB/Core/DeviceStandardReq.c **** 	#elif defined(USE_FLASH_DESCRIPTORS)
 275:../../../../tmk_core/protocol/lufa/LUFA-git/LUFA/Drivers/USB/Core/DeviceStandardReq.c **** 	Endpoint_Write_Control_PStream_LE(DescriptorPointer, DescriptorSize);
 276:../../../../tmk_core/protocol/lufa/LUFA-git/LUFA/Drivers/USB/Core/DeviceStandardReq.c **** 	#else
 277:../../../../tmk_core/protocol/lufa/LUFA-git/LUFA/Drivers/USB/Core/DeviceStandardReq.c **** 	if (DescriptorAddressSpace == MEMSPACE_FLASH)
 278:../../../../tmk_core/protocol/lufa/LUFA-git/LUFA/Drivers/USB/Core/DeviceStandardReq.c **** 	  Endpoint_Write_Control_PStream_LE(DescriptorPointer, DescriptorSize);
 279:../../../../tmk_core/protocol/lufa/LUFA-git/LUFA/Drivers/USB/Core/DeviceStandardReq.c **** 	else if (DescriptorAddressSpace == MEMSPACE_EEPROM)
 280:../../../../tmk_core/protocol/lufa/LUFA-git/LUFA/Drivers/USB/Core/DeviceStandardReq.c **** 	  Endpoint_Write_Control_EStream_LE(DescriptorPointer, DescriptorSize);
 281:../../../../tmk_core/protocol/lufa/LUFA-git/LUFA/Drivers/USB/Core/DeviceStandardReq.c **** 	else
 282:../../../../tmk_core/protocol/lufa/LUFA-git/LUFA/Drivers/USB/Core/DeviceStandardReq.c **** 	  Endpoint_Write_Control_Stream_LE(DescriptorPointer, DescriptorSize);
 283:../../../../tmk_core/protocol/lufa/LUFA-git/LUFA/Drivers/USB/Core/DeviceStandardReq.c **** 	#endif
 284:../../../../tmk_core/protocol/lufa/LUFA-git/LUFA/Drivers/USB/Core/DeviceStandardReq.c **** 
 285:../../../../tmk_core/protocol/lufa/LUFA-git/LUFA/Drivers/USB/Core/DeviceStandardReq.c **** 	Endpoint_ClearOUT();
 286:../../../../tmk_core/protocol/lufa/LUFA-git/LUFA/Drivers/USB/Core/DeviceStandardReq.c **** }
 287:../../../../tmk_core/protocol/lufa/LUFA-git/LUFA/Drivers/USB/Core/DeviceStandardReq.c **** 
 288:../../../../tmk_core/protocol/lufa/LUFA-git/LUFA/Drivers/USB/Core/DeviceStandardReq.c **** static void USB_Device_GetStatus(void)
 289:../../../../tmk_core/protocol/lufa/LUFA-git/LUFA/Drivers/USB/Core/DeviceStandardReq.c **** {
 290:../../../../tmk_core/protocol/lufa/LUFA-git/LUFA/Drivers/USB/Core/DeviceStandardReq.c **** 	uint8_t CurrentStatus = 0;
 121               		.loc 1 290 0 is_stmt 1
 122 0072 8091 0000 		lds r24,USB_Device_CurrentlySelfPowered
 123               	.LVL6:
 124               	.LBB176:
 125               	.LBB177:
 291:../../../../tmk_core/protocol/lufa/LUFA-git/LUFA/Drivers/USB/Core/DeviceStandardReq.c **** 
 292:../../../../tmk_core/protocol/lufa/LUFA-git/LUFA/Drivers/USB/Core/DeviceStandardReq.c **** 	switch (USB_ControlRequest.bmRequestType)
 293:../../../../tmk_core/protocol/lufa/LUFA-git/LUFA/Drivers/USB/Core/DeviceStandardReq.c **** 	{
 294:../../../../tmk_core/protocol/lufa/LUFA-git/LUFA/Drivers/USB/Core/DeviceStandardReq.c **** 		case (REQDIR_DEVICETOHOST | REQTYPE_STANDARD | REQREC_DEVICE):
 295:../../../../tmk_core/protocol/lufa/LUFA-git/LUFA/Drivers/USB/Core/DeviceStandardReq.c **** 			#if !defined(NO_DEVICE_SELF_POWER)
 296:../../../../tmk_core/protocol/lufa/LUFA-git/LUFA/Drivers/USB/Core/DeviceStandardReq.c **** 			if (USB_Device_CurrentlySelfPowered)
 297:../../../../tmk_core/protocol/lufa/LUFA-git/LUFA/Drivers/USB/Core/DeviceStandardReq.c **** 			  CurrentStatus |= FEATURE_SELFPOWERED_ENABLED;
 298:../../../../tmk_core/protocol/lufa/LUFA-git/LUFA/Drivers/USB/Core/DeviceStandardReq.c **** 			#endif
 299:../../../../tmk_core/protocol/lufa/LUFA-git/LUFA/Drivers/USB/Core/DeviceStandardReq.c **** 
 300:../../../../tmk_core/protocol/lufa/LUFA-git/LUFA/Drivers/USB/Core/DeviceStandardReq.c **** 			#if !defined(NO_DEVICE_REMOTE_WAKEUP)
 301:../../../../tmk_core/protocol/lufa/LUFA-git/LUFA/Drivers/USB/Core/DeviceStandardReq.c **** 			if (USB_Device_RemoteWakeupEnabled)
 126               		.loc 1 301 0
 127 0076 9091 0000 		lds r25,USB_Device_RemoteWakeupEnabled
 128 007a 9923      		tst r25
 129 007c 01F0      		breq .L13
 302:../../../../tmk_core/protocol/lufa/LUFA-git/LUFA/Drivers/USB/Core/DeviceStandardReq.c **** 			  CurrentStatus |= FEATURE_REMOTE_WAKEUP_ENABLED;
 130               		.loc 1 302 0
 131 007e 8260      		ori r24,lo8(2)
 132               	.LVL7:
 133 0080 00C0      		rjmp .L13
 134               	.LVL8:
 135               	.L12:
 136               	.LBE177:
 303:../../../../tmk_core/protocol/lufa/LUFA-git/LUFA/Drivers/USB/Core/DeviceStandardReq.c **** 			#endif
 304:../../../../tmk_core/protocol/lufa/LUFA-git/LUFA/Drivers/USB/Core/DeviceStandardReq.c **** 			break;
 305:../../../../tmk_core/protocol/lufa/LUFA-git/LUFA/Drivers/USB/Core/DeviceStandardReq.c **** 		case (REQDIR_DEVICETOHOST | REQTYPE_STANDARD | REQREC_ENDPOINT):
 306:../../../../tmk_core/protocol/lufa/LUFA-git/LUFA/Drivers/USB/Core/DeviceStandardReq.c **** 			#if !defined(CONTROL_ONLY_DEVICE)
 307:../../../../tmk_core/protocol/lufa/LUFA-git/LUFA/Drivers/USB/Core/DeviceStandardReq.c **** 			Endpoint_SelectEndpoint((uint8_t)USB_ControlRequest.wIndex & ENDPOINT_EPNUM_MASK);
 137               		.loc 1 307 0
 138 0082 8091 0000 		lds r24,USB_ControlRequest+4
 139 0086 9091 0000 		lds r25,USB_ControlRequest+4+1
 140               	.LVL9:
 141 008a 8F70      		andi r24,15
 142 008c 9927      		clr r25
 143               	.LBB188:
 144               	.LBB178:
 145               	.LBB179:
 270:../../../../tmk_core/protocol/lufa/LUFA-git/LUFA/Drivers/USB/Core/AVR8/../AVR8/Endpoint_AVR8.h **** 					UENUM = (Address & ENDPOINT_EPNUM_MASK);
 146               		.loc 2 270 0
 147 008e 8093 E900 		sts 233,r24
 148               	.LBE179:
 149               	.LBE178:
 150               	.LBB180:
 151               	.LBB181:
 513:../../../../tmk_core/protocol/lufa/LUFA-git/LUFA/Drivers/USB/Core/AVR8/../AVR8/Endpoint_AVR8.h **** 				return ((UECONX & (1 << STALLRQ)) ? true : false);
 152               		.loc 2 513 0
 153 0092 8091 EB00 		lds r24,235
 154 0096 85FB      		bst r24,5
 155 0098 8827      		clr r24
 156 009a 80F9      		bld r24,0
 157               	.LVL10:
 158               	.LBE181:
 159               	.LBE180:
 160               	.LBB182:
 161               	.LBB183:
 270:../../../../tmk_core/protocol/lufa/LUFA-git/LUFA/Drivers/USB/Core/AVR8/../AVR8/Endpoint_AVR8.h **** 					UENUM = (Address & ENDPOINT_EPNUM_MASK);
 162               		.loc 2 270 0
 163 009c 1092 E900 		sts 233,__zero_reg__
 164               	.LVL11:
 165               	.L13:
 166               	.LBE183:
 167               	.LBE182:
 168               	.LBB184:
 169               	.LBB185:
 444:../../../../tmk_core/protocol/lufa/LUFA-git/LUFA/Drivers/USB/Core/AVR8/../AVR8/Endpoint_AVR8.h **** 				UEINTX &= ~(1 << RXSTPI);
 170               		.loc 2 444 0
 171 00a0 9091 E800 		lds r25,232
 172 00a4 977F      		andi r25,lo8(-9)
 173 00a6 9093 E800 		sts 232,r25
 174               	.LVL12:
 175               	.LBE185:
 176               	.LBE184:
 177               	.LBB186:
 178               	.LBB187:
 543:../../../../tmk_core/protocol/lufa/LUFA-git/LUFA/Drivers/USB/Core/AVR8/../AVR8/Endpoint_AVR8.h **** 			}
 544:../../../../tmk_core/protocol/lufa/LUFA-git/LUFA/Drivers/USB/Core/AVR8/../AVR8/Endpoint_AVR8.h **** 
 545:../../../../tmk_core/protocol/lufa/LUFA-git/LUFA/Drivers/USB/Core/AVR8/../AVR8/Endpoint_AVR8.h **** 			/** Writes one byte to the currently selected endpoint's bank, for IN direction endpoints.
 546:../../../../tmk_core/protocol/lufa/LUFA-git/LUFA/Drivers/USB/Core/AVR8/../AVR8/Endpoint_AVR8.h **** 			 *
 547:../../../../tmk_core/protocol/lufa/LUFA-git/LUFA/Drivers/USB/Core/AVR8/../AVR8/Endpoint_AVR8.h **** 			 *  \ingroup Group_EndpointPrimitiveRW_AVR8
 548:../../../../tmk_core/protocol/lufa/LUFA-git/LUFA/Drivers/USB/Core/AVR8/../AVR8/Endpoint_AVR8.h **** 			 *
 549:../../../../tmk_core/protocol/lufa/LUFA-git/LUFA/Drivers/USB/Core/AVR8/../AVR8/Endpoint_AVR8.h **** 			 *  \param[in] Data  Data to write into the the currently selected endpoint's FIFO buffer.
 550:../../../../tmk_core/protocol/lufa/LUFA-git/LUFA/Drivers/USB/Core/AVR8/../AVR8/Endpoint_AVR8.h **** 			 */
 551:../../../../tmk_core/protocol/lufa/LUFA-git/LUFA/Drivers/USB/Core/AVR8/../AVR8/Endpoint_AVR8.h **** 			static inline void Endpoint_Write_8(const uint8_t Data) ATTR_ALWAYS_INLINE;
 552:../../../../tmk_core/protocol/lufa/LUFA-git/LUFA/Drivers/USB/Core/AVR8/../AVR8/Endpoint_AVR8.h **** 			static inline void Endpoint_Write_8(const uint8_t Data)
 553:../../../../tmk_core/protocol/lufa/LUFA-git/LUFA/Drivers/USB/Core/AVR8/../AVR8/Endpoint_AVR8.h **** 			{
 554:../../../../tmk_core/protocol/lufa/LUFA-git/LUFA/Drivers/USB/Core/AVR8/../AVR8/Endpoint_AVR8.h **** 				UEDATX = Data;
 555:../../../../tmk_core/protocol/lufa/LUFA-git/LUFA/Drivers/USB/Core/AVR8/../AVR8/Endpoint_AVR8.h **** 			}
 556:../../../../tmk_core/protocol/lufa/LUFA-git/LUFA/Drivers/USB/Core/AVR8/../AVR8/Endpoint_AVR8.h **** 
 557:../../../../tmk_core/protocol/lufa/LUFA-git/LUFA/Drivers/USB/Core/AVR8/../AVR8/Endpoint_AVR8.h **** 			/** Discards one byte from the currently selected endpoint's bank, for OUT direction endpoints.
 558:../../../../tmk_core/protocol/lufa/LUFA-git/LUFA/Drivers/USB/Core/AVR8/../AVR8/Endpoint_AVR8.h **** 			 *
 559:../../../../tmk_core/protocol/lufa/LUFA-git/LUFA/Drivers/USB/Core/AVR8/../AVR8/Endpoint_AVR8.h **** 			 *  \ingroup Group_EndpointPrimitiveRW_AVR8
 560:../../../../tmk_core/protocol/lufa/LUFA-git/LUFA/Drivers/USB/Core/AVR8/../AVR8/Endpoint_AVR8.h **** 			 */
 561:../../../../tmk_core/protocol/lufa/LUFA-git/LUFA/Drivers/USB/Core/AVR8/../AVR8/Endpoint_AVR8.h **** 			static inline void Endpoint_Discard_8(void) ATTR_ALWAYS_INLINE;
 562:../../../../tmk_core/protocol/lufa/LUFA-git/LUFA/Drivers/USB/Core/AVR8/../AVR8/Endpoint_AVR8.h **** 			static inline void Endpoint_Discard_8(void)
 563:../../../../tmk_core/protocol/lufa/LUFA-git/LUFA/Drivers/USB/Core/AVR8/../AVR8/Endpoint_AVR8.h **** 			{
 564:../../../../tmk_core/protocol/lufa/LUFA-git/LUFA/Drivers/USB/Core/AVR8/../AVR8/Endpoint_AVR8.h **** 				uint8_t Dummy;
 565:../../../../tmk_core/protocol/lufa/LUFA-git/LUFA/Drivers/USB/Core/AVR8/../AVR8/Endpoint_AVR8.h **** 
 566:../../../../tmk_core/protocol/lufa/LUFA-git/LUFA/Drivers/USB/Core/AVR8/../AVR8/Endpoint_AVR8.h **** 				Dummy = UEDATX;
 567:../../../../tmk_core/protocol/lufa/LUFA-git/LUFA/Drivers/USB/Core/AVR8/../AVR8/Endpoint_AVR8.h **** 
 568:../../../../tmk_core/protocol/lufa/LUFA-git/LUFA/Drivers/USB/Core/AVR8/../AVR8/Endpoint_AVR8.h **** 				(void)Dummy;
 569:../../../../tmk_core/protocol/lufa/LUFA-git/LUFA/Drivers/USB/Core/AVR8/../AVR8/Endpoint_AVR8.h **** 			}
 570:../../../../tmk_core/protocol/lufa/LUFA-git/LUFA/Drivers/USB/Core/AVR8/../AVR8/Endpoint_AVR8.h **** 
 571:../../../../tmk_core/protocol/lufa/LUFA-git/LUFA/Drivers/USB/Core/AVR8/../AVR8/Endpoint_AVR8.h **** 			/** Reads two bytes from the currently selected endpoint's bank in little endian format, for OUT
 572:../../../../tmk_core/protocol/lufa/LUFA-git/LUFA/Drivers/USB/Core/AVR8/../AVR8/Endpoint_AVR8.h **** 			 *  direction endpoints.
 573:../../../../tmk_core/protocol/lufa/LUFA-git/LUFA/Drivers/USB/Core/AVR8/../AVR8/Endpoint_AVR8.h **** 			 *
 574:../../../../tmk_core/protocol/lufa/LUFA-git/LUFA/Drivers/USB/Core/AVR8/../AVR8/Endpoint_AVR8.h **** 			 *  \ingroup Group_EndpointPrimitiveRW_AVR8
 575:../../../../tmk_core/protocol/lufa/LUFA-git/LUFA/Drivers/USB/Core/AVR8/../AVR8/Endpoint_AVR8.h **** 			 *
 576:../../../../tmk_core/protocol/lufa/LUFA-git/LUFA/Drivers/USB/Core/AVR8/../AVR8/Endpoint_AVR8.h **** 			 *  \return Next two bytes in the currently selected endpoint's FIFO buffer.
 577:../../../../tmk_core/protocol/lufa/LUFA-git/LUFA/Drivers/USB/Core/AVR8/../AVR8/Endpoint_AVR8.h **** 			 */
 578:../../../../tmk_core/protocol/lufa/LUFA-git/LUFA/Drivers/USB/Core/AVR8/../AVR8/Endpoint_AVR8.h **** 			static inline uint16_t Endpoint_Read_16_LE(void) ATTR_WARN_UNUSED_RESULT ATTR_ALWAYS_INLINE;
 579:../../../../tmk_core/protocol/lufa/LUFA-git/LUFA/Drivers/USB/Core/AVR8/../AVR8/Endpoint_AVR8.h **** 			static inline uint16_t Endpoint_Read_16_LE(void)
 580:../../../../tmk_core/protocol/lufa/LUFA-git/LUFA/Drivers/USB/Core/AVR8/../AVR8/Endpoint_AVR8.h **** 			{
 581:../../../../tmk_core/protocol/lufa/LUFA-git/LUFA/Drivers/USB/Core/AVR8/../AVR8/Endpoint_AVR8.h **** 				union
 582:../../../../tmk_core/protocol/lufa/LUFA-git/LUFA/Drivers/USB/Core/AVR8/../AVR8/Endpoint_AVR8.h **** 				{
 583:../../../../tmk_core/protocol/lufa/LUFA-git/LUFA/Drivers/USB/Core/AVR8/../AVR8/Endpoint_AVR8.h **** 					uint16_t Value;
 584:../../../../tmk_core/protocol/lufa/LUFA-git/LUFA/Drivers/USB/Core/AVR8/../AVR8/Endpoint_AVR8.h **** 					uint8_t  Bytes[2];
 585:../../../../tmk_core/protocol/lufa/LUFA-git/LUFA/Drivers/USB/Core/AVR8/../AVR8/Endpoint_AVR8.h **** 				} Data;
 586:../../../../tmk_core/protocol/lufa/LUFA-git/LUFA/Drivers/USB/Core/AVR8/../AVR8/Endpoint_AVR8.h **** 
 587:../../../../tmk_core/protocol/lufa/LUFA-git/LUFA/Drivers/USB/Core/AVR8/../AVR8/Endpoint_AVR8.h **** 				Data.Bytes[0] = UEDATX;
 588:../../../../tmk_core/protocol/lufa/LUFA-git/LUFA/Drivers/USB/Core/AVR8/../AVR8/Endpoint_AVR8.h **** 				Data.Bytes[1] = UEDATX;
 589:../../../../tmk_core/protocol/lufa/LUFA-git/LUFA/Drivers/USB/Core/AVR8/../AVR8/Endpoint_AVR8.h **** 
 590:../../../../tmk_core/protocol/lufa/LUFA-git/LUFA/Drivers/USB/Core/AVR8/../AVR8/Endpoint_AVR8.h **** 				return Data.Value;
 591:../../../../tmk_core/protocol/lufa/LUFA-git/LUFA/Drivers/USB/Core/AVR8/../AVR8/Endpoint_AVR8.h **** 			}
 592:../../../../tmk_core/protocol/lufa/LUFA-git/LUFA/Drivers/USB/Core/AVR8/../AVR8/Endpoint_AVR8.h **** 
 593:../../../../tmk_core/protocol/lufa/LUFA-git/LUFA/Drivers/USB/Core/AVR8/../AVR8/Endpoint_AVR8.h **** 			/** Reads two bytes from the currently selected endpoint's bank in big endian format, for OUT
 594:../../../../tmk_core/protocol/lufa/LUFA-git/LUFA/Drivers/USB/Core/AVR8/../AVR8/Endpoint_AVR8.h **** 			 *  direction endpoints.
 595:../../../../tmk_core/protocol/lufa/LUFA-git/LUFA/Drivers/USB/Core/AVR8/../AVR8/Endpoint_AVR8.h **** 			 *
 596:../../../../tmk_core/protocol/lufa/LUFA-git/LUFA/Drivers/USB/Core/AVR8/../AVR8/Endpoint_AVR8.h **** 			 *  \ingroup Group_EndpointPrimitiveRW_AVR8
 597:../../../../tmk_core/protocol/lufa/LUFA-git/LUFA/Drivers/USB/Core/AVR8/../AVR8/Endpoint_AVR8.h **** 			 *
 598:../../../../tmk_core/protocol/lufa/LUFA-git/LUFA/Drivers/USB/Core/AVR8/../AVR8/Endpoint_AVR8.h **** 			 *  \return Next two bytes in the currently selected endpoint's FIFO buffer.
 599:../../../../tmk_core/protocol/lufa/LUFA-git/LUFA/Drivers/USB/Core/AVR8/../AVR8/Endpoint_AVR8.h **** 			 */
 600:../../../../tmk_core/protocol/lufa/LUFA-git/LUFA/Drivers/USB/Core/AVR8/../AVR8/Endpoint_AVR8.h **** 			static inline uint16_t Endpoint_Read_16_BE(void) ATTR_WARN_UNUSED_RESULT ATTR_ALWAYS_INLINE;
 601:../../../../tmk_core/protocol/lufa/LUFA-git/LUFA/Drivers/USB/Core/AVR8/../AVR8/Endpoint_AVR8.h **** 			static inline uint16_t Endpoint_Read_16_BE(void)
 602:../../../../tmk_core/protocol/lufa/LUFA-git/LUFA/Drivers/USB/Core/AVR8/../AVR8/Endpoint_AVR8.h **** 			{
 603:../../../../tmk_core/protocol/lufa/LUFA-git/LUFA/Drivers/USB/Core/AVR8/../AVR8/Endpoint_AVR8.h **** 				union
 604:../../../../tmk_core/protocol/lufa/LUFA-git/LUFA/Drivers/USB/Core/AVR8/../AVR8/Endpoint_AVR8.h **** 				{
 605:../../../../tmk_core/protocol/lufa/LUFA-git/LUFA/Drivers/USB/Core/AVR8/../AVR8/Endpoint_AVR8.h **** 					uint16_t Value;
 606:../../../../tmk_core/protocol/lufa/LUFA-git/LUFA/Drivers/USB/Core/AVR8/../AVR8/Endpoint_AVR8.h **** 					uint8_t  Bytes[2];
 607:../../../../tmk_core/protocol/lufa/LUFA-git/LUFA/Drivers/USB/Core/AVR8/../AVR8/Endpoint_AVR8.h **** 				} Data;
 608:../../../../tmk_core/protocol/lufa/LUFA-git/LUFA/Drivers/USB/Core/AVR8/../AVR8/Endpoint_AVR8.h **** 
 609:../../../../tmk_core/protocol/lufa/LUFA-git/LUFA/Drivers/USB/Core/AVR8/../AVR8/Endpoint_AVR8.h **** 				Data.Bytes[1] = UEDATX;
 610:../../../../tmk_core/protocol/lufa/LUFA-git/LUFA/Drivers/USB/Core/AVR8/../AVR8/Endpoint_AVR8.h **** 				Data.Bytes[0] = UEDATX;
 611:../../../../tmk_core/protocol/lufa/LUFA-git/LUFA/Drivers/USB/Core/AVR8/../AVR8/Endpoint_AVR8.h **** 
 612:../../../../tmk_core/protocol/lufa/LUFA-git/LUFA/Drivers/USB/Core/AVR8/../AVR8/Endpoint_AVR8.h **** 				return Data.Value;
 613:../../../../tmk_core/protocol/lufa/LUFA-git/LUFA/Drivers/USB/Core/AVR8/../AVR8/Endpoint_AVR8.h **** 			}
 614:../../../../tmk_core/protocol/lufa/LUFA-git/LUFA/Drivers/USB/Core/AVR8/../AVR8/Endpoint_AVR8.h **** 
 615:../../../../tmk_core/protocol/lufa/LUFA-git/LUFA/Drivers/USB/Core/AVR8/../AVR8/Endpoint_AVR8.h **** 			/** Writes two bytes to the currently selected endpoint's bank in little endian format, for IN
 616:../../../../tmk_core/protocol/lufa/LUFA-git/LUFA/Drivers/USB/Core/AVR8/../AVR8/Endpoint_AVR8.h **** 			 *  direction endpoints.
 617:../../../../tmk_core/protocol/lufa/LUFA-git/LUFA/Drivers/USB/Core/AVR8/../AVR8/Endpoint_AVR8.h **** 			 *
 618:../../../../tmk_core/protocol/lufa/LUFA-git/LUFA/Drivers/USB/Core/AVR8/../AVR8/Endpoint_AVR8.h **** 			 *  \ingroup Group_EndpointPrimitiveRW_AVR8
 619:../../../../tmk_core/protocol/lufa/LUFA-git/LUFA/Drivers/USB/Core/AVR8/../AVR8/Endpoint_AVR8.h **** 			 *
 620:../../../../tmk_core/protocol/lufa/LUFA-git/LUFA/Drivers/USB/Core/AVR8/../AVR8/Endpoint_AVR8.h **** 			 *  \param[in] Data  Data to write to the currently selected endpoint's FIFO buffer.
 621:../../../../tmk_core/protocol/lufa/LUFA-git/LUFA/Drivers/USB/Core/AVR8/../AVR8/Endpoint_AVR8.h **** 			 */
 622:../../../../tmk_core/protocol/lufa/LUFA-git/LUFA/Drivers/USB/Core/AVR8/../AVR8/Endpoint_AVR8.h **** 			static inline void Endpoint_Write_16_LE(const uint16_t Data) ATTR_ALWAYS_INLINE;
 623:../../../../tmk_core/protocol/lufa/LUFA-git/LUFA/Drivers/USB/Core/AVR8/../AVR8/Endpoint_AVR8.h **** 			static inline void Endpoint_Write_16_LE(const uint16_t Data)
 624:../../../../tmk_core/protocol/lufa/LUFA-git/LUFA/Drivers/USB/Core/AVR8/../AVR8/Endpoint_AVR8.h **** 			{
 625:../../../../tmk_core/protocol/lufa/LUFA-git/LUFA/Drivers/USB/Core/AVR8/../AVR8/Endpoint_AVR8.h **** 				UEDATX = (Data & 0xFF);
 179               		.loc 2 625 0
 180 00aa 8093 F100 		sts 241,r24
 626:../../../../tmk_core/protocol/lufa/LUFA-git/LUFA/Drivers/USB/Core/AVR8/../AVR8/Endpoint_AVR8.h **** 				UEDATX = (Data >> 8);
 181               		.loc 2 626 0
 182 00ae 1092 F100 		sts 241,__zero_reg__
 183 00b2 00C0      		rjmp .L78
 184               	.LVL13:
 185               	.L5:
 186               	.LBE187:
 187               	.LBE186:
 188               	.LBE188:
 189               	.LBE176:
  82:../../../../tmk_core/protocol/lufa/LUFA-git/LUFA/Drivers/USB/Core/DeviceStandardReq.c **** 				if ((bmRequestType == (REQDIR_HOSTTODEVICE | REQTYPE_STANDARD | REQREC_DEVICE)) ||
 190               		.loc 1 82 0
 191 00b4 8823      		tst r24
 192 00b6 01F0      		breq .L14
  82:../../../../tmk_core/protocol/lufa/LUFA-git/LUFA/Drivers/USB/Core/DeviceStandardReq.c **** 				if ((bmRequestType == (REQDIR_HOSTTODEVICE | REQTYPE_STANDARD | REQREC_DEVICE)) ||
 193               		.loc 1 82 0 is_stmt 0 discriminator 1
 194 00b8 8230      		cpi r24,lo8(2)
 195 00ba 01F0      		breq .+2
 196 00bc 00C0      		rjmp .L3
 197               	.L14:
 198               	.LBB189:
 308:../../../../tmk_core/protocol/lufa/LUFA-git/LUFA/Drivers/USB/Core/DeviceStandardReq.c **** 
 309:../../../../tmk_core/protocol/lufa/LUFA-git/LUFA/Drivers/USB/Core/DeviceStandardReq.c **** 			CurrentStatus = Endpoint_IsStalled();
 310:../../../../tmk_core/protocol/lufa/LUFA-git/LUFA/Drivers/USB/Core/DeviceStandardReq.c **** 
 311:../../../../tmk_core/protocol/lufa/LUFA-git/LUFA/Drivers/USB/Core/DeviceStandardReq.c **** 			Endpoint_SelectEndpoint(ENDPOINT_CONTROLEP);
 312:../../../../tmk_core/protocol/lufa/LUFA-git/LUFA/Drivers/USB/Core/DeviceStandardReq.c **** 			#endif
 313:../../../../tmk_core/protocol/lufa/LUFA-git/LUFA/Drivers/USB/Core/DeviceStandardReq.c **** 
 314:../../../../tmk_core/protocol/lufa/LUFA-git/LUFA/Drivers/USB/Core/DeviceStandardReq.c **** 			break;
 315:../../../../tmk_core/protocol/lufa/LUFA-git/LUFA/Drivers/USB/Core/DeviceStandardReq.c **** 		default:
 316:../../../../tmk_core/protocol/lufa/LUFA-git/LUFA/Drivers/USB/Core/DeviceStandardReq.c **** 			return;
 317:../../../../tmk_core/protocol/lufa/LUFA-git/LUFA/Drivers/USB/Core/DeviceStandardReq.c **** 	}
 318:../../../../tmk_core/protocol/lufa/LUFA-git/LUFA/Drivers/USB/Core/DeviceStandardReq.c **** 
 319:../../../../tmk_core/protocol/lufa/LUFA-git/LUFA/Drivers/USB/Core/DeviceStandardReq.c **** 	Endpoint_ClearSETUP();
 320:../../../../tmk_core/protocol/lufa/LUFA-git/LUFA/Drivers/USB/Core/DeviceStandardReq.c **** 
 321:../../../../tmk_core/protocol/lufa/LUFA-git/LUFA/Drivers/USB/Core/DeviceStandardReq.c **** 	Endpoint_Write_16_LE(CurrentStatus);
 322:../../../../tmk_core/protocol/lufa/LUFA-git/LUFA/Drivers/USB/Core/DeviceStandardReq.c **** 	Endpoint_ClearIN();
 323:../../../../tmk_core/protocol/lufa/LUFA-git/LUFA/Drivers/USB/Core/DeviceStandardReq.c **** 
 324:../../../../tmk_core/protocol/lufa/LUFA-git/LUFA/Drivers/USB/Core/DeviceStandardReq.c **** 	Endpoint_ClearStatusStage();
 325:../../../../tmk_core/protocol/lufa/LUFA-git/LUFA/Drivers/USB/Core/DeviceStandardReq.c **** }
 326:../../../../tmk_core/protocol/lufa/LUFA-git/LUFA/Drivers/USB/Core/DeviceStandardReq.c **** 
 327:../../../../tmk_core/protocol/lufa/LUFA-git/LUFA/Drivers/USB/Core/DeviceStandardReq.c **** static void USB_Device_ClearSetFeature(void)
 328:../../../../tmk_core/protocol/lufa/LUFA-git/LUFA/Drivers/USB/Core/DeviceStandardReq.c **** {
 329:../../../../tmk_core/protocol/lufa/LUFA-git/LUFA/Drivers/USB/Core/DeviceStandardReq.c **** 	switch (USB_ControlRequest.bmRequestType & CONTROL_REQTYPE_RECIPIENT)
 199               		.loc 1 329 0 is_stmt 1
 200 00be 8F71      		andi r24,lo8(31)
 201               	.LVL14:
 202               	.LBB190:
 203 00c0 01F0      		breq .L15
 204 00c2 8230      		cpi r24,lo8(2)
 205 00c4 01F0      		breq .+2
 206 00c6 00C0      		rjmp .L3
 207 00c8 00C0      		rjmp .L16
 208               	.L15:
 330:../../../../tmk_core/protocol/lufa/LUFA-git/LUFA/Drivers/USB/Core/DeviceStandardReq.c **** 	{
 331:../../../../tmk_core/protocol/lufa/LUFA-git/LUFA/Drivers/USB/Core/DeviceStandardReq.c **** 		#if !defined(NO_DEVICE_REMOTE_WAKEUP)
 332:../../../../tmk_core/protocol/lufa/LUFA-git/LUFA/Drivers/USB/Core/DeviceStandardReq.c **** 		case REQREC_DEVICE:
 333:../../../../tmk_core/protocol/lufa/LUFA-git/LUFA/Drivers/USB/Core/DeviceStandardReq.c **** 			if ((uint8_t)USB_ControlRequest.wValue == FEATURE_SEL_DeviceRemoteWakeup)
 209               		.loc 1 333 0
 210 00ca 8091 0000 		lds r24,USB_ControlRequest+2
 211 00ce 8130      		cpi r24,lo8(1)
 212 00d0 01F0      		breq .+2
 213 00d2 00C0      		rjmp .L3
 334:../../../../tmk_core/protocol/lufa/LUFA-git/LUFA/Drivers/USB/Core/DeviceStandardReq.c **** 			  USB_Device_RemoteWakeupEnabled = (USB_ControlRequest.bRequest == REQ_SetFeature);
 214               		.loc 1 334 0
 215 00d4 9330      		cpi r25,lo8(3)
 216 00d6 01F0      		breq .L17
 217 00d8 80E0      		ldi r24,0
 218               	.L17:
 219 00da 8093 0000 		sts USB_Device_RemoteWakeupEnabled,r24
 220 00de 00C0      		rjmp .L18
 221               	.L16:
 335:../../../../tmk_core/protocol/lufa/LUFA-git/LUFA/Drivers/USB/Core/DeviceStandardReq.c **** 			else
 336:../../../../tmk_core/protocol/lufa/LUFA-git/LUFA/Drivers/USB/Core/DeviceStandardReq.c **** 			  return;
 337:../../../../tmk_core/protocol/lufa/LUFA-git/LUFA/Drivers/USB/Core/DeviceStandardReq.c **** 
 338:../../../../tmk_core/protocol/lufa/LUFA-git/LUFA/Drivers/USB/Core/DeviceStandardReq.c **** 			break;
 339:../../../../tmk_core/protocol/lufa/LUFA-git/LUFA/Drivers/USB/Core/DeviceStandardReq.c **** 		#endif
 340:../../../../tmk_core/protocol/lufa/LUFA-git/LUFA/Drivers/USB/Core/DeviceStandardReq.c **** 		#if !defined(CONTROL_ONLY_DEVICE)
 341:../../../../tmk_core/protocol/lufa/LUFA-git/LUFA/Drivers/USB/Core/DeviceStandardReq.c **** 		case REQREC_ENDPOINT:
 342:../../../../tmk_core/protocol/lufa/LUFA-git/LUFA/Drivers/USB/Core/DeviceStandardReq.c **** 			if ((uint8_t)USB_ControlRequest.wValue == FEATURE_SEL_EndpointHalt)
 222               		.loc 1 342 0
 223 00e0 8091 0000 		lds r24,USB_ControlRequest+2
 224 00e4 8111      		cpse r24,__zero_reg__
 225 00e6 00C0      		rjmp .L18
 226               	.LBE190:
 343:../../../../tmk_core/protocol/lufa/LUFA-git/LUFA/Drivers/USB/Core/DeviceStandardReq.c **** 			{
 344:../../../../tmk_core/protocol/lufa/LUFA-git/LUFA/Drivers/USB/Core/DeviceStandardReq.c **** 				uint8_t EndpointIndex = ((uint8_t)USB_ControlRequest.wIndex & ENDPOINT_EPNUM_MASK);
 227               		.loc 1 344 0
 228 00e8 8091 0000 		lds r24,USB_ControlRequest+4
 229 00ec 9091 0000 		lds r25,USB_ControlRequest+4+1
 230 00f0 8F70      		andi r24,15
 231 00f2 9927      		clr r25
 232               	.LVL15:
 233               	.LBB208:
 234               	.LBB191:
 345:../../../../tmk_core/protocol/lufa/LUFA-git/LUFA/Drivers/USB/Core/DeviceStandardReq.c **** 
 346:../../../../tmk_core/protocol/lufa/LUFA-git/LUFA/Drivers/USB/Core/DeviceStandardReq.c **** 				if (EndpointIndex == ENDPOINT_CONTROLEP)
 235               		.loc 1 346 0
 236 00f4 0097      		sbiw r24,0
 237 00f6 01F4      		brne .+2
 238 00f8 00C0      		rjmp .L3
 239               	.LBB192:
 240               	.LBB193:
 270:../../../../tmk_core/protocol/lufa/LUFA-git/LUFA/Drivers/USB/Core/AVR8/../AVR8/Endpoint_AVR8.h **** 					UENUM = (Address & ENDPOINT_EPNUM_MASK);
 241               		.loc 2 270 0
 242 00fa 8093 E900 		sts 233,r24
 243               	.LBE193:
 244               	.LBE192:
 245               	.LBB194:
 246               	.LBB195:
 313:../../../../tmk_core/protocol/lufa/LUFA-git/LUFA/Drivers/USB/Core/AVR8/../AVR8/Endpoint_AVR8.h **** 				return ((UECONX & (1 << EPEN)) ? true : false);
 247               		.loc 2 313 0
 248 00fe 2091 EB00 		lds r18,235
 249               	.LBE195:
 250               	.LBE194:
 347:../../../../tmk_core/protocol/lufa/LUFA-git/LUFA/Drivers/USB/Core/DeviceStandardReq.c **** 				  return;
 348:../../../../tmk_core/protocol/lufa/LUFA-git/LUFA/Drivers/USB/Core/DeviceStandardReq.c **** 
 349:../../../../tmk_core/protocol/lufa/LUFA-git/LUFA/Drivers/USB/Core/DeviceStandardReq.c **** 				Endpoint_SelectEndpoint(EndpointIndex);
 350:../../../../tmk_core/protocol/lufa/LUFA-git/LUFA/Drivers/USB/Core/DeviceStandardReq.c **** 
 351:../../../../tmk_core/protocol/lufa/LUFA-git/LUFA/Drivers/USB/Core/DeviceStandardReq.c **** 				if (Endpoint_IsEnabled())
 251               		.loc 1 351 0
 252 0102 20FF      		sbrs r18,0
 253 0104 00C0      		rjmp .L18
 352:../../../../tmk_core/protocol/lufa/LUFA-git/LUFA/Drivers/USB/Core/DeviceStandardReq.c **** 				{
 353:../../../../tmk_core/protocol/lufa/LUFA-git/LUFA/Drivers/USB/Core/DeviceStandardReq.c **** 					if (USB_ControlRequest.bRequest == REQ_SetFeature)
 254               		.loc 1 353 0
 255 0106 2091 0000 		lds r18,USB_ControlRequest+1
 256 010a 2330      		cpi r18,lo8(3)
 257 010c 01F4      		brne .L21
 258               	.LBB196:
 259               	.LBB197:
 491:../../../../tmk_core/protocol/lufa/LUFA-git/LUFA/Drivers/USB/Core/AVR8/../AVR8/Endpoint_AVR8.h **** 				UECONX |= (1 << STALLRQ);
 260               		.loc 2 491 0
 261 010e 8091 EB00 		lds r24,235
 262               	.LVL16:
 263 0112 8062      		ori r24,lo8(32)
 264 0114 00C0      		rjmp .L75
 265               	.LVL17:
 266               	.L21:
 267               	.LBE197:
 268               	.LBE196:
 269               	.LBB198:
 270               	.LBB199:
 501:../../../../tmk_core/protocol/lufa/LUFA-git/LUFA/Drivers/USB/Core/AVR8/../AVR8/Endpoint_AVR8.h **** 				UECONX |= (1 << STALLRQC);
 271               		.loc 2 501 0
 272 0116 9091 EB00 		lds r25,235
 273 011a 9061      		ori r25,lo8(16)
 274 011c 9093 EB00 		sts 235,r25
 275               	.LBE199:
 276               	.LBE198:
 277               	.LBB200:
 278               	.LBB201:
 282:../../../../tmk_core/protocol/lufa/LUFA-git/LUFA/Drivers/USB/Core/AVR8/../AVR8/Endpoint_AVR8.h **** 				UERST = (1 << (Address & ENDPOINT_EPNUM_MASK));
 279               		.loc 2 282 0
 280 0120 21E0      		ldi r18,lo8(1)
 281 0122 30E0      		ldi r19,0
 282 0124 00C0      		rjmp 2f
 283               		1:
 284 0126 220F      		lsl r18
 285               		2:
 286 0128 8A95      		dec r24
 287 012a 02F4      		brpl 1b
 288 012c 2093 EA00 		sts 234,r18
 283:../../../../tmk_core/protocol/lufa/LUFA-git/LUFA/Drivers/USB/Core/AVR8/../AVR8/Endpoint_AVR8.h **** 				UERST = 0;
 289               		.loc 2 283 0
 290 0130 1092 EA00 		sts 234,__zero_reg__
 291               	.LBE201:
 292               	.LBE200:
 293               	.LBB202:
 294               	.LBB203:
 520:../../../../tmk_core/protocol/lufa/LUFA-git/LUFA/Drivers/USB/Core/AVR8/../AVR8/Endpoint_AVR8.h **** 				UECONX |= (1 << RSTDT);
 295               		.loc 2 520 0
 296 0134 8091 EB00 		lds r24,235
 297               	.LVL18:
 298 0138 8860      		ori r24,lo8(8)
 299               	.L75:
 300 013a 8093 EB00 		sts 235,r24
 301               	.LVL19:
 302               	.L18:
 303               	.LBE203:
 304               	.LBE202:
 305               	.LBE191:
 306               	.LBB204:
 307               	.LBB205:
 270:../../../../tmk_core/protocol/lufa/LUFA-git/LUFA/Drivers/USB/Core/AVR8/../AVR8/Endpoint_AVR8.h **** 					UENUM = (Address & ENDPOINT_EPNUM_MASK);
 308               		.loc 2 270 0
 309 013e 1092 E900 		sts 233,__zero_reg__
 310               	.LBE205:
 311               	.LBE204:
 312               	.LBB206:
 313               	.LBB207:
 444:../../../../tmk_core/protocol/lufa/LUFA-git/LUFA/Drivers/USB/Core/AVR8/../AVR8/Endpoint_AVR8.h **** 				UEINTX &= ~(1 << RXSTPI);
 314               		.loc 2 444 0
 315 0142 8091 E800 		lds r24,232
 316 0146 877F      		andi r24,lo8(-9)
 317               	.LVL20:
 318               	.L76:
 319 0148 8093 E800 		sts 232,r24
 320               	.LBE207:
 321               	.LBE206:
 354:../../../../tmk_core/protocol/lufa/LUFA-git/LUFA/Drivers/USB/Core/DeviceStandardReq.c **** 					{
 355:../../../../tmk_core/protocol/lufa/LUFA-git/LUFA/Drivers/USB/Core/DeviceStandardReq.c **** 						Endpoint_StallTransaction();
 356:../../../../tmk_core/protocol/lufa/LUFA-git/LUFA/Drivers/USB/Core/DeviceStandardReq.c **** 					}
 357:../../../../tmk_core/protocol/lufa/LUFA-git/LUFA/Drivers/USB/Core/DeviceStandardReq.c **** 					else
 358:../../../../tmk_core/protocol/lufa/LUFA-git/LUFA/Drivers/USB/Core/DeviceStandardReq.c **** 					{
 359:../../../../tmk_core/protocol/lufa/LUFA-git/LUFA/Drivers/USB/Core/DeviceStandardReq.c **** 						Endpoint_ClearStall();
 360:../../../../tmk_core/protocol/lufa/LUFA-git/LUFA/Drivers/USB/Core/DeviceStandardReq.c **** 						Endpoint_ResetEndpoint(EndpointIndex);
 361:../../../../tmk_core/protocol/lufa/LUFA-git/LUFA/Drivers/USB/Core/DeviceStandardReq.c **** 						Endpoint_ResetDataToggle();
 362:../../../../tmk_core/protocol/lufa/LUFA-git/LUFA/Drivers/USB/Core/DeviceStandardReq.c **** 					}
 363:../../../../tmk_core/protocol/lufa/LUFA-git/LUFA/Drivers/USB/Core/DeviceStandardReq.c **** 				}
 364:../../../../tmk_core/protocol/lufa/LUFA-git/LUFA/Drivers/USB/Core/DeviceStandardReq.c **** 			}
 365:../../../../tmk_core/protocol/lufa/LUFA-git/LUFA/Drivers/USB/Core/DeviceStandardReq.c **** 
 366:../../../../tmk_core/protocol/lufa/LUFA-git/LUFA/Drivers/USB/Core/DeviceStandardReq.c **** 			break;
 367:../../../../tmk_core/protocol/lufa/LUFA-git/LUFA/Drivers/USB/Core/DeviceStandardReq.c **** 		#endif
 368:../../../../tmk_core/protocol/lufa/LUFA-git/LUFA/Drivers/USB/Core/DeviceStandardReq.c **** 		default:
 369:../../../../tmk_core/protocol/lufa/LUFA-git/LUFA/Drivers/USB/Core/DeviceStandardReq.c **** 			return;
 370:../../../../tmk_core/protocol/lufa/LUFA-git/LUFA/Drivers/USB/Core/DeviceStandardReq.c **** 	}
 371:../../../../tmk_core/protocol/lufa/LUFA-git/LUFA/Drivers/USB/Core/DeviceStandardReq.c **** 
 372:../../../../tmk_core/protocol/lufa/LUFA-git/LUFA/Drivers/USB/Core/DeviceStandardReq.c **** 	Endpoint_SelectEndpoint(ENDPOINT_CONTROLEP);
 373:../../../../tmk_core/protocol/lufa/LUFA-git/LUFA/Drivers/USB/Core/DeviceStandardReq.c **** 
 374:../../../../tmk_core/protocol/lufa/LUFA-git/LUFA/Drivers/USB/Core/DeviceStandardReq.c **** 	Endpoint_ClearSETUP();
 375:../../../../tmk_core/protocol/lufa/LUFA-git/LUFA/Drivers/USB/Core/DeviceStandardReq.c **** 
 376:../../../../tmk_core/protocol/lufa/LUFA-git/LUFA/Drivers/USB/Core/DeviceStandardReq.c **** 	Endpoint_ClearStatusStage();
 322               		.loc 1 376 0
 323 014c 0E94 0000 		call Endpoint_ClearStatusStage
 324               	.LVL21:
 325 0150 00C0      		rjmp .L3
 326               	.LVL22:
 327               	.L6:
 328               	.LBE208:
 329               	.LBE189:
  90:../../../../tmk_core/protocol/lufa/LUFA-git/LUFA/Drivers/USB/Core/DeviceStandardReq.c **** 				if (bmRequestType == (REQDIR_HOSTTODEVICE | REQTYPE_STANDARD | REQREC_DEVICE))
 330               		.loc 1 90 0
 331 0152 8111      		cpse r24,__zero_reg__
 332 0154 00C0      		rjmp .L3
 333               	.LBB209:
 127:../../../../tmk_core/protocol/lufa/LUFA-git/LUFA/Drivers/USB/Core/DeviceStandardReq.c **** 	uint8_t DeviceAddress = (USB_ControlRequest.wValue & 0x7F);
 334               		.loc 1 127 0
 335 0156 8091 0000 		lds r24,USB_ControlRequest+2
 336 015a 9091 0000 		lds r25,USB_ControlRequest+2+1
 337               	.LVL23:
 338 015e 8F77      		andi r24,127
 339 0160 9927      		clr r25
 340               	.LBB210:
 341 0162 182F      		mov r17,r24
 342               	.LVL24:
 343               	.LBB211:
 344               	.LBB212:
 345               		.file 3 "../../../../tmk_core/protocol/lufa/LUFA-git/LUFA/Drivers/USB/Core/AVR8/../AVR8/Device_AVR
   1:../../../../tmk_core/protocol/lufa/LUFA-git/LUFA/Drivers/USB/Core/AVR8/../AVR8/Device_AVR8.h **** /*
   2:../../../../tmk_core/protocol/lufa/LUFA-git/LUFA/Drivers/USB/Core/AVR8/../AVR8/Device_AVR8.h ****              LUFA Library
   3:../../../../tmk_core/protocol/lufa/LUFA-git/LUFA/Drivers/USB/Core/AVR8/../AVR8/Device_AVR8.h ****      Copyright (C) Dean Camera, 2014.
   4:../../../../tmk_core/protocol/lufa/LUFA-git/LUFA/Drivers/USB/Core/AVR8/../AVR8/Device_AVR8.h **** 
   5:../../../../tmk_core/protocol/lufa/LUFA-git/LUFA/Drivers/USB/Core/AVR8/../AVR8/Device_AVR8.h ****   dean [at] fourwalledcubicle [dot] com
   6:../../../../tmk_core/protocol/lufa/LUFA-git/LUFA/Drivers/USB/Core/AVR8/../AVR8/Device_AVR8.h ****            www.lufa-lib.org
   7:../../../../tmk_core/protocol/lufa/LUFA-git/LUFA/Drivers/USB/Core/AVR8/../AVR8/Device_AVR8.h **** */
   8:../../../../tmk_core/protocol/lufa/LUFA-git/LUFA/Drivers/USB/Core/AVR8/../AVR8/Device_AVR8.h **** 
   9:../../../../tmk_core/protocol/lufa/LUFA-git/LUFA/Drivers/USB/Core/AVR8/../AVR8/Device_AVR8.h **** /*
  10:../../../../tmk_core/protocol/lufa/LUFA-git/LUFA/Drivers/USB/Core/AVR8/../AVR8/Device_AVR8.h ****   Copyright 2014  Dean Camera (dean [at] fourwalledcubicle [dot] com)
  11:../../../../tmk_core/protocol/lufa/LUFA-git/LUFA/Drivers/USB/Core/AVR8/../AVR8/Device_AVR8.h **** 
  12:../../../../tmk_core/protocol/lufa/LUFA-git/LUFA/Drivers/USB/Core/AVR8/../AVR8/Device_AVR8.h ****   Permission to use, copy, modify, distribute, and sell this
  13:../../../../tmk_core/protocol/lufa/LUFA-git/LUFA/Drivers/USB/Core/AVR8/../AVR8/Device_AVR8.h ****   software and its documentation for any purpose is hereby granted
  14:../../../../tmk_core/protocol/lufa/LUFA-git/LUFA/Drivers/USB/Core/AVR8/../AVR8/Device_AVR8.h ****   without fee, provided that the above copyright notice appear in
  15:../../../../tmk_core/protocol/lufa/LUFA-git/LUFA/Drivers/USB/Core/AVR8/../AVR8/Device_AVR8.h ****   all copies and that both that the copyright notice and this
  16:../../../../tmk_core/protocol/lufa/LUFA-git/LUFA/Drivers/USB/Core/AVR8/../AVR8/Device_AVR8.h ****   permission notice and warranty disclaimer appear in supporting
  17:../../../../tmk_core/protocol/lufa/LUFA-git/LUFA/Drivers/USB/Core/AVR8/../AVR8/Device_AVR8.h ****   documentation, and that the name of the author not be used in
  18:../../../../tmk_core/protocol/lufa/LUFA-git/LUFA/Drivers/USB/Core/AVR8/../AVR8/Device_AVR8.h ****   advertising or publicity pertaining to distribution of the
  19:../../../../tmk_core/protocol/lufa/LUFA-git/LUFA/Drivers/USB/Core/AVR8/../AVR8/Device_AVR8.h ****   software without specific, written prior permission.
  20:../../../../tmk_core/protocol/lufa/LUFA-git/LUFA/Drivers/USB/Core/AVR8/../AVR8/Device_AVR8.h **** 
  21:../../../../tmk_core/protocol/lufa/LUFA-git/LUFA/Drivers/USB/Core/AVR8/../AVR8/Device_AVR8.h ****   The author disclaims all warranties with regard to this
  22:../../../../tmk_core/protocol/lufa/LUFA-git/LUFA/Drivers/USB/Core/AVR8/../AVR8/Device_AVR8.h ****   software, including all implied warranties of merchantability
  23:../../../../tmk_core/protocol/lufa/LUFA-git/LUFA/Drivers/USB/Core/AVR8/../AVR8/Device_AVR8.h ****   and fitness.  In no event shall the author be liable for any
  24:../../../../tmk_core/protocol/lufa/LUFA-git/LUFA/Drivers/USB/Core/AVR8/../AVR8/Device_AVR8.h ****   special, indirect or consequential damages or any damages
  25:../../../../tmk_core/protocol/lufa/LUFA-git/LUFA/Drivers/USB/Core/AVR8/../AVR8/Device_AVR8.h ****   whatsoever resulting from loss of use, data or profits, whether
  26:../../../../tmk_core/protocol/lufa/LUFA-git/LUFA/Drivers/USB/Core/AVR8/../AVR8/Device_AVR8.h ****   in an action of contract, negligence or other tortious action,
  27:../../../../tmk_core/protocol/lufa/LUFA-git/LUFA/Drivers/USB/Core/AVR8/../AVR8/Device_AVR8.h ****   arising out of or in connection with the use or performance of
  28:../../../../tmk_core/protocol/lufa/LUFA-git/LUFA/Drivers/USB/Core/AVR8/../AVR8/Device_AVR8.h ****   this software.
  29:../../../../tmk_core/protocol/lufa/LUFA-git/LUFA/Drivers/USB/Core/AVR8/../AVR8/Device_AVR8.h **** */
  30:../../../../tmk_core/protocol/lufa/LUFA-git/LUFA/Drivers/USB/Core/AVR8/../AVR8/Device_AVR8.h **** 
  31:../../../../tmk_core/protocol/lufa/LUFA-git/LUFA/Drivers/USB/Core/AVR8/../AVR8/Device_AVR8.h **** /** \file
  32:../../../../tmk_core/protocol/lufa/LUFA-git/LUFA/Drivers/USB/Core/AVR8/../AVR8/Device_AVR8.h ****  *  \brief USB Device definitions for the AVR8 microcontrollers.
  33:../../../../tmk_core/protocol/lufa/LUFA-git/LUFA/Drivers/USB/Core/AVR8/../AVR8/Device_AVR8.h ****  *  \copydetails Group_Device_AVR8
  34:../../../../tmk_core/protocol/lufa/LUFA-git/LUFA/Drivers/USB/Core/AVR8/../AVR8/Device_AVR8.h ****  *
  35:../../../../tmk_core/protocol/lufa/LUFA-git/LUFA/Drivers/USB/Core/AVR8/../AVR8/Device_AVR8.h ****  *  \note This file should not be included directly. It is automatically included as needed by the 
  36:../../../../tmk_core/protocol/lufa/LUFA-git/LUFA/Drivers/USB/Core/AVR8/../AVR8/Device_AVR8.h ****  *        dispatch header located in LUFA/Drivers/USB/USB.h.
  37:../../../../tmk_core/protocol/lufa/LUFA-git/LUFA/Drivers/USB/Core/AVR8/../AVR8/Device_AVR8.h ****  */
  38:../../../../tmk_core/protocol/lufa/LUFA-git/LUFA/Drivers/USB/Core/AVR8/../AVR8/Device_AVR8.h **** 
  39:../../../../tmk_core/protocol/lufa/LUFA-git/LUFA/Drivers/USB/Core/AVR8/../AVR8/Device_AVR8.h **** /** \ingroup Group_Device
  40:../../../../tmk_core/protocol/lufa/LUFA-git/LUFA/Drivers/USB/Core/AVR8/../AVR8/Device_AVR8.h ****  *  \defgroup Group_Device_AVR8 Device Management (AVR8)
  41:../../../../tmk_core/protocol/lufa/LUFA-git/LUFA/Drivers/USB/Core/AVR8/../AVR8/Device_AVR8.h ****  *  \brief USB Device definitions for the AVR8 microcontrollers.
  42:../../../../tmk_core/protocol/lufa/LUFA-git/LUFA/Drivers/USB/Core/AVR8/../AVR8/Device_AVR8.h ****  *
  43:../../../../tmk_core/protocol/lufa/LUFA-git/LUFA/Drivers/USB/Core/AVR8/../AVR8/Device_AVR8.h ****  *  Architecture specific USB Device definitions for the Atmel 8-bit AVR microcontrollers.
  44:../../../../tmk_core/protocol/lufa/LUFA-git/LUFA/Drivers/USB/Core/AVR8/../AVR8/Device_AVR8.h ****  *
  45:../../../../tmk_core/protocol/lufa/LUFA-git/LUFA/Drivers/USB/Core/AVR8/../AVR8/Device_AVR8.h ****  *  @{
  46:../../../../tmk_core/protocol/lufa/LUFA-git/LUFA/Drivers/USB/Core/AVR8/../AVR8/Device_AVR8.h ****  */
  47:../../../../tmk_core/protocol/lufa/LUFA-git/LUFA/Drivers/USB/Core/AVR8/../AVR8/Device_AVR8.h **** 
  48:../../../../tmk_core/protocol/lufa/LUFA-git/LUFA/Drivers/USB/Core/AVR8/../AVR8/Device_AVR8.h **** #ifndef __USBDEVICE_AVR8_H__
  49:../../../../tmk_core/protocol/lufa/LUFA-git/LUFA/Drivers/USB/Core/AVR8/../AVR8/Device_AVR8.h **** #define __USBDEVICE_AVR8_H__
  50:../../../../tmk_core/protocol/lufa/LUFA-git/LUFA/Drivers/USB/Core/AVR8/../AVR8/Device_AVR8.h **** 
  51:../../../../tmk_core/protocol/lufa/LUFA-git/LUFA/Drivers/USB/Core/AVR8/../AVR8/Device_AVR8.h **** 	/* Includes: */
  52:../../../../tmk_core/protocol/lufa/LUFA-git/LUFA/Drivers/USB/Core/AVR8/../AVR8/Device_AVR8.h **** 		#include "../../../../Common/Common.h"
  53:../../../../tmk_core/protocol/lufa/LUFA-git/LUFA/Drivers/USB/Core/AVR8/../AVR8/Device_AVR8.h **** 		#include "../USBController.h"
  54:../../../../tmk_core/protocol/lufa/LUFA-git/LUFA/Drivers/USB/Core/AVR8/../AVR8/Device_AVR8.h **** 		#include "../StdDescriptors.h"
  55:../../../../tmk_core/protocol/lufa/LUFA-git/LUFA/Drivers/USB/Core/AVR8/../AVR8/Device_AVR8.h **** 		#include "../USBInterrupt.h"
  56:../../../../tmk_core/protocol/lufa/LUFA-git/LUFA/Drivers/USB/Core/AVR8/../AVR8/Device_AVR8.h **** 		#include "../Endpoint.h"
  57:../../../../tmk_core/protocol/lufa/LUFA-git/LUFA/Drivers/USB/Core/AVR8/../AVR8/Device_AVR8.h **** 
  58:../../../../tmk_core/protocol/lufa/LUFA-git/LUFA/Drivers/USB/Core/AVR8/../AVR8/Device_AVR8.h **** 	/* Enable C linkage for C++ Compilers: */
  59:../../../../tmk_core/protocol/lufa/LUFA-git/LUFA/Drivers/USB/Core/AVR8/../AVR8/Device_AVR8.h **** 		#if defined(__cplusplus)
  60:../../../../tmk_core/protocol/lufa/LUFA-git/LUFA/Drivers/USB/Core/AVR8/../AVR8/Device_AVR8.h **** 			extern "C" {
  61:../../../../tmk_core/protocol/lufa/LUFA-git/LUFA/Drivers/USB/Core/AVR8/../AVR8/Device_AVR8.h **** 		#endif
  62:../../../../tmk_core/protocol/lufa/LUFA-git/LUFA/Drivers/USB/Core/AVR8/../AVR8/Device_AVR8.h **** 
  63:../../../../tmk_core/protocol/lufa/LUFA-git/LUFA/Drivers/USB/Core/AVR8/../AVR8/Device_AVR8.h **** 	/* Preprocessor Checks: */
  64:../../../../tmk_core/protocol/lufa/LUFA-git/LUFA/Drivers/USB/Core/AVR8/../AVR8/Device_AVR8.h **** 		#if !defined(__INCLUDE_FROM_USB_DRIVER)
  65:../../../../tmk_core/protocol/lufa/LUFA-git/LUFA/Drivers/USB/Core/AVR8/../AVR8/Device_AVR8.h **** 			#error Do not include this file directly. Include LUFA/Drivers/USB/USB.h instead.
  66:../../../../tmk_core/protocol/lufa/LUFA-git/LUFA/Drivers/USB/Core/AVR8/../AVR8/Device_AVR8.h **** 		#endif
  67:../../../../tmk_core/protocol/lufa/LUFA-git/LUFA/Drivers/USB/Core/AVR8/../AVR8/Device_AVR8.h **** 
  68:../../../../tmk_core/protocol/lufa/LUFA-git/LUFA/Drivers/USB/Core/AVR8/../AVR8/Device_AVR8.h **** 		#if (defined(USE_RAM_DESCRIPTORS) && defined(USE_EEPROM_DESCRIPTORS))
  69:../../../../tmk_core/protocol/lufa/LUFA-git/LUFA/Drivers/USB/Core/AVR8/../AVR8/Device_AVR8.h **** 			#error USE_RAM_DESCRIPTORS and USE_EEPROM_DESCRIPTORS are mutually exclusive.
  70:../../../../tmk_core/protocol/lufa/LUFA-git/LUFA/Drivers/USB/Core/AVR8/../AVR8/Device_AVR8.h **** 		#endif
  71:../../../../tmk_core/protocol/lufa/LUFA-git/LUFA/Drivers/USB/Core/AVR8/../AVR8/Device_AVR8.h **** 
  72:../../../../tmk_core/protocol/lufa/LUFA-git/LUFA/Drivers/USB/Core/AVR8/../AVR8/Device_AVR8.h **** 		#if (defined(USE_FLASH_DESCRIPTORS) && defined(USE_EEPROM_DESCRIPTORS))
  73:../../../../tmk_core/protocol/lufa/LUFA-git/LUFA/Drivers/USB/Core/AVR8/../AVR8/Device_AVR8.h **** 			#error USE_FLASH_DESCRIPTORS and USE_EEPROM_DESCRIPTORS are mutually exclusive.
  74:../../../../tmk_core/protocol/lufa/LUFA-git/LUFA/Drivers/USB/Core/AVR8/../AVR8/Device_AVR8.h **** 		#endif
  75:../../../../tmk_core/protocol/lufa/LUFA-git/LUFA/Drivers/USB/Core/AVR8/../AVR8/Device_AVR8.h **** 
  76:../../../../tmk_core/protocol/lufa/LUFA-git/LUFA/Drivers/USB/Core/AVR8/../AVR8/Device_AVR8.h **** 		#if (defined(USE_FLASH_DESCRIPTORS) && defined(USE_RAM_DESCRIPTORS))
  77:../../../../tmk_core/protocol/lufa/LUFA-git/LUFA/Drivers/USB/Core/AVR8/../AVR8/Device_AVR8.h **** 			#error USE_FLASH_DESCRIPTORS and USE_RAM_DESCRIPTORS are mutually exclusive.
  78:../../../../tmk_core/protocol/lufa/LUFA-git/LUFA/Drivers/USB/Core/AVR8/../AVR8/Device_AVR8.h **** 		#endif
  79:../../../../tmk_core/protocol/lufa/LUFA-git/LUFA/Drivers/USB/Core/AVR8/../AVR8/Device_AVR8.h **** 
  80:../../../../tmk_core/protocol/lufa/LUFA-git/LUFA/Drivers/USB/Core/AVR8/../AVR8/Device_AVR8.h **** 	/* Public Interface - May be used in end-application: */
  81:../../../../tmk_core/protocol/lufa/LUFA-git/LUFA/Drivers/USB/Core/AVR8/../AVR8/Device_AVR8.h **** 		/* Macros: */
  82:../../../../tmk_core/protocol/lufa/LUFA-git/LUFA/Drivers/USB/Core/AVR8/../AVR8/Device_AVR8.h **** 			/** \name USB Device Mode Option Masks */
  83:../../../../tmk_core/protocol/lufa/LUFA-git/LUFA/Drivers/USB/Core/AVR8/../AVR8/Device_AVR8.h **** 			//@{
  84:../../../../tmk_core/protocol/lufa/LUFA-git/LUFA/Drivers/USB/Core/AVR8/../AVR8/Device_AVR8.h **** 			#if defined(USB_SERIES_4_AVR) || defined(USB_SERIES_6_AVR) || defined(USB_SERIES_7_AVR) || defin
  85:../../../../tmk_core/protocol/lufa/LUFA-git/LUFA/Drivers/USB/Core/AVR8/../AVR8/Device_AVR8.h **** 				/** Mask for the Options parameter of the \ref USB_Init() function. This indicates that the
  86:../../../../tmk_core/protocol/lufa/LUFA-git/LUFA/Drivers/USB/Core/AVR8/../AVR8/Device_AVR8.h **** 				 *  USB interface should be initialized in low speed (1.5Mb/s) mode.
  87:../../../../tmk_core/protocol/lufa/LUFA-git/LUFA/Drivers/USB/Core/AVR8/../AVR8/Device_AVR8.h **** 				 *
  88:../../../../tmk_core/protocol/lufa/LUFA-git/LUFA/Drivers/USB/Core/AVR8/../AVR8/Device_AVR8.h **** 				 *  \note Low Speed mode is not available on all USB AVR models.
  89:../../../../tmk_core/protocol/lufa/LUFA-git/LUFA/Drivers/USB/Core/AVR8/../AVR8/Device_AVR8.h **** 				 *        \n
  90:../../../../tmk_core/protocol/lufa/LUFA-git/LUFA/Drivers/USB/Core/AVR8/../AVR8/Device_AVR8.h **** 				 *
  91:../../../../tmk_core/protocol/lufa/LUFA-git/LUFA/Drivers/USB/Core/AVR8/../AVR8/Device_AVR8.h **** 				 *  \note Restrictions apply on the number, size and type of endpoints which can be used
  92:../../../../tmk_core/protocol/lufa/LUFA-git/LUFA/Drivers/USB/Core/AVR8/../AVR8/Device_AVR8.h **** 				 *        when running in low speed mode - please refer to the USB 2.0 specification.
  93:../../../../tmk_core/protocol/lufa/LUFA-git/LUFA/Drivers/USB/Core/AVR8/../AVR8/Device_AVR8.h **** 				 */
  94:../../../../tmk_core/protocol/lufa/LUFA-git/LUFA/Drivers/USB/Core/AVR8/../AVR8/Device_AVR8.h **** 				#define USB_DEVICE_OPT_LOWSPEED            (1 << 0)
  95:../../../../tmk_core/protocol/lufa/LUFA-git/LUFA/Drivers/USB/Core/AVR8/../AVR8/Device_AVR8.h **** 			#endif
  96:../../../../tmk_core/protocol/lufa/LUFA-git/LUFA/Drivers/USB/Core/AVR8/../AVR8/Device_AVR8.h **** 
  97:../../../../tmk_core/protocol/lufa/LUFA-git/LUFA/Drivers/USB/Core/AVR8/../AVR8/Device_AVR8.h **** 			/** Mask for the Options parameter of the \ref USB_Init() function. This indicates that the
  98:../../../../tmk_core/protocol/lufa/LUFA-git/LUFA/Drivers/USB/Core/AVR8/../AVR8/Device_AVR8.h **** 			 *  USB interface should be initialized in full speed (12Mb/s) mode.
  99:../../../../tmk_core/protocol/lufa/LUFA-git/LUFA/Drivers/USB/Core/AVR8/../AVR8/Device_AVR8.h **** 			 */
 100:../../../../tmk_core/protocol/lufa/LUFA-git/LUFA/Drivers/USB/Core/AVR8/../AVR8/Device_AVR8.h **** 			#define USB_DEVICE_OPT_FULLSPEED               (0 << 0)
 101:../../../../tmk_core/protocol/lufa/LUFA-git/LUFA/Drivers/USB/Core/AVR8/../AVR8/Device_AVR8.h **** 			//@}
 102:../../../../tmk_core/protocol/lufa/LUFA-git/LUFA/Drivers/USB/Core/AVR8/../AVR8/Device_AVR8.h **** 
 103:../../../../tmk_core/protocol/lufa/LUFA-git/LUFA/Drivers/USB/Core/AVR8/../AVR8/Device_AVR8.h **** 			#if (!defined(NO_INTERNAL_SERIAL) && \
 104:../../../../tmk_core/protocol/lufa/LUFA-git/LUFA/Drivers/USB/Core/AVR8/../AVR8/Device_AVR8.h **** 			     (defined(USB_SERIES_7_AVR) || defined(USB_SERIES_6_AVR) || \
 105:../../../../tmk_core/protocol/lufa/LUFA-git/LUFA/Drivers/USB/Core/AVR8/../AVR8/Device_AVR8.h **** 			      defined(USB_SERIES_4_AVR) || defined(USB_SERIES_2_AVR) || \
 106:../../../../tmk_core/protocol/lufa/LUFA-git/LUFA/Drivers/USB/Core/AVR8/../AVR8/Device_AVR8.h **** 				  defined(__DOXYGEN__)))
 107:../../../../tmk_core/protocol/lufa/LUFA-git/LUFA/Drivers/USB/Core/AVR8/../AVR8/Device_AVR8.h **** 				/** String descriptor index for the device's unique serial number string descriptor within the 
 108:../../../../tmk_core/protocol/lufa/LUFA-git/LUFA/Drivers/USB/Core/AVR8/../AVR8/Device_AVR8.h **** 				 *  This unique serial number is used by the host to associate resources to the device (such as
 109:../../../../tmk_core/protocol/lufa/LUFA-git/LUFA/Drivers/USB/Core/AVR8/../AVR8/Device_AVR8.h **** 				 *  number allocations) to a device regardless of the port it is plugged in to on the host. Som
 110:../../../../tmk_core/protocol/lufa/LUFA-git/LUFA/Drivers/USB/Core/AVR8/../AVR8/Device_AVR8.h **** 				 *  a unique serial number internally, and setting the device descriptors serial number string 
 111:../../../../tmk_core/protocol/lufa/LUFA-git/LUFA/Drivers/USB/Core/AVR8/../AVR8/Device_AVR8.h **** 				 *  will cause it to use the internal serial number.
 112:../../../../tmk_core/protocol/lufa/LUFA-git/LUFA/Drivers/USB/Core/AVR8/../AVR8/Device_AVR8.h **** 				 *
 113:../../../../tmk_core/protocol/lufa/LUFA-git/LUFA/Drivers/USB/Core/AVR8/../AVR8/Device_AVR8.h **** 				 *  On unsupported devices, this will evaluate to \ref NO_DESCRIPTOR and so will force the host
 114:../../../../tmk_core/protocol/lufa/LUFA-git/LUFA/Drivers/USB/Core/AVR8/../AVR8/Device_AVR8.h **** 				 *  number for the device.
 115:../../../../tmk_core/protocol/lufa/LUFA-git/LUFA/Drivers/USB/Core/AVR8/../AVR8/Device_AVR8.h **** 				 */
 116:../../../../tmk_core/protocol/lufa/LUFA-git/LUFA/Drivers/USB/Core/AVR8/../AVR8/Device_AVR8.h **** 				#define USE_INTERNAL_SERIAL            0xDC
 117:../../../../tmk_core/protocol/lufa/LUFA-git/LUFA/Drivers/USB/Core/AVR8/../AVR8/Device_AVR8.h **** 
 118:../../../../tmk_core/protocol/lufa/LUFA-git/LUFA/Drivers/USB/Core/AVR8/../AVR8/Device_AVR8.h **** 				/** Length of the device's unique internal serial number, in bits, if present on the selected m
 119:../../../../tmk_core/protocol/lufa/LUFA-git/LUFA/Drivers/USB/Core/AVR8/../AVR8/Device_AVR8.h **** 				 *  model.
 120:../../../../tmk_core/protocol/lufa/LUFA-git/LUFA/Drivers/USB/Core/AVR8/../AVR8/Device_AVR8.h **** 				 */
 121:../../../../tmk_core/protocol/lufa/LUFA-git/LUFA/Drivers/USB/Core/AVR8/../AVR8/Device_AVR8.h **** 				#define INTERNAL_SERIAL_LENGTH_BITS    80
 122:../../../../tmk_core/protocol/lufa/LUFA-git/LUFA/Drivers/USB/Core/AVR8/../AVR8/Device_AVR8.h **** 
 123:../../../../tmk_core/protocol/lufa/LUFA-git/LUFA/Drivers/USB/Core/AVR8/../AVR8/Device_AVR8.h **** 				/** Start address of the internal serial number, in the appropriate address space, if present o
 124:../../../../tmk_core/protocol/lufa/LUFA-git/LUFA/Drivers/USB/Core/AVR8/../AVR8/Device_AVR8.h **** 				 *  model.
 125:../../../../tmk_core/protocol/lufa/LUFA-git/LUFA/Drivers/USB/Core/AVR8/../AVR8/Device_AVR8.h **** 				 */
 126:../../../../tmk_core/protocol/lufa/LUFA-git/LUFA/Drivers/USB/Core/AVR8/../AVR8/Device_AVR8.h **** 				#define INTERNAL_SERIAL_START_ADDRESS  0x0E
 127:../../../../tmk_core/protocol/lufa/LUFA-git/LUFA/Drivers/USB/Core/AVR8/../AVR8/Device_AVR8.h **** 			#else
 128:../../../../tmk_core/protocol/lufa/LUFA-git/LUFA/Drivers/USB/Core/AVR8/../AVR8/Device_AVR8.h **** 				#define USE_INTERNAL_SERIAL            NO_DESCRIPTOR
 129:../../../../tmk_core/protocol/lufa/LUFA-git/LUFA/Drivers/USB/Core/AVR8/../AVR8/Device_AVR8.h **** 
 130:../../../../tmk_core/protocol/lufa/LUFA-git/LUFA/Drivers/USB/Core/AVR8/../AVR8/Device_AVR8.h **** 				#define INTERNAL_SERIAL_LENGTH_BITS    0
 131:../../../../tmk_core/protocol/lufa/LUFA-git/LUFA/Drivers/USB/Core/AVR8/../AVR8/Device_AVR8.h **** 				#define INTERNAL_SERIAL_START_ADDRESS  0
 132:../../../../tmk_core/protocol/lufa/LUFA-git/LUFA/Drivers/USB/Core/AVR8/../AVR8/Device_AVR8.h **** 			#endif
 133:../../../../tmk_core/protocol/lufa/LUFA-git/LUFA/Drivers/USB/Core/AVR8/../AVR8/Device_AVR8.h **** 
 134:../../../../tmk_core/protocol/lufa/LUFA-git/LUFA/Drivers/USB/Core/AVR8/../AVR8/Device_AVR8.h **** 		/* Function Prototypes: */
 135:../../../../tmk_core/protocol/lufa/LUFA-git/LUFA/Drivers/USB/Core/AVR8/../AVR8/Device_AVR8.h **** 			/** Sends a Remote Wakeup request to the host. This signals to the host that the device should
 136:../../../../tmk_core/protocol/lufa/LUFA-git/LUFA/Drivers/USB/Core/AVR8/../AVR8/Device_AVR8.h **** 			 *  be taken out of suspended mode, and communications should resume.
 137:../../../../tmk_core/protocol/lufa/LUFA-git/LUFA/Drivers/USB/Core/AVR8/../AVR8/Device_AVR8.h **** 			 *
 138:../../../../tmk_core/protocol/lufa/LUFA-git/LUFA/Drivers/USB/Core/AVR8/../AVR8/Device_AVR8.h **** 			 *  Typically, this is implemented so that HID devices (mice, keyboards, etc.) can wake up the
 139:../../../../tmk_core/protocol/lufa/LUFA-git/LUFA/Drivers/USB/Core/AVR8/../AVR8/Device_AVR8.h **** 			 *  host computer when the host has suspended all USB devices to enter a low power state.
 140:../../../../tmk_core/protocol/lufa/LUFA-git/LUFA/Drivers/USB/Core/AVR8/../AVR8/Device_AVR8.h **** 			 *
 141:../../../../tmk_core/protocol/lufa/LUFA-git/LUFA/Drivers/USB/Core/AVR8/../AVR8/Device_AVR8.h **** 			 *  \attention This function should only be used if the device has indicated to the host that it
 142:../../../../tmk_core/protocol/lufa/LUFA-git/LUFA/Drivers/USB/Core/AVR8/../AVR8/Device_AVR8.h **** 			 *             supports the Remote Wakeup feature in the device descriptors, and should only be
 143:../../../../tmk_core/protocol/lufa/LUFA-git/LUFA/Drivers/USB/Core/AVR8/../AVR8/Device_AVR8.h **** 			 *             issued if the host is currently allowing remote wakeup events from the device (i.
 144:../../../../tmk_core/protocol/lufa/LUFA-git/LUFA/Drivers/USB/Core/AVR8/../AVR8/Device_AVR8.h **** 			 *             the \ref USB_Device_RemoteWakeupEnabled flag is set). When the \c NO_DEVICE_REMOT
 145:../../../../tmk_core/protocol/lufa/LUFA-git/LUFA/Drivers/USB/Core/AVR8/../AVR8/Device_AVR8.h **** 			 *             compile time option is used, this function is unavailable.
 146:../../../../tmk_core/protocol/lufa/LUFA-git/LUFA/Drivers/USB/Core/AVR8/../AVR8/Device_AVR8.h **** 			 *             \n\n
 147:../../../../tmk_core/protocol/lufa/LUFA-git/LUFA/Drivers/USB/Core/AVR8/../AVR8/Device_AVR8.h **** 			 *
 148:../../../../tmk_core/protocol/lufa/LUFA-git/LUFA/Drivers/USB/Core/AVR8/../AVR8/Device_AVR8.h **** 			 *  \attention The USB clock must be running for this function to operate. If the stack is initi
 149:../../../../tmk_core/protocol/lufa/LUFA-git/LUFA/Drivers/USB/Core/AVR8/../AVR8/Device_AVR8.h **** 			 *             the \ref USB_OPT_MANUAL_PLL option enabled, the user must ensure that the PLL is 
 150:../../../../tmk_core/protocol/lufa/LUFA-git/LUFA/Drivers/USB/Core/AVR8/../AVR8/Device_AVR8.h **** 			 *             before attempting to call this function.
 151:../../../../tmk_core/protocol/lufa/LUFA-git/LUFA/Drivers/USB/Core/AVR8/../AVR8/Device_AVR8.h **** 			 *
 152:../../../../tmk_core/protocol/lufa/LUFA-git/LUFA/Drivers/USB/Core/AVR8/../AVR8/Device_AVR8.h **** 			 *  \see \ref Group_StdDescriptors for more information on the RMWAKEUP feature and device descr
 153:../../../../tmk_core/protocol/lufa/LUFA-git/LUFA/Drivers/USB/Core/AVR8/../AVR8/Device_AVR8.h **** 			 */
 154:../../../../tmk_core/protocol/lufa/LUFA-git/LUFA/Drivers/USB/Core/AVR8/../AVR8/Device_AVR8.h **** 			void USB_Device_SendRemoteWakeup(void);
 155:../../../../tmk_core/protocol/lufa/LUFA-git/LUFA/Drivers/USB/Core/AVR8/../AVR8/Device_AVR8.h **** 
 156:../../../../tmk_core/protocol/lufa/LUFA-git/LUFA/Drivers/USB/Core/AVR8/../AVR8/Device_AVR8.h **** 		/* Inline Functions: */
 157:../../../../tmk_core/protocol/lufa/LUFA-git/LUFA/Drivers/USB/Core/AVR8/../AVR8/Device_AVR8.h **** 			/** Returns the current USB frame number, when in device mode. Every millisecond the USB bus is 
 158:../../../../tmk_core/protocol/lufa/LUFA-git/LUFA/Drivers/USB/Core/AVR8/../AVR8/Device_AVR8.h **** 			 *  the frame number is incremented by one.
 159:../../../../tmk_core/protocol/lufa/LUFA-git/LUFA/Drivers/USB/Core/AVR8/../AVR8/Device_AVR8.h **** 			 *
 160:../../../../tmk_core/protocol/lufa/LUFA-git/LUFA/Drivers/USB/Core/AVR8/../AVR8/Device_AVR8.h **** 			 *  \return Current USB frame number from the USB controller.
 161:../../../../tmk_core/protocol/lufa/LUFA-git/LUFA/Drivers/USB/Core/AVR8/../AVR8/Device_AVR8.h **** 			 */
 162:../../../../tmk_core/protocol/lufa/LUFA-git/LUFA/Drivers/USB/Core/AVR8/../AVR8/Device_AVR8.h **** 			static inline uint16_t USB_Device_GetFrameNumber(void) ATTR_ALWAYS_INLINE ATTR_WARN_UNUSED_RESUL
 163:../../../../tmk_core/protocol/lufa/LUFA-git/LUFA/Drivers/USB/Core/AVR8/../AVR8/Device_AVR8.h **** 			static inline uint16_t USB_Device_GetFrameNumber(void)
 164:../../../../tmk_core/protocol/lufa/LUFA-git/LUFA/Drivers/USB/Core/AVR8/../AVR8/Device_AVR8.h **** 			{
 165:../../../../tmk_core/protocol/lufa/LUFA-git/LUFA/Drivers/USB/Core/AVR8/../AVR8/Device_AVR8.h **** 				return UDFNUM;
 166:../../../../tmk_core/protocol/lufa/LUFA-git/LUFA/Drivers/USB/Core/AVR8/../AVR8/Device_AVR8.h **** 			}
 167:../../../../tmk_core/protocol/lufa/LUFA-git/LUFA/Drivers/USB/Core/AVR8/../AVR8/Device_AVR8.h **** 
 168:../../../../tmk_core/protocol/lufa/LUFA-git/LUFA/Drivers/USB/Core/AVR8/../AVR8/Device_AVR8.h **** 			#if !defined(NO_SOF_EVENTS)
 169:../../../../tmk_core/protocol/lufa/LUFA-git/LUFA/Drivers/USB/Core/AVR8/../AVR8/Device_AVR8.h **** 				/** Enables the device mode Start Of Frame events. When enabled, this causes the
 170:../../../../tmk_core/protocol/lufa/LUFA-git/LUFA/Drivers/USB/Core/AVR8/../AVR8/Device_AVR8.h **** 				 *  \ref EVENT_USB_Device_StartOfFrame() event to fire once per millisecond, synchronized to th
 171:../../../../tmk_core/protocol/lufa/LUFA-git/LUFA/Drivers/USB/Core/AVR8/../AVR8/Device_AVR8.h **** 				 *  at the start of each USB frame when enumerated in device mode.
 172:../../../../tmk_core/protocol/lufa/LUFA-git/LUFA/Drivers/USB/Core/AVR8/../AVR8/Device_AVR8.h **** 				 *
 173:../../../../tmk_core/protocol/lufa/LUFA-git/LUFA/Drivers/USB/Core/AVR8/../AVR8/Device_AVR8.h **** 				 *  \note This function is not available when the \c NO_SOF_EVENTS compile time token is define
 174:../../../../tmk_core/protocol/lufa/LUFA-git/LUFA/Drivers/USB/Core/AVR8/../AVR8/Device_AVR8.h **** 				 */
 175:../../../../tmk_core/protocol/lufa/LUFA-git/LUFA/Drivers/USB/Core/AVR8/../AVR8/Device_AVR8.h **** 				static inline void USB_Device_EnableSOFEvents(void) ATTR_ALWAYS_INLINE;
 176:../../../../tmk_core/protocol/lufa/LUFA-git/LUFA/Drivers/USB/Core/AVR8/../AVR8/Device_AVR8.h **** 				static inline void USB_Device_EnableSOFEvents(void)
 177:../../../../tmk_core/protocol/lufa/LUFA-git/LUFA/Drivers/USB/Core/AVR8/../AVR8/Device_AVR8.h **** 				{
 178:../../../../tmk_core/protocol/lufa/LUFA-git/LUFA/Drivers/USB/Core/AVR8/../AVR8/Device_AVR8.h **** 					USB_INT_Enable(USB_INT_SOFI);
 179:../../../../tmk_core/protocol/lufa/LUFA-git/LUFA/Drivers/USB/Core/AVR8/../AVR8/Device_AVR8.h **** 				}
 180:../../../../tmk_core/protocol/lufa/LUFA-git/LUFA/Drivers/USB/Core/AVR8/../AVR8/Device_AVR8.h **** 
 181:../../../../tmk_core/protocol/lufa/LUFA-git/LUFA/Drivers/USB/Core/AVR8/../AVR8/Device_AVR8.h **** 				/** Disables the device mode Start Of Frame events. When disabled, this stops the firing of the
 182:../../../../tmk_core/protocol/lufa/LUFA-git/LUFA/Drivers/USB/Core/AVR8/../AVR8/Device_AVR8.h **** 				 *  \ref EVENT_USB_Device_StartOfFrame() event when enumerated in device mode.
 183:../../../../tmk_core/protocol/lufa/LUFA-git/LUFA/Drivers/USB/Core/AVR8/../AVR8/Device_AVR8.h **** 				 *
 184:../../../../tmk_core/protocol/lufa/LUFA-git/LUFA/Drivers/USB/Core/AVR8/../AVR8/Device_AVR8.h **** 				 *  \note This function is not available when the \c NO_SOF_EVENTS compile time token is define
 185:../../../../tmk_core/protocol/lufa/LUFA-git/LUFA/Drivers/USB/Core/AVR8/../AVR8/Device_AVR8.h **** 				 */
 186:../../../../tmk_core/protocol/lufa/LUFA-git/LUFA/Drivers/USB/Core/AVR8/../AVR8/Device_AVR8.h **** 				static inline void USB_Device_DisableSOFEvents(void) ATTR_ALWAYS_INLINE;
 187:../../../../tmk_core/protocol/lufa/LUFA-git/LUFA/Drivers/USB/Core/AVR8/../AVR8/Device_AVR8.h **** 				static inline void USB_Device_DisableSOFEvents(void)
 188:../../../../tmk_core/protocol/lufa/LUFA-git/LUFA/Drivers/USB/Core/AVR8/../AVR8/Device_AVR8.h **** 				{
 189:../../../../tmk_core/protocol/lufa/LUFA-git/LUFA/Drivers/USB/Core/AVR8/../AVR8/Device_AVR8.h **** 					USB_INT_Disable(USB_INT_SOFI);
 190:../../../../tmk_core/protocol/lufa/LUFA-git/LUFA/Drivers/USB/Core/AVR8/../AVR8/Device_AVR8.h **** 				}
 191:../../../../tmk_core/protocol/lufa/LUFA-git/LUFA/Drivers/USB/Core/AVR8/../AVR8/Device_AVR8.h **** 			#endif
 192:../../../../tmk_core/protocol/lufa/LUFA-git/LUFA/Drivers/USB/Core/AVR8/../AVR8/Device_AVR8.h **** 
 193:../../../../tmk_core/protocol/lufa/LUFA-git/LUFA/Drivers/USB/Core/AVR8/../AVR8/Device_AVR8.h **** 	/* Private Interface - For use in library only: */
 194:../../../../tmk_core/protocol/lufa/LUFA-git/LUFA/Drivers/USB/Core/AVR8/../AVR8/Device_AVR8.h **** 	#if !defined(__DOXYGEN__)
 195:../../../../tmk_core/protocol/lufa/LUFA-git/LUFA/Drivers/USB/Core/AVR8/../AVR8/Device_AVR8.h **** 		/* Inline Functions: */
 196:../../../../tmk_core/protocol/lufa/LUFA-git/LUFA/Drivers/USB/Core/AVR8/../AVR8/Device_AVR8.h **** 			#if defined(USB_DEVICE_OPT_LOWSPEED)
 197:../../../../tmk_core/protocol/lufa/LUFA-git/LUFA/Drivers/USB/Core/AVR8/../AVR8/Device_AVR8.h **** 			static inline void USB_Device_SetLowSpeed(void) ATTR_ALWAYS_INLINE;
 198:../../../../tmk_core/protocol/lufa/LUFA-git/LUFA/Drivers/USB/Core/AVR8/../AVR8/Device_AVR8.h **** 			static inline void USB_Device_SetLowSpeed(void)
 199:../../../../tmk_core/protocol/lufa/LUFA-git/LUFA/Drivers/USB/Core/AVR8/../AVR8/Device_AVR8.h **** 			{
 200:../../../../tmk_core/protocol/lufa/LUFA-git/LUFA/Drivers/USB/Core/AVR8/../AVR8/Device_AVR8.h **** 				UDCON |=  (1 << LSM);
 201:../../../../tmk_core/protocol/lufa/LUFA-git/LUFA/Drivers/USB/Core/AVR8/../AVR8/Device_AVR8.h **** 			}
 202:../../../../tmk_core/protocol/lufa/LUFA-git/LUFA/Drivers/USB/Core/AVR8/../AVR8/Device_AVR8.h **** 
 203:../../../../tmk_core/protocol/lufa/LUFA-git/LUFA/Drivers/USB/Core/AVR8/../AVR8/Device_AVR8.h **** 			static inline void USB_Device_SetFullSpeed(void) ATTR_ALWAYS_INLINE;
 204:../../../../tmk_core/protocol/lufa/LUFA-git/LUFA/Drivers/USB/Core/AVR8/../AVR8/Device_AVR8.h **** 			static inline void USB_Device_SetFullSpeed(void)
 205:../../../../tmk_core/protocol/lufa/LUFA-git/LUFA/Drivers/USB/Core/AVR8/../AVR8/Device_AVR8.h **** 			{
 206:../../../../tmk_core/protocol/lufa/LUFA-git/LUFA/Drivers/USB/Core/AVR8/../AVR8/Device_AVR8.h **** 				UDCON &= ~(1 << LSM);
 207:../../../../tmk_core/protocol/lufa/LUFA-git/LUFA/Drivers/USB/Core/AVR8/../AVR8/Device_AVR8.h **** 			}
 208:../../../../tmk_core/protocol/lufa/LUFA-git/LUFA/Drivers/USB/Core/AVR8/../AVR8/Device_AVR8.h **** 			#endif
 209:../../../../tmk_core/protocol/lufa/LUFA-git/LUFA/Drivers/USB/Core/AVR8/../AVR8/Device_AVR8.h **** 
 210:../../../../tmk_core/protocol/lufa/LUFA-git/LUFA/Drivers/USB/Core/AVR8/../AVR8/Device_AVR8.h **** 			static inline void USB_Device_SetDeviceAddress(const uint8_t Address) ATTR_ALWAYS_INLINE;
 211:../../../../tmk_core/protocol/lufa/LUFA-git/LUFA/Drivers/USB/Core/AVR8/../AVR8/Device_AVR8.h **** 			static inline void USB_Device_SetDeviceAddress(const uint8_t Address)
 212:../../../../tmk_core/protocol/lufa/LUFA-git/LUFA/Drivers/USB/Core/AVR8/../AVR8/Device_AVR8.h **** 			{
 213:../../../../tmk_core/protocol/lufa/LUFA-git/LUFA/Drivers/USB/Core/AVR8/../AVR8/Device_AVR8.h **** 				UDADDR = (UDADDR & (1 << ADDEN)) | (Address & 0x7F);
 346               		.loc 3 213 0
 347 0164 9091 E300 		lds r25,227
 348 0168 9078      		andi r25,lo8(-128)
 349 016a 982B      		or r25,r24
 350 016c 9093 E300 		sts 227,r25
 351               	.LBE212:
 352               	.LBE211:
 353               	.LBB213:
 354               	.LBB214:
 444:../../../../tmk_core/protocol/lufa/LUFA-git/LUFA/Drivers/USB/Core/AVR8/../AVR8/Endpoint_AVR8.h **** 				UEINTX &= ~(1 << RXSTPI);
 355               		.loc 2 444 0
 356 0170 8091 E800 		lds r24,232
 357 0174 877F      		andi r24,lo8(-9)
 358 0176 8093 E800 		sts 232,r24
 359               	.LBE214:
 360               	.LBE213:
 133:../../../../tmk_core/protocol/lufa/LUFA-git/LUFA/Drivers/USB/Core/DeviceStandardReq.c **** 	Endpoint_ClearStatusStage();
 361               		.loc 1 133 0
 362 017a 0E94 0000 		call Endpoint_ClearStatusStage
 363               	.LVL25:
 364               	.L22:
 365               	.LBB215:
 366               	.LBB216:
 407:../../../../tmk_core/protocol/lufa/LUFA-git/LUFA/Drivers/USB/Core/AVR8/../AVR8/Endpoint_AVR8.h **** 				return ((UEINTX & (1 << TXINI)) ? true : false);
 367               		.loc 2 407 0
 368 017e 8091 E800 		lds r24,232
 369               	.LBE216:
 370               	.LBE215:
 135:../../../../tmk_core/protocol/lufa/LUFA-git/LUFA/Drivers/USB/Core/DeviceStandardReq.c **** 	while (!(Endpoint_IsINReady()));
 371               		.loc 1 135 0
 372 0182 80FF      		sbrs r24,0
 373 0184 00C0      		rjmp .L22
 374               	.LBB217:
 375               	.LBB218:
 214:../../../../tmk_core/protocol/lufa/LUFA-git/LUFA/Drivers/USB/Core/AVR8/../AVR8/Device_AVR8.h **** 			}
 215:../../../../tmk_core/protocol/lufa/LUFA-git/LUFA/Drivers/USB/Core/AVR8/../AVR8/Device_AVR8.h **** 
 216:../../../../tmk_core/protocol/lufa/LUFA-git/LUFA/Drivers/USB/Core/AVR8/../AVR8/Device_AVR8.h **** 			static inline void USB_Device_EnableDeviceAddress(const uint8_t Address) ATTR_ALWAYS_INLINE;
 217:../../../../tmk_core/protocol/lufa/LUFA-git/LUFA/Drivers/USB/Core/AVR8/../AVR8/Device_AVR8.h **** 			static inline void USB_Device_EnableDeviceAddress(const uint8_t Address)
 218:../../../../tmk_core/protocol/lufa/LUFA-git/LUFA/Drivers/USB/Core/AVR8/../AVR8/Device_AVR8.h **** 			{
 219:../../../../tmk_core/protocol/lufa/LUFA-git/LUFA/Drivers/USB/Core/AVR8/../AVR8/Device_AVR8.h **** 				(void)Address;
 220:../../../../tmk_core/protocol/lufa/LUFA-git/LUFA/Drivers/USB/Core/AVR8/../AVR8/Device_AVR8.h **** 
 221:../../../../tmk_core/protocol/lufa/LUFA-git/LUFA/Drivers/USB/Core/AVR8/../AVR8/Device_AVR8.h **** 				UDADDR |= (1 << ADDEN);
 376               		.loc 3 221 0
 377 0186 8091 E300 		lds r24,227
 378 018a 8068      		ori r24,lo8(-128)
 379 018c 8093 E300 		sts 227,r24
 380               	.LBE218:
 381               	.LBE217:
 139:../../../../tmk_core/protocol/lufa/LUFA-git/LUFA/Drivers/USB/Core/DeviceStandardReq.c **** 	USB_DeviceState = (DeviceAddress) ? DEVICE_STATE_Addressed : DEVICE_STATE_Default;
 382               		.loc 1 139 0
 383 0190 1123      		tst r17
 384 0192 01F0      		breq .L34
 385 0194 83E0      		ldi r24,lo8(3)
 386               	.LVL26:
 387 0196 00C0      		rjmp .L23
 388               	.L34:
 389 0198 82E0      		ldi r24,lo8(2)
 390               	.L23:
 391               	.LVL27:
 392 019a 8093 0000 		sts USB_DeviceState,r24
 393 019e 00C0      		rjmp .L3
 394               	.LVL28:
 395               	.L7:
 396               	.LBE210:
 397               	.LBE209:
  95:../../../../tmk_core/protocol/lufa/LUFA-git/LUFA/Drivers/USB/Core/DeviceStandardReq.c **** 				if ((bmRequestType == (REQDIR_DEVICETOHOST | REQTYPE_STANDARD | REQREC_DEVICE)) ||
 398               		.loc 1 95 0
 399 01a0 8058      		subi r24,lo8(-(-128))
 400               	.LVL29:
 401 01a2 8230      		cpi r24,lo8(2)
 402 01a4 00F0      		brlo .+2
 403 01a6 00C0      		rjmp .L3
 404               	.LBB219:
 405               	.LBB220:
 250:../../../../tmk_core/protocol/lufa/LUFA-git/LUFA/Drivers/USB/Core/DeviceStandardReq.c **** 	if (USB_ControlRequest.wValue == ((DTYPE_String << 8) | USE_INTERNAL_SERIAL))
 406               		.loc 1 250 0
 407 01a8 8091 0000 		lds r24,USB_ControlRequest+2
 408 01ac 9091 0000 		lds r25,USB_ControlRequest+2+1
 409 01b0 8C3D      		cpi r24,-36
 410 01b2 23E0      		ldi r18,3
 411 01b4 9207      		cpc r25,r18
 412 01b6 01F4      		brne .L24
 413               	.LBB221:
 414               	.LBB222:
 227:../../../../tmk_core/protocol/lufa/LUFA-git/LUFA/Drivers/USB/Core/DeviceStandardReq.c **** 	SignatureDescriptor.Header.Type = DTYPE_String;
 415               		.loc 1 227 0
 416 01b8 83E0      		ldi r24,lo8(3)
 417 01ba 8A83      		std Y+2,r24
 228:../../../../tmk_core/protocol/lufa/LUFA-git/LUFA/Drivers/USB/Core/DeviceStandardReq.c **** 	SignatureDescriptor.Header.Size = USB_STRING_LEN(INTERNAL_SERIAL_LENGTH_BITS / 4);
 418               		.loc 1 228 0
 419 01bc 8AE2      		ldi r24,lo8(42)
 420 01be 8983      		std Y+1,r24
 421               	.LVL30:
 422               	.LBB223:
 423               	.LBB224:
 424               	.LBB225:
 425               	.LBB226:
 426               		.file 4 "../../../../tmk_core/protocol/lufa/LUFA-git/LUFA/Drivers/USB/Core/../../../Common/Common.
   1:../../../../tmk_core/protocol/lufa/LUFA-git/LUFA/Drivers/USB/Core/../../../Common/Common.h **** /*
   2:../../../../tmk_core/protocol/lufa/LUFA-git/LUFA/Drivers/USB/Core/../../../Common/Common.h ****              LUFA Library
   3:../../../../tmk_core/protocol/lufa/LUFA-git/LUFA/Drivers/USB/Core/../../../Common/Common.h ****      Copyright (C) Dean Camera, 2014.
   4:../../../../tmk_core/protocol/lufa/LUFA-git/LUFA/Drivers/USB/Core/../../../Common/Common.h **** 
   5:../../../../tmk_core/protocol/lufa/LUFA-git/LUFA/Drivers/USB/Core/../../../Common/Common.h ****   dean [at] fourwalledcubicle [dot] com
   6:../../../../tmk_core/protocol/lufa/LUFA-git/LUFA/Drivers/USB/Core/../../../Common/Common.h ****            www.lufa-lib.org
   7:../../../../tmk_core/protocol/lufa/LUFA-git/LUFA/Drivers/USB/Core/../../../Common/Common.h **** */
   8:../../../../tmk_core/protocol/lufa/LUFA-git/LUFA/Drivers/USB/Core/../../../Common/Common.h **** 
   9:../../../../tmk_core/protocol/lufa/LUFA-git/LUFA/Drivers/USB/Core/../../../Common/Common.h **** /*
  10:../../../../tmk_core/protocol/lufa/LUFA-git/LUFA/Drivers/USB/Core/../../../Common/Common.h ****   Copyright 2014  Dean Camera (dean [at] fourwalledcubicle [dot] com)
  11:../../../../tmk_core/protocol/lufa/LUFA-git/LUFA/Drivers/USB/Core/../../../Common/Common.h **** 
  12:../../../../tmk_core/protocol/lufa/LUFA-git/LUFA/Drivers/USB/Core/../../../Common/Common.h ****   Permission to use, copy, modify, distribute, and sell this
  13:../../../../tmk_core/protocol/lufa/LUFA-git/LUFA/Drivers/USB/Core/../../../Common/Common.h ****   software and its documentation for any purpose is hereby granted
  14:../../../../tmk_core/protocol/lufa/LUFA-git/LUFA/Drivers/USB/Core/../../../Common/Common.h ****   without fee, provided that the above copyright notice appear in
  15:../../../../tmk_core/protocol/lufa/LUFA-git/LUFA/Drivers/USB/Core/../../../Common/Common.h ****   all copies and that both that the copyright notice and this
  16:../../../../tmk_core/protocol/lufa/LUFA-git/LUFA/Drivers/USB/Core/../../../Common/Common.h ****   permission notice and warranty disclaimer appear in supporting
  17:../../../../tmk_core/protocol/lufa/LUFA-git/LUFA/Drivers/USB/Core/../../../Common/Common.h ****   documentation, and that the name of the author not be used in
  18:../../../../tmk_core/protocol/lufa/LUFA-git/LUFA/Drivers/USB/Core/../../../Common/Common.h ****   advertising or publicity pertaining to distribution of the
  19:../../../../tmk_core/protocol/lufa/LUFA-git/LUFA/Drivers/USB/Core/../../../Common/Common.h ****   software without specific, written prior permission.
  20:../../../../tmk_core/protocol/lufa/LUFA-git/LUFA/Drivers/USB/Core/../../../Common/Common.h **** 
  21:../../../../tmk_core/protocol/lufa/LUFA-git/LUFA/Drivers/USB/Core/../../../Common/Common.h ****   The author disclaims all warranties with regard to this
  22:../../../../tmk_core/protocol/lufa/LUFA-git/LUFA/Drivers/USB/Core/../../../Common/Common.h ****   software, including all implied warranties of merchantability
  23:../../../../tmk_core/protocol/lufa/LUFA-git/LUFA/Drivers/USB/Core/../../../Common/Common.h ****   and fitness.  In no event shall the author be liable for any
  24:../../../../tmk_core/protocol/lufa/LUFA-git/LUFA/Drivers/USB/Core/../../../Common/Common.h ****   special, indirect or consequential damages or any damages
  25:../../../../tmk_core/protocol/lufa/LUFA-git/LUFA/Drivers/USB/Core/../../../Common/Common.h ****   whatsoever resulting from loss of use, data or profits, whether
  26:../../../../tmk_core/protocol/lufa/LUFA-git/LUFA/Drivers/USB/Core/../../../Common/Common.h ****   in an action of contract, negligence or other tortious action,
  27:../../../../tmk_core/protocol/lufa/LUFA-git/LUFA/Drivers/USB/Core/../../../Common/Common.h ****   arising out of or in connection with the use or performance of
  28:../../../../tmk_core/protocol/lufa/LUFA-git/LUFA/Drivers/USB/Core/../../../Common/Common.h ****   this software.
  29:../../../../tmk_core/protocol/lufa/LUFA-git/LUFA/Drivers/USB/Core/../../../Common/Common.h **** */
  30:../../../../tmk_core/protocol/lufa/LUFA-git/LUFA/Drivers/USB/Core/../../../Common/Common.h **** 
  31:../../../../tmk_core/protocol/lufa/LUFA-git/LUFA/Drivers/USB/Core/../../../Common/Common.h **** /** \dir
  32:../../../../tmk_core/protocol/lufa/LUFA-git/LUFA/Drivers/USB/Core/../../../Common/Common.h ****  *  \brief Common library header files.
  33:../../../../tmk_core/protocol/lufa/LUFA-git/LUFA/Drivers/USB/Core/../../../Common/Common.h ****  *
  34:../../../../tmk_core/protocol/lufa/LUFA-git/LUFA/Drivers/USB/Core/../../../Common/Common.h ****  *  This folder contains header files which are common to all parts of the LUFA library. They may b
  35:../../../../tmk_core/protocol/lufa/LUFA-git/LUFA/Drivers/USB/Core/../../../Common/Common.h ****  *  user applications.
  36:../../../../tmk_core/protocol/lufa/LUFA-git/LUFA/Drivers/USB/Core/../../../Common/Common.h ****  */
  37:../../../../tmk_core/protocol/lufa/LUFA-git/LUFA/Drivers/USB/Core/../../../Common/Common.h **** 
  38:../../../../tmk_core/protocol/lufa/LUFA-git/LUFA/Drivers/USB/Core/../../../Common/Common.h **** /** \file
  39:../../../../tmk_core/protocol/lufa/LUFA-git/LUFA/Drivers/USB/Core/../../../Common/Common.h ****  *  \brief Common library convenience headers, macros and functions.
  40:../../../../tmk_core/protocol/lufa/LUFA-git/LUFA/Drivers/USB/Core/../../../Common/Common.h ****  *
  41:../../../../tmk_core/protocol/lufa/LUFA-git/LUFA/Drivers/USB/Core/../../../Common/Common.h ****  *  \copydetails Group_Common
  42:../../../../tmk_core/protocol/lufa/LUFA-git/LUFA/Drivers/USB/Core/../../../Common/Common.h ****  */
  43:../../../../tmk_core/protocol/lufa/LUFA-git/LUFA/Drivers/USB/Core/../../../Common/Common.h **** 
  44:../../../../tmk_core/protocol/lufa/LUFA-git/LUFA/Drivers/USB/Core/../../../Common/Common.h **** /** \defgroup Group_Common Common Utility Headers - LUFA/Drivers/Common/Common.h
  45:../../../../tmk_core/protocol/lufa/LUFA-git/LUFA/Drivers/USB/Core/../../../Common/Common.h ****  *  \brief Common library convenience headers, macros and functions.
  46:../../../../tmk_core/protocol/lufa/LUFA-git/LUFA/Drivers/USB/Core/../../../Common/Common.h ****  *
  47:../../../../tmk_core/protocol/lufa/LUFA-git/LUFA/Drivers/USB/Core/../../../Common/Common.h ****  *  Common utility headers containing macros, functions, enums and types which are common to all
  48:../../../../tmk_core/protocol/lufa/LUFA-git/LUFA/Drivers/USB/Core/../../../Common/Common.h ****  *  aspects of the library.
  49:../../../../tmk_core/protocol/lufa/LUFA-git/LUFA/Drivers/USB/Core/../../../Common/Common.h ****  *
  50:../../../../tmk_core/protocol/lufa/LUFA-git/LUFA/Drivers/USB/Core/../../../Common/Common.h ****  *  @{
  51:../../../../tmk_core/protocol/lufa/LUFA-git/LUFA/Drivers/USB/Core/../../../Common/Common.h ****  */
  52:../../../../tmk_core/protocol/lufa/LUFA-git/LUFA/Drivers/USB/Core/../../../Common/Common.h **** 
  53:../../../../tmk_core/protocol/lufa/LUFA-git/LUFA/Drivers/USB/Core/../../../Common/Common.h **** /** \defgroup Group_GlobalInt Global Interrupt Macros
  54:../../../../tmk_core/protocol/lufa/LUFA-git/LUFA/Drivers/USB/Core/../../../Common/Common.h ****  *  \brief Convenience macros for the management of interrupts globally within the device.
  55:../../../../tmk_core/protocol/lufa/LUFA-git/LUFA/Drivers/USB/Core/../../../Common/Common.h ****  *
  56:../../../../tmk_core/protocol/lufa/LUFA-git/LUFA/Drivers/USB/Core/../../../Common/Common.h ****  *  Macros and functions to create and control global interrupts within the device.
  57:../../../../tmk_core/protocol/lufa/LUFA-git/LUFA/Drivers/USB/Core/../../../Common/Common.h ****  */
  58:../../../../tmk_core/protocol/lufa/LUFA-git/LUFA/Drivers/USB/Core/../../../Common/Common.h **** 
  59:../../../../tmk_core/protocol/lufa/LUFA-git/LUFA/Drivers/USB/Core/../../../Common/Common.h **** #ifndef __LUFA_COMMON_H__
  60:../../../../tmk_core/protocol/lufa/LUFA-git/LUFA/Drivers/USB/Core/../../../Common/Common.h **** #define __LUFA_COMMON_H__
  61:../../../../tmk_core/protocol/lufa/LUFA-git/LUFA/Drivers/USB/Core/../../../Common/Common.h **** 
  62:../../../../tmk_core/protocol/lufa/LUFA-git/LUFA/Drivers/USB/Core/../../../Common/Common.h **** 	/* Macros: */
  63:../../../../tmk_core/protocol/lufa/LUFA-git/LUFA/Drivers/USB/Core/../../../Common/Common.h **** 		#define __INCLUDE_FROM_COMMON_H
  64:../../../../tmk_core/protocol/lufa/LUFA-git/LUFA/Drivers/USB/Core/../../../Common/Common.h **** 
  65:../../../../tmk_core/protocol/lufa/LUFA-git/LUFA/Drivers/USB/Core/../../../Common/Common.h **** 	/* Includes: */
  66:../../../../tmk_core/protocol/lufa/LUFA-git/LUFA/Drivers/USB/Core/../../../Common/Common.h **** 		#include <stdint.h>
  67:../../../../tmk_core/protocol/lufa/LUFA-git/LUFA/Drivers/USB/Core/../../../Common/Common.h **** 		#include <stdbool.h>
  68:../../../../tmk_core/protocol/lufa/LUFA-git/LUFA/Drivers/USB/Core/../../../Common/Common.h **** 		#include <string.h>
  69:../../../../tmk_core/protocol/lufa/LUFA-git/LUFA/Drivers/USB/Core/../../../Common/Common.h **** 		#include <stddef.h>
  70:../../../../tmk_core/protocol/lufa/LUFA-git/LUFA/Drivers/USB/Core/../../../Common/Common.h **** 
  71:../../../../tmk_core/protocol/lufa/LUFA-git/LUFA/Drivers/USB/Core/../../../Common/Common.h **** 		#include "Architectures.h"
  72:../../../../tmk_core/protocol/lufa/LUFA-git/LUFA/Drivers/USB/Core/../../../Common/Common.h **** 		#include "BoardTypes.h"
  73:../../../../tmk_core/protocol/lufa/LUFA-git/LUFA/Drivers/USB/Core/../../../Common/Common.h **** 		#include "ArchitectureSpecific.h"
  74:../../../../tmk_core/protocol/lufa/LUFA-git/LUFA/Drivers/USB/Core/../../../Common/Common.h **** 		#include "CompilerSpecific.h"
  75:../../../../tmk_core/protocol/lufa/LUFA-git/LUFA/Drivers/USB/Core/../../../Common/Common.h **** 		#include "Attributes.h"
  76:../../../../tmk_core/protocol/lufa/LUFA-git/LUFA/Drivers/USB/Core/../../../Common/Common.h **** 
  77:../../../../tmk_core/protocol/lufa/LUFA-git/LUFA/Drivers/USB/Core/../../../Common/Common.h **** 		#if defined(USE_LUFA_CONFIG_HEADER)
  78:../../../../tmk_core/protocol/lufa/LUFA-git/LUFA/Drivers/USB/Core/../../../Common/Common.h **** 			#include "LUFAConfig.h"
  79:../../../../tmk_core/protocol/lufa/LUFA-git/LUFA/Drivers/USB/Core/../../../Common/Common.h **** 		#endif
  80:../../../../tmk_core/protocol/lufa/LUFA-git/LUFA/Drivers/USB/Core/../../../Common/Common.h **** 
  81:../../../../tmk_core/protocol/lufa/LUFA-git/LUFA/Drivers/USB/Core/../../../Common/Common.h **** 	/* Enable C linkage for C++ Compilers: */
  82:../../../../tmk_core/protocol/lufa/LUFA-git/LUFA/Drivers/USB/Core/../../../Common/Common.h **** 		#if defined(__cplusplus)
  83:../../../../tmk_core/protocol/lufa/LUFA-git/LUFA/Drivers/USB/Core/../../../Common/Common.h **** 			extern "C" {
  84:../../../../tmk_core/protocol/lufa/LUFA-git/LUFA/Drivers/USB/Core/../../../Common/Common.h **** 		#endif
  85:../../../../tmk_core/protocol/lufa/LUFA-git/LUFA/Drivers/USB/Core/../../../Common/Common.h **** 
  86:../../../../tmk_core/protocol/lufa/LUFA-git/LUFA/Drivers/USB/Core/../../../Common/Common.h **** 	/* Architecture specific utility includes: */
  87:../../../../tmk_core/protocol/lufa/LUFA-git/LUFA/Drivers/USB/Core/../../../Common/Common.h **** 		#if defined(__DOXYGEN__)
  88:../../../../tmk_core/protocol/lufa/LUFA-git/LUFA/Drivers/USB/Core/../../../Common/Common.h **** 			/** Type define for an unsigned integer the same width as the selected architecture's machine re
  89:../../../../tmk_core/protocol/lufa/LUFA-git/LUFA/Drivers/USB/Core/../../../Common/Common.h **** 			 *  This is distinct from the non-specific standard int data type, whose width is machine depend
  90:../../../../tmk_core/protocol/lufa/LUFA-git/LUFA/Drivers/USB/Core/../../../Common/Common.h **** 			 *  which may not reflect the actual machine register width on some targets (e.g. AVR8).
  91:../../../../tmk_core/protocol/lufa/LUFA-git/LUFA/Drivers/USB/Core/../../../Common/Common.h **** 			 */
  92:../../../../tmk_core/protocol/lufa/LUFA-git/LUFA/Drivers/USB/Core/../../../Common/Common.h **** 			typedef MACHINE_REG_t uint_reg_t;
  93:../../../../tmk_core/protocol/lufa/LUFA-git/LUFA/Drivers/USB/Core/../../../Common/Common.h **** 		#elif (ARCH == ARCH_AVR8)
  94:../../../../tmk_core/protocol/lufa/LUFA-git/LUFA/Drivers/USB/Core/../../../Common/Common.h **** 			#include <avr/io.h>
  95:../../../../tmk_core/protocol/lufa/LUFA-git/LUFA/Drivers/USB/Core/../../../Common/Common.h **** 			#include <avr/interrupt.h>
  96:../../../../tmk_core/protocol/lufa/LUFA-git/LUFA/Drivers/USB/Core/../../../Common/Common.h **** 			#include <avr/pgmspace.h>
  97:../../../../tmk_core/protocol/lufa/LUFA-git/LUFA/Drivers/USB/Core/../../../Common/Common.h **** 			#include <avr/eeprom.h>
  98:../../../../tmk_core/protocol/lufa/LUFA-git/LUFA/Drivers/USB/Core/../../../Common/Common.h **** 			#include <avr/boot.h>
  99:../../../../tmk_core/protocol/lufa/LUFA-git/LUFA/Drivers/USB/Core/../../../Common/Common.h **** 			#include <math.h>
 100:../../../../tmk_core/protocol/lufa/LUFA-git/LUFA/Drivers/USB/Core/../../../Common/Common.h **** 			#include <util/delay.h>
 101:../../../../tmk_core/protocol/lufa/LUFA-git/LUFA/Drivers/USB/Core/../../../Common/Common.h **** 
 102:../../../../tmk_core/protocol/lufa/LUFA-git/LUFA/Drivers/USB/Core/../../../Common/Common.h **** 			typedef uint8_t uint_reg_t;
 103:../../../../tmk_core/protocol/lufa/LUFA-git/LUFA/Drivers/USB/Core/../../../Common/Common.h **** 
 104:../../../../tmk_core/protocol/lufa/LUFA-git/LUFA/Drivers/USB/Core/../../../Common/Common.h **** 			#define ARCH_HAS_EEPROM_ADDRESS_SPACE
 105:../../../../tmk_core/protocol/lufa/LUFA-git/LUFA/Drivers/USB/Core/../../../Common/Common.h **** 			#define ARCH_HAS_FLASH_ADDRESS_SPACE
 106:../../../../tmk_core/protocol/lufa/LUFA-git/LUFA/Drivers/USB/Core/../../../Common/Common.h **** 			#define ARCH_HAS_MULTI_ADDRESS_SPACE
 107:../../../../tmk_core/protocol/lufa/LUFA-git/LUFA/Drivers/USB/Core/../../../Common/Common.h **** 			#define ARCH_LITTLE_ENDIAN
 108:../../../../tmk_core/protocol/lufa/LUFA-git/LUFA/Drivers/USB/Core/../../../Common/Common.h **** 
 109:../../../../tmk_core/protocol/lufa/LUFA-git/LUFA/Drivers/USB/Core/../../../Common/Common.h **** 			#include "Endianness.h"
 110:../../../../tmk_core/protocol/lufa/LUFA-git/LUFA/Drivers/USB/Core/../../../Common/Common.h **** 		#elif (ARCH == ARCH_UC3)
 111:../../../../tmk_core/protocol/lufa/LUFA-git/LUFA/Drivers/USB/Core/../../../Common/Common.h **** 			#include <avr32/io.h>
 112:../../../../tmk_core/protocol/lufa/LUFA-git/LUFA/Drivers/USB/Core/../../../Common/Common.h **** 			#include <math.h>
 113:../../../../tmk_core/protocol/lufa/LUFA-git/LUFA/Drivers/USB/Core/../../../Common/Common.h **** 
 114:../../../../tmk_core/protocol/lufa/LUFA-git/LUFA/Drivers/USB/Core/../../../Common/Common.h **** 			// === TODO: Find abstracted way to handle these ===
 115:../../../../tmk_core/protocol/lufa/LUFA-git/LUFA/Drivers/USB/Core/../../../Common/Common.h **** 			#define PROGMEM
 116:../../../../tmk_core/protocol/lufa/LUFA-git/LUFA/Drivers/USB/Core/../../../Common/Common.h **** 			#define pgm_read_byte(x)         *x
 117:../../../../tmk_core/protocol/lufa/LUFA-git/LUFA/Drivers/USB/Core/../../../Common/Common.h **** 			#define memcmp_P(...)            memcmp(__VA_ARGS__)
 118:../../../../tmk_core/protocol/lufa/LUFA-git/LUFA/Drivers/USB/Core/../../../Common/Common.h **** 			#define memcpy_P(...)            memcpy(__VA_ARGS__)
 119:../../../../tmk_core/protocol/lufa/LUFA-git/LUFA/Drivers/USB/Core/../../../Common/Common.h **** 			// =================================================
 120:../../../../tmk_core/protocol/lufa/LUFA-git/LUFA/Drivers/USB/Core/../../../Common/Common.h **** 
 121:../../../../tmk_core/protocol/lufa/LUFA-git/LUFA/Drivers/USB/Core/../../../Common/Common.h **** 			typedef uint32_t uint_reg_t;
 122:../../../../tmk_core/protocol/lufa/LUFA-git/LUFA/Drivers/USB/Core/../../../Common/Common.h **** 
 123:../../../../tmk_core/protocol/lufa/LUFA-git/LUFA/Drivers/USB/Core/../../../Common/Common.h **** 			#define ARCH_BIG_ENDIAN
 124:../../../../tmk_core/protocol/lufa/LUFA-git/LUFA/Drivers/USB/Core/../../../Common/Common.h **** 
 125:../../../../tmk_core/protocol/lufa/LUFA-git/LUFA/Drivers/USB/Core/../../../Common/Common.h **** 			#include "Endianness.h"
 126:../../../../tmk_core/protocol/lufa/LUFA-git/LUFA/Drivers/USB/Core/../../../Common/Common.h **** 		#elif (ARCH == ARCH_XMEGA)
 127:../../../../tmk_core/protocol/lufa/LUFA-git/LUFA/Drivers/USB/Core/../../../Common/Common.h **** 			#include <avr/io.h>
 128:../../../../tmk_core/protocol/lufa/LUFA-git/LUFA/Drivers/USB/Core/../../../Common/Common.h **** 			#include <avr/interrupt.h>
 129:../../../../tmk_core/protocol/lufa/LUFA-git/LUFA/Drivers/USB/Core/../../../Common/Common.h **** 			#include <avr/pgmspace.h>
 130:../../../../tmk_core/protocol/lufa/LUFA-git/LUFA/Drivers/USB/Core/../../../Common/Common.h **** 			#include <avr/eeprom.h>
 131:../../../../tmk_core/protocol/lufa/LUFA-git/LUFA/Drivers/USB/Core/../../../Common/Common.h **** 			#include <math.h>
 132:../../../../tmk_core/protocol/lufa/LUFA-git/LUFA/Drivers/USB/Core/../../../Common/Common.h **** 			#include <util/delay.h>
 133:../../../../tmk_core/protocol/lufa/LUFA-git/LUFA/Drivers/USB/Core/../../../Common/Common.h **** 
 134:../../../../tmk_core/protocol/lufa/LUFA-git/LUFA/Drivers/USB/Core/../../../Common/Common.h **** 			typedef uint8_t uint_reg_t;
 135:../../../../tmk_core/protocol/lufa/LUFA-git/LUFA/Drivers/USB/Core/../../../Common/Common.h **** 
 136:../../../../tmk_core/protocol/lufa/LUFA-git/LUFA/Drivers/USB/Core/../../../Common/Common.h **** 			#define ARCH_HAS_EEPROM_ADDRESS_SPACE
 137:../../../../tmk_core/protocol/lufa/LUFA-git/LUFA/Drivers/USB/Core/../../../Common/Common.h **** 			#define ARCH_HAS_FLASH_ADDRESS_SPACE
 138:../../../../tmk_core/protocol/lufa/LUFA-git/LUFA/Drivers/USB/Core/../../../Common/Common.h **** 			#define ARCH_HAS_MULTI_ADDRESS_SPACE
 139:../../../../tmk_core/protocol/lufa/LUFA-git/LUFA/Drivers/USB/Core/../../../Common/Common.h **** 			#define ARCH_LITTLE_ENDIAN
 140:../../../../tmk_core/protocol/lufa/LUFA-git/LUFA/Drivers/USB/Core/../../../Common/Common.h **** 
 141:../../../../tmk_core/protocol/lufa/LUFA-git/LUFA/Drivers/USB/Core/../../../Common/Common.h **** 			#include "Endianness.h"
 142:../../../../tmk_core/protocol/lufa/LUFA-git/LUFA/Drivers/USB/Core/../../../Common/Common.h **** 		#else
 143:../../../../tmk_core/protocol/lufa/LUFA-git/LUFA/Drivers/USB/Core/../../../Common/Common.h **** 			#error Unknown device architecture specified.
 144:../../../../tmk_core/protocol/lufa/LUFA-git/LUFA/Drivers/USB/Core/../../../Common/Common.h **** 		#endif
 145:../../../../tmk_core/protocol/lufa/LUFA-git/LUFA/Drivers/USB/Core/../../../Common/Common.h **** 
 146:../../../../tmk_core/protocol/lufa/LUFA-git/LUFA/Drivers/USB/Core/../../../Common/Common.h **** 	/* Public Interface - May be used in end-application: */
 147:../../../../tmk_core/protocol/lufa/LUFA-git/LUFA/Drivers/USB/Core/../../../Common/Common.h **** 		/* Macros: */
 148:../../../../tmk_core/protocol/lufa/LUFA-git/LUFA/Drivers/USB/Core/../../../Common/Common.h **** 			#if !defined(__DOXYGEN__)
 149:../../../../tmk_core/protocol/lufa/LUFA-git/LUFA/Drivers/USB/Core/../../../Common/Common.h **** 				// Obsolete, retained for compatibility with user code
 150:../../../../tmk_core/protocol/lufa/LUFA-git/LUFA/Drivers/USB/Core/../../../Common/Common.h **** 				#define MACROS                  do
 151:../../../../tmk_core/protocol/lufa/LUFA-git/LUFA/Drivers/USB/Core/../../../Common/Common.h **** 				#define MACROE                  while (0)
 152:../../../../tmk_core/protocol/lufa/LUFA-git/LUFA/Drivers/USB/Core/../../../Common/Common.h **** 			#endif
 153:../../../../tmk_core/protocol/lufa/LUFA-git/LUFA/Drivers/USB/Core/../../../Common/Common.h **** 
 154:../../../../tmk_core/protocol/lufa/LUFA-git/LUFA/Drivers/USB/Core/../../../Common/Common.h **** 			/** Convenience macro to determine the larger of two values.
 155:../../../../tmk_core/protocol/lufa/LUFA-git/LUFA/Drivers/USB/Core/../../../Common/Common.h **** 			 *
 156:../../../../tmk_core/protocol/lufa/LUFA-git/LUFA/Drivers/USB/Core/../../../Common/Common.h **** 			 *  \attention This macro should only be used with operands that do not have side effects from b
 157:../../../../tmk_core/protocol/lufa/LUFA-git/LUFA/Drivers/USB/Core/../../../Common/Common.h **** 			 *             multiple times.
 158:../../../../tmk_core/protocol/lufa/LUFA-git/LUFA/Drivers/USB/Core/../../../Common/Common.h **** 			 *
 159:../../../../tmk_core/protocol/lufa/LUFA-git/LUFA/Drivers/USB/Core/../../../Common/Common.h **** 			 *  \param[in] x  First value to compare
 160:../../../../tmk_core/protocol/lufa/LUFA-git/LUFA/Drivers/USB/Core/../../../Common/Common.h **** 			 *  \param[in] y  First value to compare
 161:../../../../tmk_core/protocol/lufa/LUFA-git/LUFA/Drivers/USB/Core/../../../Common/Common.h **** 			 *
 162:../../../../tmk_core/protocol/lufa/LUFA-git/LUFA/Drivers/USB/Core/../../../Common/Common.h **** 			 *  \return The larger of the two input parameters
 163:../../../../tmk_core/protocol/lufa/LUFA-git/LUFA/Drivers/USB/Core/../../../Common/Common.h **** 			 */
 164:../../../../tmk_core/protocol/lufa/LUFA-git/LUFA/Drivers/USB/Core/../../../Common/Common.h **** 			#if !defined(MAX) || defined(__DOXYGEN__)
 165:../../../../tmk_core/protocol/lufa/LUFA-git/LUFA/Drivers/USB/Core/../../../Common/Common.h **** 				#define MAX(x, y)               (((x) > (y)) ? (x) : (y))
 166:../../../../tmk_core/protocol/lufa/LUFA-git/LUFA/Drivers/USB/Core/../../../Common/Common.h **** 			#endif
 167:../../../../tmk_core/protocol/lufa/LUFA-git/LUFA/Drivers/USB/Core/../../../Common/Common.h **** 
 168:../../../../tmk_core/protocol/lufa/LUFA-git/LUFA/Drivers/USB/Core/../../../Common/Common.h **** 			/** Convenience macro to determine the smaller of two values.
 169:../../../../tmk_core/protocol/lufa/LUFA-git/LUFA/Drivers/USB/Core/../../../Common/Common.h **** 			 *
 170:../../../../tmk_core/protocol/lufa/LUFA-git/LUFA/Drivers/USB/Core/../../../Common/Common.h **** 			 *  \attention This macro should only be used with operands that do not have side effects from b
 171:../../../../tmk_core/protocol/lufa/LUFA-git/LUFA/Drivers/USB/Core/../../../Common/Common.h **** 			 *             multiple times.
 172:../../../../tmk_core/protocol/lufa/LUFA-git/LUFA/Drivers/USB/Core/../../../Common/Common.h **** 			 *
 173:../../../../tmk_core/protocol/lufa/LUFA-git/LUFA/Drivers/USB/Core/../../../Common/Common.h **** 			 *  \param[in] x  First value to compare.
 174:../../../../tmk_core/protocol/lufa/LUFA-git/LUFA/Drivers/USB/Core/../../../Common/Common.h **** 			 *  \param[in] y  First value to compare.
 175:../../../../tmk_core/protocol/lufa/LUFA-git/LUFA/Drivers/USB/Core/../../../Common/Common.h **** 			 *
 176:../../../../tmk_core/protocol/lufa/LUFA-git/LUFA/Drivers/USB/Core/../../../Common/Common.h **** 			 *  \return The smaller of the two input parameters
 177:../../../../tmk_core/protocol/lufa/LUFA-git/LUFA/Drivers/USB/Core/../../../Common/Common.h **** 			 */
 178:../../../../tmk_core/protocol/lufa/LUFA-git/LUFA/Drivers/USB/Core/../../../Common/Common.h **** 			#if !defined(MIN) || defined(__DOXYGEN__)
 179:../../../../tmk_core/protocol/lufa/LUFA-git/LUFA/Drivers/USB/Core/../../../Common/Common.h **** 				#define MIN(x, y)               (((x) < (y)) ? (x) : (y))
 180:../../../../tmk_core/protocol/lufa/LUFA-git/LUFA/Drivers/USB/Core/../../../Common/Common.h **** 			#endif
 181:../../../../tmk_core/protocol/lufa/LUFA-git/LUFA/Drivers/USB/Core/../../../Common/Common.h **** 
 182:../../../../tmk_core/protocol/lufa/LUFA-git/LUFA/Drivers/USB/Core/../../../Common/Common.h **** 			#if !defined(STRINGIFY) || defined(__DOXYGEN__)
 183:../../../../tmk_core/protocol/lufa/LUFA-git/LUFA/Drivers/USB/Core/../../../Common/Common.h **** 				/** Converts the given input into a string, via the C Preprocessor. This macro puts literal quo
 184:../../../../tmk_core/protocol/lufa/LUFA-git/LUFA/Drivers/USB/Core/../../../Common/Common.h **** 				 *  marks around the input, converting the source into a string literal.
 185:../../../../tmk_core/protocol/lufa/LUFA-git/LUFA/Drivers/USB/Core/../../../Common/Common.h **** 				 *
 186:../../../../tmk_core/protocol/lufa/LUFA-git/LUFA/Drivers/USB/Core/../../../Common/Common.h **** 				 *  \param[in] x  Input to convert into a string literal.
 187:../../../../tmk_core/protocol/lufa/LUFA-git/LUFA/Drivers/USB/Core/../../../Common/Common.h **** 				 *
 188:../../../../tmk_core/protocol/lufa/LUFA-git/LUFA/Drivers/USB/Core/../../../Common/Common.h **** 				 *  \return String version of the input.
 189:../../../../tmk_core/protocol/lufa/LUFA-git/LUFA/Drivers/USB/Core/../../../Common/Common.h **** 				 */
 190:../../../../tmk_core/protocol/lufa/LUFA-git/LUFA/Drivers/USB/Core/../../../Common/Common.h **** 				#define STRINGIFY(x)            #x
 191:../../../../tmk_core/protocol/lufa/LUFA-git/LUFA/Drivers/USB/Core/../../../Common/Common.h **** 
 192:../../../../tmk_core/protocol/lufa/LUFA-git/LUFA/Drivers/USB/Core/../../../Common/Common.h **** 				/** Converts the given input into a string after macro expansion, via the C Preprocessor. This 
 193:../../../../tmk_core/protocol/lufa/LUFA-git/LUFA/Drivers/USB/Core/../../../Common/Common.h **** 				 *  literal quotation marks around the expanded input, converting the source into a string lite
 194:../../../../tmk_core/protocol/lufa/LUFA-git/LUFA/Drivers/USB/Core/../../../Common/Common.h **** 				 *
 195:../../../../tmk_core/protocol/lufa/LUFA-git/LUFA/Drivers/USB/Core/../../../Common/Common.h **** 				 *  \param[in] x  Input to expand and convert into a string literal.
 196:../../../../tmk_core/protocol/lufa/LUFA-git/LUFA/Drivers/USB/Core/../../../Common/Common.h **** 				 *
 197:../../../../tmk_core/protocol/lufa/LUFA-git/LUFA/Drivers/USB/Core/../../../Common/Common.h **** 				 *  \return String version of the expanded input.
 198:../../../../tmk_core/protocol/lufa/LUFA-git/LUFA/Drivers/USB/Core/../../../Common/Common.h **** 				 */
 199:../../../../tmk_core/protocol/lufa/LUFA-git/LUFA/Drivers/USB/Core/../../../Common/Common.h **** 				#define STRINGIFY_EXPANDED(x)   STRINGIFY(x)
 200:../../../../tmk_core/protocol/lufa/LUFA-git/LUFA/Drivers/USB/Core/../../../Common/Common.h **** 			#endif
 201:../../../../tmk_core/protocol/lufa/LUFA-git/LUFA/Drivers/USB/Core/../../../Common/Common.h **** 
 202:../../../../tmk_core/protocol/lufa/LUFA-git/LUFA/Drivers/USB/Core/../../../Common/Common.h **** 			#if !defined(CONCAT) || defined(__DOXYGEN__)
 203:../../../../tmk_core/protocol/lufa/LUFA-git/LUFA/Drivers/USB/Core/../../../Common/Common.h **** 				/** Concatenates the given input into a single token, via the C Preprocessor.
 204:../../../../tmk_core/protocol/lufa/LUFA-git/LUFA/Drivers/USB/Core/../../../Common/Common.h **** 				 *
 205:../../../../tmk_core/protocol/lufa/LUFA-git/LUFA/Drivers/USB/Core/../../../Common/Common.h **** 				 *  \param[in] x  First item to concatenate.
 206:../../../../tmk_core/protocol/lufa/LUFA-git/LUFA/Drivers/USB/Core/../../../Common/Common.h **** 				 *  \param[in] y  Second item to concatenate.
 207:../../../../tmk_core/protocol/lufa/LUFA-git/LUFA/Drivers/USB/Core/../../../Common/Common.h **** 				 *
 208:../../../../tmk_core/protocol/lufa/LUFA-git/LUFA/Drivers/USB/Core/../../../Common/Common.h **** 				 *  \return Concatenated version of the input.
 209:../../../../tmk_core/protocol/lufa/LUFA-git/LUFA/Drivers/USB/Core/../../../Common/Common.h **** 				 */
 210:../../../../tmk_core/protocol/lufa/LUFA-git/LUFA/Drivers/USB/Core/../../../Common/Common.h **** 				#define CONCAT(x, y)            x ## y
 211:../../../../tmk_core/protocol/lufa/LUFA-git/LUFA/Drivers/USB/Core/../../../Common/Common.h **** 
 212:../../../../tmk_core/protocol/lufa/LUFA-git/LUFA/Drivers/USB/Core/../../../Common/Common.h **** 				/** CConcatenates the given input into a single token after macro expansion, via the C Preproce
 213:../../../../tmk_core/protocol/lufa/LUFA-git/LUFA/Drivers/USB/Core/../../../Common/Common.h **** 				 *
 214:../../../../tmk_core/protocol/lufa/LUFA-git/LUFA/Drivers/USB/Core/../../../Common/Common.h **** 				 *  \param[in] x  First item to concatenate.
 215:../../../../tmk_core/protocol/lufa/LUFA-git/LUFA/Drivers/USB/Core/../../../Common/Common.h **** 				 *  \param[in] y  Second item to concatenate.
 216:../../../../tmk_core/protocol/lufa/LUFA-git/LUFA/Drivers/USB/Core/../../../Common/Common.h **** 				 *
 217:../../../../tmk_core/protocol/lufa/LUFA-git/LUFA/Drivers/USB/Core/../../../Common/Common.h **** 				 *  \return Concatenated version of the expanded input.
 218:../../../../tmk_core/protocol/lufa/LUFA-git/LUFA/Drivers/USB/Core/../../../Common/Common.h **** 				 */
 219:../../../../tmk_core/protocol/lufa/LUFA-git/LUFA/Drivers/USB/Core/../../../Common/Common.h **** 				#define CONCAT_EXPANDED(x, y)   CONCAT(x, y)
 220:../../../../tmk_core/protocol/lufa/LUFA-git/LUFA/Drivers/USB/Core/../../../Common/Common.h **** 			#endif
 221:../../../../tmk_core/protocol/lufa/LUFA-git/LUFA/Drivers/USB/Core/../../../Common/Common.h **** 
 222:../../../../tmk_core/protocol/lufa/LUFA-git/LUFA/Drivers/USB/Core/../../../Common/Common.h **** 			#if !defined(ISR) || defined(__DOXYGEN__)
 223:../../../../tmk_core/protocol/lufa/LUFA-git/LUFA/Drivers/USB/Core/../../../Common/Common.h **** 				/** Macro for the definition of interrupt service routines, so that the compiler can insert the
 224:../../../../tmk_core/protocol/lufa/LUFA-git/LUFA/Drivers/USB/Core/../../../Common/Common.h **** 				 *  prologue and epilogue code to properly manage the interrupt routine without affecting the m
 225:../../../../tmk_core/protocol/lufa/LUFA-git/LUFA/Drivers/USB/Core/../../../Common/Common.h **** 				 *  state with unintentional side-effects.
 226:../../../../tmk_core/protocol/lufa/LUFA-git/LUFA/Drivers/USB/Core/../../../Common/Common.h **** 				 *
 227:../../../../tmk_core/protocol/lufa/LUFA-git/LUFA/Drivers/USB/Core/../../../Common/Common.h **** 				 *  Interrupt handlers written using this macro may still need to be registered with the microc
 228:../../../../tmk_core/protocol/lufa/LUFA-git/LUFA/Drivers/USB/Core/../../../Common/Common.h **** 				 *  Interrupt Controller (if present) before they will properly handle incoming interrupt event
 229:../../../../tmk_core/protocol/lufa/LUFA-git/LUFA/Drivers/USB/Core/../../../Common/Common.h **** 				 *
 230:../../../../tmk_core/protocol/lufa/LUFA-git/LUFA/Drivers/USB/Core/../../../Common/Common.h **** 				 *  \note This macro is only supplied on some architectures, where the standard library does no
 231:../../../../tmk_core/protocol/lufa/LUFA-git/LUFA/Drivers/USB/Core/../../../Common/Common.h **** 				 *        definition. If an existing definition exists, the alternative definition here will be
 232:../../../../tmk_core/protocol/lufa/LUFA-git/LUFA/Drivers/USB/Core/../../../Common/Common.h **** 				 *
 233:../../../../tmk_core/protocol/lufa/LUFA-git/LUFA/Drivers/USB/Core/../../../Common/Common.h **** 				 *  \ingroup Group_GlobalInt
 234:../../../../tmk_core/protocol/lufa/LUFA-git/LUFA/Drivers/USB/Core/../../../Common/Common.h **** 				 *
 235:../../../../tmk_core/protocol/lufa/LUFA-git/LUFA/Drivers/USB/Core/../../../Common/Common.h **** 				 *  \param[in] Name  Unique name of the interrupt service routine.
 236:../../../../tmk_core/protocol/lufa/LUFA-git/LUFA/Drivers/USB/Core/../../../Common/Common.h **** 				 */
 237:../../../../tmk_core/protocol/lufa/LUFA-git/LUFA/Drivers/USB/Core/../../../Common/Common.h **** 				#define ISR(Name, ...)          void Name (void) __attribute__((__interrupt__)) __VA_ARGS__; vo
 238:../../../../tmk_core/protocol/lufa/LUFA-git/LUFA/Drivers/USB/Core/../../../Common/Common.h **** 			#endif
 239:../../../../tmk_core/protocol/lufa/LUFA-git/LUFA/Drivers/USB/Core/../../../Common/Common.h **** 
 240:../../../../tmk_core/protocol/lufa/LUFA-git/LUFA/Drivers/USB/Core/../../../Common/Common.h **** 		/* Inline Functions: */
 241:../../../../tmk_core/protocol/lufa/LUFA-git/LUFA/Drivers/USB/Core/../../../Common/Common.h **** 			/** Function to reverse the individual bits in a byte - i.e. bit 7 is moved to bit 0, bit 6 to b
 242:../../../../tmk_core/protocol/lufa/LUFA-git/LUFA/Drivers/USB/Core/../../../Common/Common.h **** 			 *  etc.
 243:../../../../tmk_core/protocol/lufa/LUFA-git/LUFA/Drivers/USB/Core/../../../Common/Common.h **** 			 *
 244:../../../../tmk_core/protocol/lufa/LUFA-git/LUFA/Drivers/USB/Core/../../../Common/Common.h **** 			 *  \param[in] Byte  Byte of data whose bits are to be reversed.
 245:../../../../tmk_core/protocol/lufa/LUFA-git/LUFA/Drivers/USB/Core/../../../Common/Common.h **** 			 *
 246:../../../../tmk_core/protocol/lufa/LUFA-git/LUFA/Drivers/USB/Core/../../../Common/Common.h **** 			 *  \return Input data with the individual bits reversed (mirrored).
 247:../../../../tmk_core/protocol/lufa/LUFA-git/LUFA/Drivers/USB/Core/../../../Common/Common.h **** 			 */
 248:../../../../tmk_core/protocol/lufa/LUFA-git/LUFA/Drivers/USB/Core/../../../Common/Common.h **** 			static inline uint8_t BitReverse(uint8_t Byte) ATTR_WARN_UNUSED_RESULT ATTR_CONST;
 249:../../../../tmk_core/protocol/lufa/LUFA-git/LUFA/Drivers/USB/Core/../../../Common/Common.h **** 			static inline uint8_t BitReverse(uint8_t Byte)
 250:../../../../tmk_core/protocol/lufa/LUFA-git/LUFA/Drivers/USB/Core/../../../Common/Common.h **** 			{
 251:../../../../tmk_core/protocol/lufa/LUFA-git/LUFA/Drivers/USB/Core/../../../Common/Common.h **** 				Byte = (((Byte & 0xF0) >> 4) | ((Byte & 0x0F) << 4));
 252:../../../../tmk_core/protocol/lufa/LUFA-git/LUFA/Drivers/USB/Core/../../../Common/Common.h **** 				Byte = (((Byte & 0xCC) >> 2) | ((Byte & 0x33) << 2));
 253:../../../../tmk_core/protocol/lufa/LUFA-git/LUFA/Drivers/USB/Core/../../../Common/Common.h **** 				Byte = (((Byte & 0xAA) >> 1) | ((Byte & 0x55) << 1));
 254:../../../../tmk_core/protocol/lufa/LUFA-git/LUFA/Drivers/USB/Core/../../../Common/Common.h **** 
 255:../../../../tmk_core/protocol/lufa/LUFA-git/LUFA/Drivers/USB/Core/../../../Common/Common.h **** 				return Byte;
 256:../../../../tmk_core/protocol/lufa/LUFA-git/LUFA/Drivers/USB/Core/../../../Common/Common.h **** 			}
 257:../../../../tmk_core/protocol/lufa/LUFA-git/LUFA/Drivers/USB/Core/../../../Common/Common.h **** 
 258:../../../../tmk_core/protocol/lufa/LUFA-git/LUFA/Drivers/USB/Core/../../../Common/Common.h **** 			/** Function to perform a blocking delay for a specified number of milliseconds. The actual dela
 259:../../../../tmk_core/protocol/lufa/LUFA-git/LUFA/Drivers/USB/Core/../../../Common/Common.h **** 			 *  at a minimum the specified number of milliseconds, however due to loop overhead and internal
 260:../../../../tmk_core/protocol/lufa/LUFA-git/LUFA/Drivers/USB/Core/../../../Common/Common.h **** 			 *  may be slightly higher.
 261:../../../../tmk_core/protocol/lufa/LUFA-git/LUFA/Drivers/USB/Core/../../../Common/Common.h **** 			 *
 262:../../../../tmk_core/protocol/lufa/LUFA-git/LUFA/Drivers/USB/Core/../../../Common/Common.h **** 			 *  \param[in] Milliseconds  Number of milliseconds to delay
 263:../../../../tmk_core/protocol/lufa/LUFA-git/LUFA/Drivers/USB/Core/../../../Common/Common.h **** 			 */
 264:../../../../tmk_core/protocol/lufa/LUFA-git/LUFA/Drivers/USB/Core/../../../Common/Common.h **** 			static inline void Delay_MS(uint16_t Milliseconds) ATTR_ALWAYS_INLINE;
 265:../../../../tmk_core/protocol/lufa/LUFA-git/LUFA/Drivers/USB/Core/../../../Common/Common.h **** 			static inline void Delay_MS(uint16_t Milliseconds)
 266:../../../../tmk_core/protocol/lufa/LUFA-git/LUFA/Drivers/USB/Core/../../../Common/Common.h **** 			{
 267:../../../../tmk_core/protocol/lufa/LUFA-git/LUFA/Drivers/USB/Core/../../../Common/Common.h **** 				#if (ARCH == ARCH_AVR8)
 268:../../../../tmk_core/protocol/lufa/LUFA-git/LUFA/Drivers/USB/Core/../../../Common/Common.h **** 				if (GCC_IS_COMPILE_CONST(Milliseconds))
 269:../../../../tmk_core/protocol/lufa/LUFA-git/LUFA/Drivers/USB/Core/../../../Common/Common.h **** 				{
 270:../../../../tmk_core/protocol/lufa/LUFA-git/LUFA/Drivers/USB/Core/../../../Common/Common.h **** 					_delay_ms(Milliseconds);
 271:../../../../tmk_core/protocol/lufa/LUFA-git/LUFA/Drivers/USB/Core/../../../Common/Common.h **** 				}
 272:../../../../tmk_core/protocol/lufa/LUFA-git/LUFA/Drivers/USB/Core/../../../Common/Common.h **** 				else
 273:../../../../tmk_core/protocol/lufa/LUFA-git/LUFA/Drivers/USB/Core/../../../Common/Common.h **** 				{
 274:../../../../tmk_core/protocol/lufa/LUFA-git/LUFA/Drivers/USB/Core/../../../Common/Common.h **** 					while (Milliseconds--)
 275:../../../../tmk_core/protocol/lufa/LUFA-git/LUFA/Drivers/USB/Core/../../../Common/Common.h **** 					  _delay_ms(1);
 276:../../../../tmk_core/protocol/lufa/LUFA-git/LUFA/Drivers/USB/Core/../../../Common/Common.h **** 				}
 277:../../../../tmk_core/protocol/lufa/LUFA-git/LUFA/Drivers/USB/Core/../../../Common/Common.h **** 				#elif (ARCH == ARCH_UC3)
 278:../../../../tmk_core/protocol/lufa/LUFA-git/LUFA/Drivers/USB/Core/../../../Common/Common.h **** 				while (Milliseconds--)
 279:../../../../tmk_core/protocol/lufa/LUFA-git/LUFA/Drivers/USB/Core/../../../Common/Common.h **** 				{
 280:../../../../tmk_core/protocol/lufa/LUFA-git/LUFA/Drivers/USB/Core/../../../Common/Common.h **** 					__builtin_mtsr(AVR32_COUNT, 0);
 281:../../../../tmk_core/protocol/lufa/LUFA-git/LUFA/Drivers/USB/Core/../../../Common/Common.h **** 					while ((uint32_t)__builtin_mfsr(AVR32_COUNT) < (F_CPU / 1000));
 282:../../../../tmk_core/protocol/lufa/LUFA-git/LUFA/Drivers/USB/Core/../../../Common/Common.h **** 				}
 283:../../../../tmk_core/protocol/lufa/LUFA-git/LUFA/Drivers/USB/Core/../../../Common/Common.h **** 				#elif (ARCH == ARCH_XMEGA)
 284:../../../../tmk_core/protocol/lufa/LUFA-git/LUFA/Drivers/USB/Core/../../../Common/Common.h **** 				if (GCC_IS_COMPILE_CONST(Milliseconds))
 285:../../../../tmk_core/protocol/lufa/LUFA-git/LUFA/Drivers/USB/Core/../../../Common/Common.h **** 				{
 286:../../../../tmk_core/protocol/lufa/LUFA-git/LUFA/Drivers/USB/Core/../../../Common/Common.h **** 					_delay_ms(Milliseconds);
 287:../../../../tmk_core/protocol/lufa/LUFA-git/LUFA/Drivers/USB/Core/../../../Common/Common.h **** 				}
 288:../../../../tmk_core/protocol/lufa/LUFA-git/LUFA/Drivers/USB/Core/../../../Common/Common.h **** 				else
 289:../../../../tmk_core/protocol/lufa/LUFA-git/LUFA/Drivers/USB/Core/../../../Common/Common.h **** 				{
 290:../../../../tmk_core/protocol/lufa/LUFA-git/LUFA/Drivers/USB/Core/../../../Common/Common.h **** 					while (Milliseconds--)
 291:../../../../tmk_core/protocol/lufa/LUFA-git/LUFA/Drivers/USB/Core/../../../Common/Common.h **** 					  _delay_ms(1);
 292:../../../../tmk_core/protocol/lufa/LUFA-git/LUFA/Drivers/USB/Core/../../../Common/Common.h **** 				}
 293:../../../../tmk_core/protocol/lufa/LUFA-git/LUFA/Drivers/USB/Core/../../../Common/Common.h **** 				#endif
 294:../../../../tmk_core/protocol/lufa/LUFA-git/LUFA/Drivers/USB/Core/../../../Common/Common.h **** 			}
 295:../../../../tmk_core/protocol/lufa/LUFA-git/LUFA/Drivers/USB/Core/../../../Common/Common.h **** 
 296:../../../../tmk_core/protocol/lufa/LUFA-git/LUFA/Drivers/USB/Core/../../../Common/Common.h **** 			/** Retrieves a mask which contains the current state of the global interrupts for the device. T
 297:../../../../tmk_core/protocol/lufa/LUFA-git/LUFA/Drivers/USB/Core/../../../Common/Common.h **** 			 *  value can be stored before altering the global interrupt enable state, before restoring the
 298:../../../../tmk_core/protocol/lufa/LUFA-git/LUFA/Drivers/USB/Core/../../../Common/Common.h **** 			 *  flag(s) back to their previous values after a critical section using \ref SetGlobalInterrupt
 299:../../../../tmk_core/protocol/lufa/LUFA-git/LUFA/Drivers/USB/Core/../../../Common/Common.h **** 			 *
 300:../../../../tmk_core/protocol/lufa/LUFA-git/LUFA/Drivers/USB/Core/../../../Common/Common.h **** 			 *  \ingroup Group_GlobalInt
 301:../../../../tmk_core/protocol/lufa/LUFA-git/LUFA/Drivers/USB/Core/../../../Common/Common.h **** 			 *
 302:../../../../tmk_core/protocol/lufa/LUFA-git/LUFA/Drivers/USB/Core/../../../Common/Common.h **** 			 *  \return  Mask containing the current Global Interrupt Enable Mask bit(s).
 303:../../../../tmk_core/protocol/lufa/LUFA-git/LUFA/Drivers/USB/Core/../../../Common/Common.h **** 			 */
 304:../../../../tmk_core/protocol/lufa/LUFA-git/LUFA/Drivers/USB/Core/../../../Common/Common.h **** 			static inline uint_reg_t GetGlobalInterruptMask(void) ATTR_ALWAYS_INLINE ATTR_WARN_UNUSED_RESULT
 305:../../../../tmk_core/protocol/lufa/LUFA-git/LUFA/Drivers/USB/Core/../../../Common/Common.h **** 			static inline uint_reg_t GetGlobalInterruptMask(void)
 306:../../../../tmk_core/protocol/lufa/LUFA-git/LUFA/Drivers/USB/Core/../../../Common/Common.h **** 			{
 307:../../../../tmk_core/protocol/lufa/LUFA-git/LUFA/Drivers/USB/Core/../../../Common/Common.h **** 				GCC_MEMORY_BARRIER();
 427               		.loc 4 307 0
 308:../../../../tmk_core/protocol/lufa/LUFA-git/LUFA/Drivers/USB/Core/../../../Common/Common.h **** 
 309:../../../../tmk_core/protocol/lufa/LUFA-git/LUFA/Drivers/USB/Core/../../../Common/Common.h **** 				#if (ARCH == ARCH_AVR8)
 310:../../../../tmk_core/protocol/lufa/LUFA-git/LUFA/Drivers/USB/Core/../../../Common/Common.h **** 				return SREG;
 428               		.loc 4 310 0
 429 01c0 4FB7      		in r20,__SREG__
 430               	.LBE226:
 431               	.LBE225:
 432               	.LBB227:
 433               	.LBB228:
 311:../../../../tmk_core/protocol/lufa/LUFA-git/LUFA/Drivers/USB/Core/../../../Common/Common.h **** 				#elif (ARCH == ARCH_UC3)
 312:../../../../tmk_core/protocol/lufa/LUFA-git/LUFA/Drivers/USB/Core/../../../Common/Common.h **** 				return __builtin_mfsr(AVR32_SR);
 313:../../../../tmk_core/protocol/lufa/LUFA-git/LUFA/Drivers/USB/Core/../../../Common/Common.h **** 				#elif (ARCH == ARCH_XMEGA)
 314:../../../../tmk_core/protocol/lufa/LUFA-git/LUFA/Drivers/USB/Core/../../../Common/Common.h **** 				return SREG;
 315:../../../../tmk_core/protocol/lufa/LUFA-git/LUFA/Drivers/USB/Core/../../../Common/Common.h **** 				#endif
 316:../../../../tmk_core/protocol/lufa/LUFA-git/LUFA/Drivers/USB/Core/../../../Common/Common.h **** 			}
 317:../../../../tmk_core/protocol/lufa/LUFA-git/LUFA/Drivers/USB/Core/../../../Common/Common.h **** 
 318:../../../../tmk_core/protocol/lufa/LUFA-git/LUFA/Drivers/USB/Core/../../../Common/Common.h **** 			/** Sets the global interrupt enable state of the microcontroller to the mask passed into the fu
 319:../../../../tmk_core/protocol/lufa/LUFA-git/LUFA/Drivers/USB/Core/../../../Common/Common.h **** 			 *  This can be combined with \ref GetGlobalInterruptMask() to save and restore the Global Inter
 320:../../../../tmk_core/protocol/lufa/LUFA-git/LUFA/Drivers/USB/Core/../../../Common/Common.h **** 			 *  Mask bit(s) of the device after a critical section has completed.
 321:../../../../tmk_core/protocol/lufa/LUFA-git/LUFA/Drivers/USB/Core/../../../Common/Common.h **** 			 *
 322:../../../../tmk_core/protocol/lufa/LUFA-git/LUFA/Drivers/USB/Core/../../../Common/Common.h **** 			 *  \ingroup Group_GlobalInt
 323:../../../../tmk_core/protocol/lufa/LUFA-git/LUFA/Drivers/USB/Core/../../../Common/Common.h **** 			 *
 324:../../../../tmk_core/protocol/lufa/LUFA-git/LUFA/Drivers/USB/Core/../../../Common/Common.h **** 			 *  \param[in] GlobalIntState  Global Interrupt Enable Mask value to use
 325:../../../../tmk_core/protocol/lufa/LUFA-git/LUFA/Drivers/USB/Core/../../../Common/Common.h **** 			 */
 326:../../../../tmk_core/protocol/lufa/LUFA-git/LUFA/Drivers/USB/Core/../../../Common/Common.h **** 			static inline void SetGlobalInterruptMask(const uint_reg_t GlobalIntState) ATTR_ALWAYS_INLINE;
 327:../../../../tmk_core/protocol/lufa/LUFA-git/LUFA/Drivers/USB/Core/../../../Common/Common.h **** 			static inline void SetGlobalInterruptMask(const uint_reg_t GlobalIntState)
 328:../../../../tmk_core/protocol/lufa/LUFA-git/LUFA/Drivers/USB/Core/../../../Common/Common.h **** 			{
 329:../../../../tmk_core/protocol/lufa/LUFA-git/LUFA/Drivers/USB/Core/../../../Common/Common.h **** 				GCC_MEMORY_BARRIER();
 330:../../../../tmk_core/protocol/lufa/LUFA-git/LUFA/Drivers/USB/Core/../../../Common/Common.h **** 
 331:../../../../tmk_core/protocol/lufa/LUFA-git/LUFA/Drivers/USB/Core/../../../Common/Common.h **** 				#if (ARCH == ARCH_AVR8)
 332:../../../../tmk_core/protocol/lufa/LUFA-git/LUFA/Drivers/USB/Core/../../../Common/Common.h **** 				SREG = GlobalIntState;
 333:../../../../tmk_core/protocol/lufa/LUFA-git/LUFA/Drivers/USB/Core/../../../Common/Common.h **** 				#elif (ARCH == ARCH_UC3)
 334:../../../../tmk_core/protocol/lufa/LUFA-git/LUFA/Drivers/USB/Core/../../../Common/Common.h **** 				if (GlobalIntState & AVR32_SR_GM)
 335:../../../../tmk_core/protocol/lufa/LUFA-git/LUFA/Drivers/USB/Core/../../../Common/Common.h **** 				  __builtin_ssrf(AVR32_SR_GM_OFFSET);
 336:../../../../tmk_core/protocol/lufa/LUFA-git/LUFA/Drivers/USB/Core/../../../Common/Common.h **** 				else
 337:../../../../tmk_core/protocol/lufa/LUFA-git/LUFA/Drivers/USB/Core/../../../Common/Common.h **** 				  __builtin_csrf(AVR32_SR_GM_OFFSET);
 338:../../../../tmk_core/protocol/lufa/LUFA-git/LUFA/Drivers/USB/Core/../../../Common/Common.h **** 				#elif (ARCH == ARCH_XMEGA)
 339:../../../../tmk_core/protocol/lufa/LUFA-git/LUFA/Drivers/USB/Core/../../../Common/Common.h **** 				SREG = GlobalIntState;
 340:../../../../tmk_core/protocol/lufa/LUFA-git/LUFA/Drivers/USB/Core/../../../Common/Common.h **** 				#endif
 341:../../../../tmk_core/protocol/lufa/LUFA-git/LUFA/Drivers/USB/Core/../../../Common/Common.h **** 
 342:../../../../tmk_core/protocol/lufa/LUFA-git/LUFA/Drivers/USB/Core/../../../Common/Common.h **** 				GCC_MEMORY_BARRIER();
 343:../../../../tmk_core/protocol/lufa/LUFA-git/LUFA/Drivers/USB/Core/../../../Common/Common.h **** 			}
 344:../../../../tmk_core/protocol/lufa/LUFA-git/LUFA/Drivers/USB/Core/../../../Common/Common.h **** 
 345:../../../../tmk_core/protocol/lufa/LUFA-git/LUFA/Drivers/USB/Core/../../../Common/Common.h **** 			/** Enables global interrupt handling for the device, allowing interrupts to be handled.
 346:../../../../tmk_core/protocol/lufa/LUFA-git/LUFA/Drivers/USB/Core/../../../Common/Common.h **** 			 *
 347:../../../../tmk_core/protocol/lufa/LUFA-git/LUFA/Drivers/USB/Core/../../../Common/Common.h **** 			 *  \ingroup Group_GlobalInt
 348:../../../../tmk_core/protocol/lufa/LUFA-git/LUFA/Drivers/USB/Core/../../../Common/Common.h **** 			 */
 349:../../../../tmk_core/protocol/lufa/LUFA-git/LUFA/Drivers/USB/Core/../../../Common/Common.h **** 			static inline void GlobalInterruptEnable(void) ATTR_ALWAYS_INLINE;
 350:../../../../tmk_core/protocol/lufa/LUFA-git/LUFA/Drivers/USB/Core/../../../Common/Common.h **** 			static inline void GlobalInterruptEnable(void)
 351:../../../../tmk_core/protocol/lufa/LUFA-git/LUFA/Drivers/USB/Core/../../../Common/Common.h **** 			{
 352:../../../../tmk_core/protocol/lufa/LUFA-git/LUFA/Drivers/USB/Core/../../../Common/Common.h **** 				GCC_MEMORY_BARRIER();
 353:../../../../tmk_core/protocol/lufa/LUFA-git/LUFA/Drivers/USB/Core/../../../Common/Common.h **** 
 354:../../../../tmk_core/protocol/lufa/LUFA-git/LUFA/Drivers/USB/Core/../../../Common/Common.h **** 				#if (ARCH == ARCH_AVR8)
 355:../../../../tmk_core/protocol/lufa/LUFA-git/LUFA/Drivers/USB/Core/../../../Common/Common.h **** 				sei();
 356:../../../../tmk_core/protocol/lufa/LUFA-git/LUFA/Drivers/USB/Core/../../../Common/Common.h **** 				#elif (ARCH == ARCH_UC3)
 357:../../../../tmk_core/protocol/lufa/LUFA-git/LUFA/Drivers/USB/Core/../../../Common/Common.h **** 				__builtin_csrf(AVR32_SR_GM_OFFSET);
 358:../../../../tmk_core/protocol/lufa/LUFA-git/LUFA/Drivers/USB/Core/../../../Common/Common.h **** 				#elif (ARCH == ARCH_XMEGA)
 359:../../../../tmk_core/protocol/lufa/LUFA-git/LUFA/Drivers/USB/Core/../../../Common/Common.h **** 				sei();
 360:../../../../tmk_core/protocol/lufa/LUFA-git/LUFA/Drivers/USB/Core/../../../Common/Common.h **** 				#endif
 361:../../../../tmk_core/protocol/lufa/LUFA-git/LUFA/Drivers/USB/Core/../../../Common/Common.h **** 
 362:../../../../tmk_core/protocol/lufa/LUFA-git/LUFA/Drivers/USB/Core/../../../Common/Common.h **** 				GCC_MEMORY_BARRIER();
 363:../../../../tmk_core/protocol/lufa/LUFA-git/LUFA/Drivers/USB/Core/../../../Common/Common.h **** 			}
 364:../../../../tmk_core/protocol/lufa/LUFA-git/LUFA/Drivers/USB/Core/../../../Common/Common.h **** 
 365:../../../../tmk_core/protocol/lufa/LUFA-git/LUFA/Drivers/USB/Core/../../../Common/Common.h **** 			/** Disabled global interrupt handling for the device, preventing interrupts from being handled.
 366:../../../../tmk_core/protocol/lufa/LUFA-git/LUFA/Drivers/USB/Core/../../../Common/Common.h **** 			 *
 367:../../../../tmk_core/protocol/lufa/LUFA-git/LUFA/Drivers/USB/Core/../../../Common/Common.h **** 			 *  \ingroup Group_GlobalInt
 368:../../../../tmk_core/protocol/lufa/LUFA-git/LUFA/Drivers/USB/Core/../../../Common/Common.h **** 			 */
 369:../../../../tmk_core/protocol/lufa/LUFA-git/LUFA/Drivers/USB/Core/../../../Common/Common.h **** 			static inline void GlobalInterruptDisable(void) ATTR_ALWAYS_INLINE;
 370:../../../../tmk_core/protocol/lufa/LUFA-git/LUFA/Drivers/USB/Core/../../../Common/Common.h **** 			static inline void GlobalInterruptDisable(void)
 371:../../../../tmk_core/protocol/lufa/LUFA-git/LUFA/Drivers/USB/Core/../../../Common/Common.h **** 			{
 372:../../../../tmk_core/protocol/lufa/LUFA-git/LUFA/Drivers/USB/Core/../../../Common/Common.h **** 				GCC_MEMORY_BARRIER();
 434               		.loc 4 372 0
 373:../../../../tmk_core/protocol/lufa/LUFA-git/LUFA/Drivers/USB/Core/../../../Common/Common.h **** 
 374:../../../../tmk_core/protocol/lufa/LUFA-git/LUFA/Drivers/USB/Core/../../../Common/Common.h **** 				#if (ARCH == ARCH_AVR8)
 375:../../../../tmk_core/protocol/lufa/LUFA-git/LUFA/Drivers/USB/Core/../../../Common/Common.h **** 				cli();
 435               		.loc 4 375 0
 436               	/* #APP */
 437               	 ;  375 "../../../../tmk_core/protocol/lufa/LUFA-git/LUFA/Drivers/USB/Core/../../../Common/Common.h
 438 01c2 F894      		cli
 439               	 ;  0 "" 2
 376:../../../../tmk_core/protocol/lufa/LUFA-git/LUFA/Drivers/USB/Core/../../../Common/Common.h **** 				#elif (ARCH == ARCH_UC3)
 377:../../../../tmk_core/protocol/lufa/LUFA-git/LUFA/Drivers/USB/Core/../../../Common/Common.h **** 				__builtin_ssrf(AVR32_SR_GM_OFFSET);
 378:../../../../tmk_core/protocol/lufa/LUFA-git/LUFA/Drivers/USB/Core/../../../Common/Common.h **** 				#elif (ARCH == ARCH_XMEGA)
 379:../../../../tmk_core/protocol/lufa/LUFA-git/LUFA/Drivers/USB/Core/../../../Common/Common.h **** 				cli();
 380:../../../../tmk_core/protocol/lufa/LUFA-git/LUFA/Drivers/USB/Core/../../../Common/Common.h **** 				#endif
 381:../../../../tmk_core/protocol/lufa/LUFA-git/LUFA/Drivers/USB/Core/../../../Common/Common.h **** 
 382:../../../../tmk_core/protocol/lufa/LUFA-git/LUFA/Drivers/USB/Core/../../../Common/Common.h **** 				GCC_MEMORY_BARRIER();
 440               		.loc 4 382 0
 441               	.LVL31:
 230:../../../../tmk_core/protocol/lufa/LUFA-git/LUFA/Drivers/USB/Core/DeviceStandardReq.c **** 	USB_Device_GetSerialString(SignatureDescriptor.UnicodeString);
 442               		.loc 1 230 0
 443               	/* #NOAPP */
 444 01c4 DE01      		movw r26,r28
 445 01c6 1396      		adiw r26,3
 222:../../../../tmk_core/protocol/lufa/LUFA-git/LUFA/Drivers/USB/Core/AVR8/../AVR8/Device_AVR8.h **** 			}
 223:../../../../tmk_core/protocol/lufa/LUFA-git/LUFA/Drivers/USB/Core/AVR8/../AVR8/Device_AVR8.h **** 
 224:../../../../tmk_core/protocol/lufa/LUFA-git/LUFA/Drivers/USB/Core/AVR8/../AVR8/Device_AVR8.h **** 			static inline bool USB_Device_IsAddressSet(void) ATTR_ALWAYS_INLINE ATTR_WARN_UNUSED_RESULT;
 225:../../../../tmk_core/protocol/lufa/LUFA-git/LUFA/Drivers/USB/Core/AVR8/../AVR8/Device_AVR8.h **** 			static inline bool USB_Device_IsAddressSet(void)
 226:../../../../tmk_core/protocol/lufa/LUFA-git/LUFA/Drivers/USB/Core/AVR8/../AVR8/Device_AVR8.h **** 			{
 227:../../../../tmk_core/protocol/lufa/LUFA-git/LUFA/Drivers/USB/Core/AVR8/../AVR8/Device_AVR8.h **** 				return (UDADDR & (1 << ADDEN));
 228:../../../../tmk_core/protocol/lufa/LUFA-git/LUFA/Drivers/USB/Core/AVR8/../AVR8/Device_AVR8.h **** 			}
 229:../../../../tmk_core/protocol/lufa/LUFA-git/LUFA/Drivers/USB/Core/AVR8/../AVR8/Device_AVR8.h **** 
 230:../../../../tmk_core/protocol/lufa/LUFA-git/LUFA/Drivers/USB/Core/AVR8/../AVR8/Device_AVR8.h **** 			#if (USE_INTERNAL_SERIAL != NO_DESCRIPTOR)
 231:../../../../tmk_core/protocol/lufa/LUFA-git/LUFA/Drivers/USB/Core/AVR8/../AVR8/Device_AVR8.h **** 			static inline void USB_Device_GetSerialString(uint16_t* const UnicodeString) ATTR_NON_NULL_PTR_A
 232:../../../../tmk_core/protocol/lufa/LUFA-git/LUFA/Drivers/USB/Core/AVR8/../AVR8/Device_AVR8.h **** 			static inline void USB_Device_GetSerialString(uint16_t* const UnicodeString)
 233:../../../../tmk_core/protocol/lufa/LUFA-git/LUFA/Drivers/USB/Core/AVR8/../AVR8/Device_AVR8.h **** 			{
 234:../../../../tmk_core/protocol/lufa/LUFA-git/LUFA/Drivers/USB/Core/AVR8/../AVR8/Device_AVR8.h **** 				uint_reg_t CurrentGlobalInt = GetGlobalInterruptMask();
 235:../../../../tmk_core/protocol/lufa/LUFA-git/LUFA/Drivers/USB/Core/AVR8/../AVR8/Device_AVR8.h **** 				GlobalInterruptDisable();
 236:../../../../tmk_core/protocol/lufa/LUFA-git/LUFA/Drivers/USB/Core/AVR8/../AVR8/Device_AVR8.h **** 
 237:../../../../tmk_core/protocol/lufa/LUFA-git/LUFA/Drivers/USB/Core/AVR8/../AVR8/Device_AVR8.h **** 				uint8_t SigReadAddress = INTERNAL_SERIAL_START_ADDRESS;
 238:../../../../tmk_core/protocol/lufa/LUFA-git/LUFA/Drivers/USB/Core/AVR8/../AVR8/Device_AVR8.h **** 
 239:../../../../tmk_core/protocol/lufa/LUFA-git/LUFA/Drivers/USB/Core/AVR8/../AVR8/Device_AVR8.h **** 				for (uint8_t SerialCharNum = 0; SerialCharNum < (INTERNAL_SERIAL_LENGTH_BITS / 4); SerialCharNu
 446               		.loc 3 239 0
 447 01c8 20E0      		ldi r18,0
 237:../../../../tmk_core/protocol/lufa/LUFA-git/LUFA/Drivers/USB/Core/AVR8/../AVR8/Device_AVR8.h **** 				uint8_t SigReadAddress = INTERNAL_SERIAL_START_ADDRESS;
 448               		.loc 3 237 0
 449 01ca 3EE0      		ldi r19,lo8(14)
 450               	.LBE228:
 451               	.LBE227:
 452               	.LBB229:
 453               	.LBB230:
 454               	.LBB231:
 240:../../../../tmk_core/protocol/lufa/LUFA-git/LUFA/Drivers/USB/Core/AVR8/../AVR8/Device_AVR8.h **** 				{
 241:../../../../tmk_core/protocol/lufa/LUFA-git/LUFA/Drivers/USB/Core/AVR8/../AVR8/Device_AVR8.h **** 					uint8_t SerialByte = boot_signature_byte_get(SigReadAddress);
 455               		.loc 3 241 0
 456 01cc 51E2      		ldi r21,lo8(33)
 457               	.LVL32:
 458               	.L28:
 459 01ce E32F      		mov r30,r19
 460 01d0 F0E0      		ldi r31,0
 461               	/* #APP */
 462               	 ;  241 "../../../../tmk_core/protocol/lufa/LUFA-git/LUFA/Drivers/USB/Core/AVR8/../AVR8/Device_AVR8
 463 01d2 5093 5700 		sts 87, r21
 464 01d6 E491      		lpm r30, Z
 465               		
 466               	 ;  0 "" 2
 467               	.LVL33:
 468               	/* #NOAPP */
 469               	.LBE231:
 242:../../../../tmk_core/protocol/lufa/LUFA-git/LUFA/Drivers/USB/Core/AVR8/../AVR8/Device_AVR8.h **** 
 243:../../../../tmk_core/protocol/lufa/LUFA-git/LUFA/Drivers/USB/Core/AVR8/../AVR8/Device_AVR8.h **** 					if (SerialCharNum & 0x01)
 470               		.loc 3 243 0
 471 01d8 20FF      		sbrs r18,0
 472 01da 00C0      		rjmp .L25
 244:../../../../tmk_core/protocol/lufa/LUFA-git/LUFA/Drivers/USB/Core/AVR8/../AVR8/Device_AVR8.h **** 					{
 245:../../../../tmk_core/protocol/lufa/LUFA-git/LUFA/Drivers/USB/Core/AVR8/../AVR8/Device_AVR8.h **** 						SerialByte >>= 4;
 473               		.loc 3 245 0
 474 01dc E295      		swap r30
 475               	.LVL34:
 476 01de EF70      		andi r30,lo8(15)
 477               	.LVL35:
 246:../../../../tmk_core/protocol/lufa/LUFA-git/LUFA/Drivers/USB/Core/AVR8/../AVR8/Device_AVR8.h **** 						SigReadAddress++;
 478               		.loc 3 246 0
 479 01e0 3F5F      		subi r19,lo8(-(1))
 480               	.LVL36:
 481               	.L25:
 247:../../../../tmk_core/protocol/lufa/LUFA-git/LUFA/Drivers/USB/Core/AVR8/../AVR8/Device_AVR8.h **** 					}
 248:../../../../tmk_core/protocol/lufa/LUFA-git/LUFA/Drivers/USB/Core/AVR8/../AVR8/Device_AVR8.h **** 
 249:../../../../tmk_core/protocol/lufa/LUFA-git/LUFA/Drivers/USB/Core/AVR8/../AVR8/Device_AVR8.h **** 					SerialByte &= 0x0F;
 482               		.loc 3 249 0
 483 01e2 EF70      		andi r30,lo8(15)
 484               	.LVL37:
 485 01e4 8E2F      		mov r24,r30
 486 01e6 90E0      		ldi r25,0
 250:../../../../tmk_core/protocol/lufa/LUFA-git/LUFA/Drivers/USB/Core/AVR8/../AVR8/Device_AVR8.h **** 
 251:../../../../tmk_core/protocol/lufa/LUFA-git/LUFA/Drivers/USB/Core/AVR8/../AVR8/Device_AVR8.h **** 					UnicodeString[SerialCharNum] = cpu_to_le16((SerialByte >= 10) ?
 487               		.loc 3 251 0
 488 01e8 EA30      		cpi r30,lo8(10)
 489 01ea 00F0      		brlo .L26
 490 01ec C796      		adiw r24,55
 491 01ee 00C0      		rjmp .L27
 492               	.LVL38:
 493               	.L26:
 494 01f0 C096      		adiw r24,48
 495               	.LVL39:
 496               	.L27:
 497 01f2 8D93      		st X+,r24
 498 01f4 9D93      		st X+,r25
 499               	.LBE230:
 239:../../../../tmk_core/protocol/lufa/LUFA-git/LUFA/Drivers/USB/Core/AVR8/../AVR8/Device_AVR8.h **** 				for (uint8_t SerialCharNum = 0; SerialCharNum < (INTERNAL_SERIAL_LENGTH_BITS / 4); SerialCharNu
 500               		.loc 3 239 0
 501 01f6 2F5F      		subi r18,lo8(-(1))
 502               	.LVL40:
 503 01f8 2431      		cpi r18,lo8(20)
 504 01fa 01F4      		brne .L28
 505               	.LVL41:
 506               	.LBE229:
 507               	.LBB232:
 508               	.LBB233:
 329:../../../../tmk_core/protocol/lufa/LUFA-git/LUFA/Drivers/USB/Core/../../../Common/Common.h **** 				GCC_MEMORY_BARRIER();
 509               		.loc 4 329 0
 332:../../../../tmk_core/protocol/lufa/LUFA-git/LUFA/Drivers/USB/Core/../../../Common/Common.h **** 				SREG = GlobalIntState;
 510               		.loc 4 332 0
 511 01fc 4FBF      		out __SREG__,r20
 342:../../../../tmk_core/protocol/lufa/LUFA-git/LUFA/Drivers/USB/Core/../../../Common/Common.h **** 				GCC_MEMORY_BARRIER();
 512               		.loc 4 342 0
 513               	.LBE233:
 514               	.LBE232:
 515               	.LBE224:
 516               	.LBE223:
 517               	.LBB234:
 518               	.LBB235:
 444:../../../../tmk_core/protocol/lufa/LUFA-git/LUFA/Drivers/USB/Core/AVR8/../AVR8/Endpoint_AVR8.h **** 				UEINTX &= ~(1 << RXSTPI);
 519               		.loc 2 444 0
 520 01fe 8091 E800 		lds r24,232
 521 0202 877F      		andi r24,lo8(-9)
 522 0204 8093 E800 		sts 232,r24
 523               	.LBE235:
 524               	.LBE234:
 234:../../../../tmk_core/protocol/lufa/LUFA-git/LUFA/Drivers/USB/Core/DeviceStandardReq.c **** 	Endpoint_Write_Control_Stream_LE(&SignatureDescriptor, sizeof(SignatureDescriptor));
 525               		.loc 1 234 0
 526 0208 6AE2      		ldi r22,lo8(42)
 527 020a 70E0      		ldi r23,0
 528 020c CE01      		movw r24,r28
 529 020e 0196      		adiw r24,1
 530 0210 0E94 0000 		call Endpoint_Write_Control_Stream_LE
 531               	.LVL42:
 532 0214 00C0      		rjmp .L77
 533               	.LVL43:
 534               	.L24:
 535               	.LBE222:
 536               	.LBE221:
 257:../../../../tmk_core/protocol/lufa/LUFA-git/LUFA/Drivers/USB/Core/DeviceStandardReq.c **** 	if ((DescriptorSize = CALLBACK_USB_GetDescriptor(USB_ControlRequest.wValue, USB_ControlRequest.wIn
 537               		.loc 1 257 0
 538 0216 AE01      		movw r20,r28
 539 0218 455D      		subi r20,-43
 540 021a 5F4F      		sbci r21,-1
 541 021c 6091 0000 		lds r22,USB_ControlRequest+4
 542 0220 0E94 0000 		call CALLBACK_USB_GetDescriptor
 543               	.LVL44:
 544 0224 0097      		sbiw r24,0
 545 0226 01F0      		breq .L3
 546               	.LBB236:
 547               	.LBB237:
 444:../../../../tmk_core/protocol/lufa/LUFA-git/LUFA/Drivers/USB/Core/AVR8/../AVR8/Endpoint_AVR8.h **** 				UEINTX &= ~(1 << RXSTPI);
 548               		.loc 2 444 0
 549 0228 2091 E800 		lds r18,232
 550 022c 277F      		andi r18,lo8(-9)
 551 022e 2093 E800 		sts 232,r18
 552               	.LBE237:
 553               	.LBE236:
 275:../../../../tmk_core/protocol/lufa/LUFA-git/LUFA/Drivers/USB/Core/DeviceStandardReq.c **** 	Endpoint_Write_Control_PStream_LE(DescriptorPointer, DescriptorSize);
 554               		.loc 1 275 0
 555 0232 BC01      		movw r22,r24
 556               	.LVL45:
 557 0234 8BA5      		ldd r24,Y+43
 558 0236 9CA5      		ldd r25,Y+44
 559               	.LVL46:
 560 0238 0E94 0000 		call Endpoint_Write_Control_PStream_LE
 561               	.LVL47:
 562               	.L77:
 563               	.LBB238:
 564               	.LBB239:
 471:../../../../tmk_core/protocol/lufa/LUFA-git/LUFA/Drivers/USB/Core/AVR8/../AVR8/Endpoint_AVR8.h **** 					UEINTX &= ~((1 << RXOUTI) | (1 << FIFOCON));
 565               		.loc 2 471 0
 566 023c 8091 E800 		lds r24,232
 567 0240 8B77      		andi r24,lo8(123)
 568 0242 8093 E800 		sts 232,r24
 569 0246 00C0      		rjmp .L3
 570               	.LVL48:
 571               	.L8:
 572               	.LBE239:
 573               	.LBE238:
 574               	.LBE220:
 575               	.LBE219:
 103:../../../../tmk_core/protocol/lufa/LUFA-git/LUFA/Drivers/USB/Core/DeviceStandardReq.c **** 				if (bmRequestType == (REQDIR_DEVICETOHOST | REQTYPE_STANDARD | REQREC_DEVICE))
 576               		.loc 1 103 0
 577 0248 8038      		cpi r24,lo8(-128)
 578 024a 01F4      		brne .L3
 579               	.LBB240:
 580               	.LBB241:
 581               	.LBB242:
 582               	.LBB243:
 444:../../../../tmk_core/protocol/lufa/LUFA-git/LUFA/Drivers/USB/Core/AVR8/../AVR8/Endpoint_AVR8.h **** 				UEINTX &= ~(1 << RXSTPI);
