   1               		.file	"action_layer.c"
   2               	__SP_H__ = 0x3e
   3               	__SP_L__ = 0x3d
   4               	__SREG__ = 0x3f
   5               	__RAMPZ__ = 0x3b
   6               	__tmp_reg__ = 0
   7               	__zero_reg__ = 1
   8               		.text
   9               	.Ltext0:
  10               		.cfi_sections	.debug_frame
  11               		.section	.text.default_layer_state_set,"ax",@progbits
  13               	default_layer_state_set:
  14               	.LFB4:
  15               		.file 1 "../../../../tmk_core/common/action_layer.c"
   1:../../../../tmk_core/common/action_layer.c **** #include <stdint.h>
   2:../../../../tmk_core/common/action_layer.c **** #include "keyboard.h"
   3:../../../../tmk_core/common/action_layer.c **** #include "action.h"
   4:../../../../tmk_core/common/action_layer.c **** #include "util.h"
   5:../../../../tmk_core/common/action_layer.c **** #include "action_layer.h"
   6:../../../../tmk_core/common/action_layer.c **** 
   7:../../../../tmk_core/common/action_layer.c **** #ifdef DEBUG_ACTION
   8:../../../../tmk_core/common/action_layer.c **** #include "debug.h"
   9:../../../../tmk_core/common/action_layer.c **** #else
  10:../../../../tmk_core/common/action_layer.c **** #include "nodebug.h"
  11:../../../../tmk_core/common/action_layer.c **** #endif
  12:../../../../tmk_core/common/action_layer.c **** 
  13:../../../../tmk_core/common/action_layer.c **** 
  14:../../../../tmk_core/common/action_layer.c **** /* 
  15:../../../../tmk_core/common/action_layer.c ****  * Default Layer State
  16:../../../../tmk_core/common/action_layer.c ****  */
  17:../../../../tmk_core/common/action_layer.c **** uint32_t default_layer_state = 0;
  18:../../../../tmk_core/common/action_layer.c **** 
  19:../../../../tmk_core/common/action_layer.c **** static void default_layer_state_set(uint32_t state)
  20:../../../../tmk_core/common/action_layer.c **** {
  16               		.loc 1 20 0
  17               		.cfi_startproc
  18               	.LVL0:
  19               	/* prologue: function */
  20               	/* frame size = 0 */
  21               	/* stack size = 0 */
  22               	.L__stack_usage = 0
  21:../../../../tmk_core/common/action_layer.c ****     debug("default_layer_state: ");
  22:../../../../tmk_core/common/action_layer.c ****     default_layer_debug(); debug(" to ");
  23:../../../../tmk_core/common/action_layer.c ****     default_layer_state = state;
  23               		.loc 1 23 0
  24 0000 6093 0000 		sts default_layer_state,r22
  25 0004 7093 0000 		sts default_layer_state+1,r23
  26 0008 8093 0000 		sts default_layer_state+2,r24
  27 000c 9093 0000 		sts default_layer_state+3,r25
  24:../../../../tmk_core/common/action_layer.c ****     default_layer_debug(); debug("\n");
  25:../../../../tmk_core/common/action_layer.c ****     clear_keyboard_but_mods(); // To avoid stuck keys
  28               		.loc 1 25 0
  29 0010 0C94 0000 		jmp clear_keyboard_but_mods
  30               	.LVL1:
  31               		.cfi_endproc
  32               	.LFE4:
  34               		.section	.text.layer_state_set,"ax",@progbits
  36               	layer_state_set:
  37               	.LFB10:
  26:../../../../tmk_core/common/action_layer.c **** }
  27:../../../../tmk_core/common/action_layer.c **** 
  28:../../../../tmk_core/common/action_layer.c **** void default_layer_debug(void)
  29:../../../../tmk_core/common/action_layer.c **** {
  30:../../../../tmk_core/common/action_layer.c ****     dprintf("%08lX(%u)", default_layer_state, biton32(default_layer_state));
  31:../../../../tmk_core/common/action_layer.c **** }
  32:../../../../tmk_core/common/action_layer.c **** 
  33:../../../../tmk_core/common/action_layer.c **** void default_layer_set(uint32_t state)
  34:../../../../tmk_core/common/action_layer.c **** {
  35:../../../../tmk_core/common/action_layer.c ****     default_layer_state_set(state);
  36:../../../../tmk_core/common/action_layer.c **** }
  37:../../../../tmk_core/common/action_layer.c **** 
  38:../../../../tmk_core/common/action_layer.c **** #ifndef NO_ACTION_LAYER
  39:../../../../tmk_core/common/action_layer.c **** void default_layer_or(uint32_t state)
  40:../../../../tmk_core/common/action_layer.c **** {
  41:../../../../tmk_core/common/action_layer.c ****     default_layer_state_set(default_layer_state | state);
  42:../../../../tmk_core/common/action_layer.c **** }
  43:../../../../tmk_core/common/action_layer.c **** void default_layer_and(uint32_t state)
  44:../../../../tmk_core/common/action_layer.c **** {
  45:../../../../tmk_core/common/action_layer.c ****     default_layer_state_set(default_layer_state & state);
  46:../../../../tmk_core/common/action_layer.c **** }
  47:../../../../tmk_core/common/action_layer.c **** void default_layer_xor(uint32_t state)
  48:../../../../tmk_core/common/action_layer.c **** {
  49:../../../../tmk_core/common/action_layer.c ****     default_layer_state_set(default_layer_state ^ state);
  50:../../../../tmk_core/common/action_layer.c **** }
  51:../../../../tmk_core/common/action_layer.c **** #endif
  52:../../../../tmk_core/common/action_layer.c **** 
  53:../../../../tmk_core/common/action_layer.c **** 
  54:../../../../tmk_core/common/action_layer.c **** #ifndef NO_ACTION_LAYER
  55:../../../../tmk_core/common/action_layer.c **** /* 
  56:../../../../tmk_core/common/action_layer.c ****  * Keymap Layer State
  57:../../../../tmk_core/common/action_layer.c ****  */
  58:../../../../tmk_core/common/action_layer.c **** uint32_t layer_state = 0;
  59:../../../../tmk_core/common/action_layer.c **** 
  60:../../../../tmk_core/common/action_layer.c **** static void layer_state_set(uint32_t state)
  61:../../../../tmk_core/common/action_layer.c **** {
  38               		.loc 1 61 0
  39               		.cfi_startproc
  40               	.LVL2:
  41               	/* prologue: function */
  42               	/* frame size = 0 */
  43               	/* stack size = 0 */
  44               	.L__stack_usage = 0
  62:../../../../tmk_core/common/action_layer.c ****     dprint("layer_state: ");
  63:../../../../tmk_core/common/action_layer.c ****     layer_debug(); dprint(" to ");
  64:../../../../tmk_core/common/action_layer.c ****     layer_state = state;
  45               		.loc 1 64 0
  46 0000 6093 0000 		sts layer_state,r22
  47 0004 7093 0000 		sts layer_state+1,r23
  48 0008 8093 0000 		sts layer_state+2,r24
  49 000c 9093 0000 		sts layer_state+3,r25
  65:../../../../tmk_core/common/action_layer.c ****     layer_debug(); dprintln();
  66:../../../../tmk_core/common/action_layer.c ****     clear_keyboard_but_mods(); // To avoid stuck keys
  50               		.loc 1 66 0
  51 0010 0C94 0000 		jmp clear_keyboard_but_mods
  52               	.LVL3:
  53               		.cfi_endproc
  54               	.LFE10:
  56               		.section	.text.default_layer_debug,"ax",@progbits
  57               	.global	default_layer_debug
  59               	default_layer_debug:
  60               	.LFB5:
  29:../../../../tmk_core/common/action_layer.c **** {
  61               		.loc 1 29 0
  62               		.cfi_startproc
  63               	/* prologue: function */
  64               	/* frame size = 0 */
  65               	/* stack size = 0 */
  66               	.L__stack_usage = 0
  67 0000 0895      		ret
  68               		.cfi_endproc
  69               	.LFE5:
  71               		.section	.text.default_layer_set,"ax",@progbits
  72               	.global	default_layer_set
  74               	default_layer_set:
  75               	.LFB6:
  34:../../../../tmk_core/common/action_layer.c **** {
  76               		.loc 1 34 0
  77               		.cfi_startproc
  78               	.LVL4:
  79               	/* prologue: function */
  80               	/* frame size = 0 */
  81               	/* stack size = 0 */
  82               	.L__stack_usage = 0
  35:../../../../tmk_core/common/action_layer.c ****     default_layer_state_set(state);
  83               		.loc 1 35 0
  84 0000 0C94 0000 		jmp default_layer_state_set
  85               	.LVL5:
  86               		.cfi_endproc
  87               	.LFE6:
  89               		.section	.text.default_layer_or,"ax",@progbits
  90               	.global	default_layer_or
  92               	default_layer_or:
  93               	.LFB7:
  40:../../../../tmk_core/common/action_layer.c **** {
  94               		.loc 1 40 0
  95               		.cfi_startproc
  96               	.LVL6:
  97 0000 0F93      		push r16
  98               	.LCFI0:
  99               		.cfi_def_cfa_offset 3
 100               		.cfi_offset 16, -2
 101 0002 1F93      		push r17
 102               	.LCFI1:
 103               		.cfi_def_cfa_offset 4
 104               		.cfi_offset 17, -3
 105               	/* prologue: function */
 106               	/* frame size = 0 */
 107               	/* stack size = 2 */
 108               	.L__stack_usage = 2
  41:../../../../tmk_core/common/action_layer.c ****     default_layer_state_set(default_layer_state | state);
 109               		.loc 1 41 0
 110 0004 0091 0000 		lds r16,default_layer_state
 111 0008 1091 0000 		lds r17,default_layer_state+1
 112 000c 2091 0000 		lds r18,default_layer_state+2
 113 0010 3091 0000 		lds r19,default_layer_state+3
 114 0014 602B      		or r22,r16
 115 0016 712B      		or r23,r17
 116 0018 822B      		or r24,r18
 117 001a 932B      		or r25,r19
 118               	.LVL7:
 119               	/* epilogue start */
  42:../../../../tmk_core/common/action_layer.c **** }
 120               		.loc 1 42 0
 121 001c 1F91      		pop r17
 122 001e 0F91      		pop r16
  41:../../../../tmk_core/common/action_layer.c ****     default_layer_state_set(default_layer_state | state);
 123               		.loc 1 41 0
 124 0020 0C94 0000 		jmp default_layer_state_set
 125               	.LVL8:
 126               		.cfi_endproc
 127               	.LFE7:
 129               		.section	.text.default_layer_and,"ax",@progbits
 130               	.global	default_layer_and
 132               	default_layer_and:
 133               	.LFB8:
  44:../../../../tmk_core/common/action_layer.c **** {
 134               		.loc 1 44 0
 135               		.cfi_startproc
 136               	.LVL9:
 137 0000 0F93      		push r16
 138               	.LCFI2:
 139               		.cfi_def_cfa_offset 3
 140               		.cfi_offset 16, -2
 141 0002 1F93      		push r17
 142               	.LCFI3:
 143               		.cfi_def_cfa_offset 4
 144               		.cfi_offset 17, -3
 145               	/* prologue: function */
 146               	/* frame size = 0 */
 147               	/* stack size = 2 */
 148               	.L__stack_usage = 2
  45:../../../../tmk_core/common/action_layer.c ****     default_layer_state_set(default_layer_state & state);
 149               		.loc 1 45 0
 150 0004 0091 0000 		lds r16,default_layer_state
 151 0008 1091 0000 		lds r17,default_layer_state+1
 152 000c 2091 0000 		lds r18,default_layer_state+2
 153 0010 3091 0000 		lds r19,default_layer_state+3
 154 0014 6023      		and r22,r16
 155 0016 7123      		and r23,r17
 156 0018 8223      		and r24,r18
 157 001a 9323      		and r25,r19
 158               	.LVL10:
 159               	/* epilogue start */
  46:../../../../tmk_core/common/action_layer.c **** }
 160               		.loc 1 46 0
 161 001c 1F91      		pop r17
 162 001e 0F91      		pop r16
  45:../../../../tmk_core/common/action_layer.c ****     default_layer_state_set(default_layer_state & state);
 163               		.loc 1 45 0
 164 0020 0C94 0000 		jmp default_layer_state_set
 165               	.LVL11:
 166               		.cfi_endproc
 167               	.LFE8:
 169               		.section	.text.default_layer_xor,"ax",@progbits
 170               	.global	default_layer_xor
 172               	default_layer_xor:
 173               	.LFB9:
  48:../../../../tmk_core/common/action_layer.c **** {
 174               		.loc 1 48 0
 175               		.cfi_startproc
 176               	.LVL12:
 177 0000 0F93      		push r16
 178               	.LCFI4:
 179               		.cfi_def_cfa_offset 3
 180               		.cfi_offset 16, -2
 181 0002 1F93      		push r17
 182               	.LCFI5:
 183               		.cfi_def_cfa_offset 4
 184               		.cfi_offset 17, -3
 185               	/* prologue: function */
 186               	/* frame size = 0 */
 187               	/* stack size = 2 */
 188               	.L__stack_usage = 2
  49:../../../../tmk_core/common/action_layer.c ****     default_layer_state_set(default_layer_state ^ state);
 189               		.loc 1 49 0
 190 0004 0091 0000 		lds r16,default_layer_state
 191 0008 1091 0000 		lds r17,default_layer_state+1
 192 000c 2091 0000 		lds r18,default_layer_state+2
 193 0010 3091 0000 		lds r19,default_layer_state+3
 194 0014 6027      		eor r22,r16
 195 0016 7127      		eor r23,r17
 196 0018 8227      		eor r24,r18
 197 001a 9327      		eor r25,r19
 198               	.LVL13:
 199               	/* epilogue start */
  50:../../../../tmk_core/common/action_layer.c **** }
 200               		.loc 1 50 0
 201 001c 1F91      		pop r17
 202 001e 0F91      		pop r16
  49:../../../../tmk_core/common/action_layer.c ****     default_layer_state_set(default_layer_state ^ state);
 203               		.loc 1 49 0
 204 0020 0C94 0000 		jmp default_layer_state_set
 205               	.LVL14:
 206               		.cfi_endproc
 207               	.LFE9:
 209               		.section	.text.layer_clear,"ax",@progbits
 210               	.global	layer_clear
 212               	layer_clear:
 213               	.LFB11:
  67:../../../../tmk_core/common/action_layer.c **** }
  68:../../../../tmk_core/common/action_layer.c **** 
  69:../../../../tmk_core/common/action_layer.c **** void layer_clear(void)
  70:../../../../tmk_core/common/action_layer.c **** {
 214               		.loc 1 70 0
 215               		.cfi_startproc
 216               	/* prologue: function */
 217               	/* frame size = 0 */
 218               	/* stack size = 0 */
 219               	.L__stack_usage = 0
  71:../../../../tmk_core/common/action_layer.c ****     layer_state_set(0);
 220               		.loc 1 71 0
 221 0000 60E0      		ldi r22,0
 222 0002 70E0      		ldi r23,0
 223 0004 CB01      		movw r24,r22
 224 0006 0C94 0000 		jmp layer_state_set
 225               	.LVL15:
 226               		.cfi_endproc
 227               	.LFE11:
 229               		.section	.text.layer_move,"ax",@progbits
 230               	.global	layer_move
 232               	layer_move:
 233               	.LFB12:
  72:../../../../tmk_core/common/action_layer.c **** }
  73:../../../../tmk_core/common/action_layer.c **** 
  74:../../../../tmk_core/common/action_layer.c **** void layer_move(uint8_t layer)
  75:../../../../tmk_core/common/action_layer.c **** {
 234               		.loc 1 75 0
 235               		.cfi_startproc
 236               	.LVL16:
 237               	/* prologue: function */
 238               	/* frame size = 0 */
 239               	/* stack size = 0 */
 240               	.L__stack_usage = 0
  76:../../../../tmk_core/common/action_layer.c ****     layer_state_set(1UL<<layer);
 241               		.loc 1 76 0
 242 0000 41E0      		ldi r20,lo8(1)
 243 0002 50E0      		ldi r21,0
 244 0004 60E0      		ldi r22,0
 245 0006 70E0      		ldi r23,0
 246 0008 00C0      		rjmp 2f
 247               		1:
 248 000a 440F      		lsl r20
 249 000c 551F      		rol r21
 250 000e 661F      		rol r22
 251 0010 771F      		rol r23
 252               		2:
 253 0012 8A95      		dec r24
 254 0014 02F4      		brpl 1b
 255 0016 CB01      		movw r24,r22
 256 0018 BA01      		movw r22,r20
 257 001a 0C94 0000 		jmp layer_state_set
 258               	.LVL17:
 259               		.cfi_endproc
 260               	.LFE12:
 262               		.section	.text.layer_on,"ax",@progbits
 263               	.global	layer_on
 265               	layer_on:
 266               	.LFB13:
  77:../../../../tmk_core/common/action_layer.c **** }
  78:../../../../tmk_core/common/action_layer.c **** 
  79:../../../../tmk_core/common/action_layer.c **** void layer_on(uint8_t layer)
  80:../../../../tmk_core/common/action_layer.c **** {
 267               		.loc 1 80 0
 268               		.cfi_startproc
 269               	.LVL18:
 270               	/* prologue: function */
 271               	/* frame size = 0 */
 272               	/* stack size = 0 */
 273               	.L__stack_usage = 0
  81:../../../../tmk_core/common/action_layer.c ****     layer_state_set(layer_state | (1UL<<layer));
 274               		.loc 1 81 0
 275 0000 41E0      		ldi r20,lo8(1)
 276 0002 50E0      		ldi r21,0
 277 0004 60E0      		ldi r22,0
 278 0006 70E0      		ldi r23,0
 279 0008 00C0      		rjmp 2f
 280               		1:
 281 000a 440F      		lsl r20
 282 000c 551F      		rol r21
 283 000e 661F      		rol r22
 284 0010 771F      		rol r23
 285               		2:
 286 0012 8A95      		dec r24
 287 0014 02F4      		brpl 1b
 288 0016 8091 0000 		lds r24,layer_state
 289 001a 9091 0000 		lds r25,layer_state+1
 290 001e A091 0000 		lds r26,layer_state+2
 291 0022 B091 0000 		lds r27,layer_state+3
 292               	.LVL19:
 293 0026 482B      		or r20,r24
 294 0028 592B      		or r21,r25
 295 002a 6A2B      		or r22,r26
 296 002c 7B2B      		or r23,r27
 297 002e CB01      		movw r24,r22
 298 0030 BA01      		movw r22,r20
 299 0032 0C94 0000 		jmp layer_state_set
 300               	.LVL20:
 301               		.cfi_endproc
 302               	.LFE13:
 304               		.section	.text.layer_off,"ax",@progbits
 305               	.global	layer_off
 307               	layer_off:
 308               	.LFB14:
  82:../../../../tmk_core/common/action_layer.c **** }
  83:../../../../tmk_core/common/action_layer.c **** 
  84:../../../../tmk_core/common/action_layer.c **** void layer_off(uint8_t layer)
  85:../../../../tmk_core/common/action_layer.c **** {
 309               		.loc 1 85 0
 310               		.cfi_startproc
 311               	.LVL21:
 312               	/* prologue: function */
 313               	/* frame size = 0 */
 314               	/* stack size = 0 */
 315               	.L__stack_usage = 0
  86:../../../../tmk_core/common/action_layer.c ****     layer_state_set(layer_state & ~(1UL<<layer));
 316               		.loc 1 86 0
 317 0000 41E0      		ldi r20,lo8(1)
 318 0002 50E0      		ldi r21,0
 319 0004 60E0      		ldi r22,0
 320 0006 70E0      		ldi r23,0
 321 0008 00C0      		rjmp 2f
 322               		1:
 323 000a 440F      		lsl r20
 324 000c 551F      		rol r21
 325 000e 661F      		rol r22
 326 0010 771F      		rol r23
 327               		2:
 328 0012 8A95      		dec r24
 329 0014 02F4      		brpl 1b
 330 0016 4095      		com r20
 331 0018 5095      		com r21
 332 001a 6095      		com r22
 333 001c 7095      		com r23
 334 001e 8091 0000 		lds r24,layer_state
 335 0022 9091 0000 		lds r25,layer_state+1
 336 0026 A091 0000 		lds r26,layer_state+2
 337 002a B091 0000 		lds r27,layer_state+3
 338               	.LVL22:
 339 002e 4823      		and r20,r24
 340 0030 5923      		and r21,r25
 341 0032 6A23      		and r22,r26
 342 0034 7B23      		and r23,r27
 343 0036 CB01      		movw r24,r22
 344 0038 BA01      		movw r22,r20
 345 003a 0C94 0000 		jmp layer_state_set
 346               	.LVL23:
 347               		.cfi_endproc
 348               	.LFE14:
 350               		.section	.text.layer_invert,"ax",@progbits
 351               	.global	layer_invert
 353               	layer_invert:
 354               	.LFB15:
  87:../../../../tmk_core/common/action_layer.c **** }
  88:../../../../tmk_core/common/action_layer.c **** 
  89:../../../../tmk_core/common/action_layer.c **** void layer_invert(uint8_t layer)
  90:../../../../tmk_core/common/action_layer.c **** {
 355               		.loc 1 90 0
 356               		.cfi_startproc
 357               	.LVL24:
 358               	/* prologue: function */
 359               	/* frame size = 0 */
 360               	/* stack size = 0 */
 361               	.L__stack_usage = 0
  91:../../../../tmk_core/common/action_layer.c ****     layer_state_set(layer_state ^ (1UL<<layer));
 362               		.loc 1 91 0
 363 0000 41E0      		ldi r20,lo8(1)
 364 0002 50E0      		ldi r21,0
 365 0004 60E0      		ldi r22,0
 366 0006 70E0      		ldi r23,0
 367 0008 00C0      		rjmp 2f
 368               		1:
 369 000a 440F      		lsl r20
 370 000c 551F      		rol r21
 371 000e 661F      		rol r22
 372 0010 771F      		rol r23
 373               		2:
 374 0012 8A95      		dec r24
 375 0014 02F4      		brpl 1b
 376 0016 8091 0000 		lds r24,layer_state
 377 001a 9091 0000 		lds r25,layer_state+1
 378 001e A091 0000 		lds r26,layer_state+2
 379 0022 B091 0000 		lds r27,layer_state+3
 380               	.LVL25:
 381 0026 4827      		eor r20,r24
 382 0028 5927      		eor r21,r25
 383 002a 6A27      		eor r22,r26
 384 002c 7B27      		eor r23,r27
 385 002e CB01      		movw r24,r22
 386 0030 BA01      		movw r22,r20
 387 0032 0C94 0000 		jmp layer_state_set
 388               	.LVL26:
 389               		.cfi_endproc
 390               	.LFE15:
 392               		.section	.text.layer_or,"ax",@progbits
 393               	.global	layer_or
 395               	layer_or:
 396               	.LFB16:
  92:../../../../tmk_core/common/action_layer.c **** }
  93:../../../../tmk_core/common/action_layer.c **** 
  94:../../../../tmk_core/common/action_layer.c **** void layer_or(uint32_t state)
  95:../../../../tmk_core/common/action_layer.c **** {
 397               		.loc 1 95 0
 398               		.cfi_startproc
 399               	.LVL27:
 400 0000 0F93      		push r16
 401               	.LCFI6:
 402               		.cfi_def_cfa_offset 3
 403               		.cfi_offset 16, -2
 404 0002 1F93      		push r17
 405               	.LCFI7:
 406               		.cfi_def_cfa_offset 4
 407               		.cfi_offset 17, -3
 408               	/* prologue: function */
 409               	/* frame size = 0 */
 410               	/* stack size = 2 */
 411               	.L__stack_usage = 2
  96:../../../../tmk_core/common/action_layer.c ****     layer_state_set(layer_state | state);
 412               		.loc 1 96 0
 413 0004 0091 0000 		lds r16,layer_state
 414 0008 1091 0000 		lds r17,layer_state+1
 415 000c 2091 0000 		lds r18,layer_state+2
 416 0010 3091 0000 		lds r19,layer_state+3
 417 0014 602B      		or r22,r16
 418 0016 712B      		or r23,r17
 419 0018 822B      		or r24,r18
 420 001a 932B      		or r25,r19
 421               	.LVL28:
 422               	/* epilogue start */
  97:../../../../tmk_core/common/action_layer.c **** }
 423               		.loc 1 97 0
 424 001c 1F91      		pop r17
 425 001e 0F91      		pop r16
  96:../../../../tmk_core/common/action_layer.c ****     layer_state_set(layer_state | state);
 426               		.loc 1 96 0
 427 0020 0C94 0000 		jmp layer_state_set
 428               	.LVL29:
 429               		.cfi_endproc
 430               	.LFE16:
 432               		.section	.text.layer_and,"ax",@progbits
 433               	.global	layer_and
 435               	layer_and:
 436               	.LFB17:
  98:../../../../tmk_core/common/action_layer.c **** void layer_and(uint32_t state)
  99:../../../../tmk_core/common/action_layer.c **** {
 437               		.loc 1 99 0
 438               		.cfi_startproc
 439               	.LVL30:
 440 0000 0F93      		push r16
 441               	.LCFI8:
 442               		.cfi_def_cfa_offset 3
 443               		.cfi_offset 16, -2
 444 0002 1F93      		push r17
 445               	.LCFI9:
 446               		.cfi_def_cfa_offset 4
 447               		.cfi_offset 17, -3
 448               	/* prologue: function */
 449               	/* frame size = 0 */
 450               	/* stack size = 2 */
 451               	.L__stack_usage = 2
 100:../../../../tmk_core/common/action_layer.c ****     layer_state_set(layer_state & state);
 452               		.loc 1 100 0
 453 0004 0091 0000 		lds r16,layer_state
 454 0008 1091 0000 		lds r17,layer_state+1
 455 000c 2091 0000 		lds r18,layer_state+2
 456 0010 3091 0000 		lds r19,layer_state+3
 457 0014 6023      		and r22,r16
 458 0016 7123      		and r23,r17
 459 0018 8223      		and r24,r18
 460 001a 9323      		and r25,r19
 461               	.LVL31:
 462               	/* epilogue start */
 101:../../../../tmk_core/common/action_layer.c **** }
 463               		.loc 1 101 0
 464 001c 1F91      		pop r17
 465 001e 0F91      		pop r16
 100:../../../../tmk_core/common/action_layer.c ****     layer_state_set(layer_state & state);
 466               		.loc 1 100 0
 467 0020 0C94 0000 		jmp layer_state_set
 468               	.LVL32:
 469               		.cfi_endproc
 470               	.LFE17:
 472               		.section	.text.layer_xor,"ax",@progbits
 473               	.global	layer_xor
 475               	layer_xor:
 476               	.LFB18:
 102:../../../../tmk_core/common/action_layer.c **** void layer_xor(uint32_t state)
 103:../../../../tmk_core/common/action_layer.c **** {
 477               		.loc 1 103 0
 478               		.cfi_startproc
 479               	.LVL33:
 480 0000 0F93      		push r16
 481               	.LCFI10:
 482               		.cfi_def_cfa_offset 3
 483               		.cfi_offset 16, -2
 484 0002 1F93      		push r17
 485               	.LCFI11:
 486               		.cfi_def_cfa_offset 4
 487               		.cfi_offset 17, -3
 488               	/* prologue: function */
 489               	/* frame size = 0 */
 490               	/* stack size = 2 */
 491               	.L__stack_usage = 2
 104:../../../../tmk_core/common/action_layer.c ****     layer_state_set(layer_state ^ state);
 492               		.loc 1 104 0
 493 0004 0091 0000 		lds r16,layer_state
 494 0008 1091 0000 		lds r17,layer_state+1
 495 000c 2091 0000 		lds r18,layer_state+2
 496 0010 3091 0000 		lds r19,layer_state+3
 497 0014 6027      		eor r22,r16
 498 0016 7127      		eor r23,r17
 499 0018 8227      		eor r24,r18
 500 001a 9327      		eor r25,r19
 501               	.LVL34:
 502               	/* epilogue start */
 105:../../../../tmk_core/common/action_layer.c **** }
 503               		.loc 1 105 0
 504 001c 1F91      		pop r17
 505 001e 0F91      		pop r16
 104:../../../../tmk_core/common/action_layer.c ****     layer_state_set(layer_state ^ state);
 506               		.loc 1 104 0
 507 0020 0C94 0000 		jmp layer_state_set
 508               	.LVL35:
 509               		.cfi_endproc
 510               	.LFE18:
 512               		.section	.text.layer_debug,"ax",@progbits
 513               	.global	layer_debug
 515               	layer_debug:
 516               	.LFB19:
 106:../../../../tmk_core/common/action_layer.c **** 
 107:../../../../tmk_core/common/action_layer.c **** void layer_debug(void)
 108:../../../../tmk_core/common/action_layer.c **** {
 517               		.loc 1 108 0
 518               		.cfi_startproc
 519               	/* prologue: function */
 520               	/* frame size = 0 */
 521               	/* stack size = 0 */
 522               	.L__stack_usage = 0
 523 0000 0895      		ret
 524               		.cfi_endproc
 525               	.LFE19:
 527               		.section	.text.layer_switch_get_action,"ax",@progbits
 528               	.global	layer_switch_get_action
 530               	layer_switch_get_action:
 531               	.LFB20:
 109:../../../../tmk_core/common/action_layer.c ****     dprintf("%08lX(%u)", layer_state, biton32(layer_state));
 110:../../../../tmk_core/common/action_layer.c **** }
 111:../../../../tmk_core/common/action_layer.c **** #endif
 112:../../../../tmk_core/common/action_layer.c **** 
 113:../../../../tmk_core/common/action_layer.c **** 
 114:../../../../tmk_core/common/action_layer.c **** 
 115:../../../../tmk_core/common/action_layer.c **** action_t layer_switch_get_action(keypos_t key)
 116:../../../../tmk_core/common/action_layer.c **** {
 532               		.loc 1 116 0
 533               		.cfi_startproc
 534               	.LVL36:
 535               		.loc 1 116 0
 536 0000 8F92      		push r8
 537               	.LCFI12:
 538               		.cfi_def_cfa_offset 3
 539               		.cfi_offset 8, -2
 540 0002 9F92      		push r9
 541               	.LCFI13:
 542               		.cfi_def_cfa_offset 4
 543               		.cfi_offset 9, -3
 544 0004 AF92      		push r10
 545               	.LCFI14:
 546               		.cfi_def_cfa_offset 5
 547               		.cfi_offset 10, -4
 548 0006 BF92      		push r11
 549               	.LCFI15:
 550               		.cfi_def_cfa_offset 6
 551               		.cfi_offset 11, -5
 552 0008 CF92      		push r12
 553               	.LCFI16:
 554               		.cfi_def_cfa_offset 7
 555               		.cfi_offset 12, -6
 556 000a DF92      		push r13
 557               	.LCFI17:
 558               		.cfi_def_cfa_offset 8
 559               		.cfi_offset 13, -7
 560 000c EF92      		push r14
 561               	.LCFI18:
 562               		.cfi_def_cfa_offset 9
 563               		.cfi_offset 14, -8
 564 000e FF92      		push r15
 565               	.LCFI19:
 566               		.cfi_def_cfa_offset 10
 567               		.cfi_offset 15, -9
 568               	/* prologue: function */
 569               	/* frame size = 0 */
 570               	/* stack size = 8 */
 571               	.L__stack_usage = 8
 572 0010 6C01      		movw r12,r24
 573               	.LVL37:
 117:../../../../tmk_core/common/action_layer.c ****     action_t action;
 118:../../../../tmk_core/common/action_layer.c ****     action.code = ACTION_TRANSPARENT;
 119:../../../../tmk_core/common/action_layer.c **** 
 120:../../../../tmk_core/common/action_layer.c **** #ifndef NO_ACTION_LAYER
 121:../../../../tmk_core/common/action_layer.c ****     uint32_t layers = layer_state | default_layer_state;
 574               		.loc 1 121 0
 575 0012 8090 0000 		lds r8,default_layer_state
 576 0016 9090 0000 		lds r9,default_layer_state+1
 577 001a A090 0000 		lds r10,default_layer_state+2
 578 001e B090 0000 		lds r11,default_layer_state+3
 579 0022 4091 0000 		lds r20,layer_state
 580 0026 5091 0000 		lds r21,layer_state+1
 581 002a 6091 0000 		lds r22,layer_state+2
 582 002e 7091 0000 		lds r23,layer_state+3
 583 0032 842A      		or r8,r20
 584 0034 952A      		or r9,r21
 585 0036 A62A      		or r10,r22
 586 0038 B72A      		or r11,r23
 587               	.LVL38:
 588 003a 8FE1      		ldi r24,lo8(31)
 589 003c E82E      		mov r14,r24
 590 003e F12C      		mov r15,__zero_reg__
 591               	.LVL39:
 592               	.L20:
 593               	.LBB2:
 122:../../../../tmk_core/common/action_layer.c ****     /* check top layer first */
 123:../../../../tmk_core/common/action_layer.c ****     for (int8_t i = 31; i >= 0; i--) {
 124:../../../../tmk_core/common/action_layer.c ****         if (layers & (1UL<<i)) {
 594               		.loc 1 124 0
 595 0040 B501      		movw r22,r10
 596 0042 A401      		movw r20,r8
 597 0044 0E2C      		mov r0,r14
 598 0046 00C0      		rjmp 2f
 599               		1:
 600 0048 7695      		lsr r23
 601 004a 6795      		ror r22
 602 004c 5795      		ror r21
 603 004e 4795      		ror r20
 604               		2:
 605 0050 0A94      		dec r0
 606 0052 02F4      		brpl 1b
 607 0054 40FF      		sbrs r20,0
 608 0056 00C0      		rjmp .L18
 125:../../../../tmk_core/common/action_layer.c ****             action = action_for_key(i, key);
 609               		.loc 1 125 0
 610 0058 B601      		movw r22,r12
 611 005a 8E2D      		mov r24,r14
 612 005c 0E94 0000 		call action_for_key
 613               	.LVL40:
 126:../../../../tmk_core/common/action_layer.c ****             if (action.code != ACTION_TRANSPARENT) {
 614               		.loc 1 126 0
 615 0060 8130      		cpi r24,1
 616 0062 9105      		cpc r25,__zero_reg__
 617 0064 01F0      		breq .L18
 618 0066 00C0      		rjmp .L19
 619               	.LVL41:
 620               	.L18:
 621 0068 81E0      		ldi r24,1
 622 006a E81A      		sub r14,r24
 623 006c F108      		sbc r15,__zero_reg__
 624 006e 00F4      		brcc .L20
 625               	.LBE2:
 127:../../../../tmk_core/common/action_layer.c ****                 return action;
 128:../../../../tmk_core/common/action_layer.c ****             }
 129:../../../../tmk_core/common/action_layer.c ****         }
 130:../../../../tmk_core/common/action_layer.c ****     }
 131:../../../../tmk_core/common/action_layer.c ****     /* fall back to layer 0 */
 132:../../../../tmk_core/common/action_layer.c ****     action = action_for_key(0, key);
 626               		.loc 1 132 0
 627 0070 B601      		movw r22,r12
 628 0072 80E0      		ldi r24,0
 629 0074 0E94 0000 		call action_for_key
 630               	.LVL42:
 631               	.L19:
 632               	/* epilogue start */
 133:../../../../tmk_core/common/action_layer.c ****     return action;
 134:../../../../tmk_core/common/action_layer.c **** #else
 135:../../../../tmk_core/common/action_layer.c ****     action = action_for_key(biton32(default_layer_state), key);
 136:../../../../tmk_core/common/action_layer.c ****     return action;
 137:../../../../tmk_core/common/action_layer.c **** #endif
 138:../../../../tmk_core/common/action_layer.c **** }
 633               		.loc 1 138 0
 634 0078 FF90      		pop r15
 635 007a EF90      		pop r14
 636 007c DF90      		pop r13
 637 007e CF90      		pop r12
 638               	.LVL43:
 639 0080 BF90      		pop r11
 640 0082 AF90      		pop r10
 641 0084 9F90      		pop r9
 642 0086 8F90      		pop r8
 643               	.LVL44:
 644 0088 0895      		ret
 645               		.cfi_endproc
 646               	.LFE20:
 648               	.global	layer_state
 649               		.section	.bss.layer_state,"aw",@nobits
 652               	layer_state:
 653 0000 0000 0000 		.zero	4
 654               	.global	default_layer_state
 655               		.section	.bss.default_layer_state,"aw",@nobits
 658               	default_layer_state:
 659 0000 0000 0000 		.zero	4
 660               		.text
 661               	.Letext0:
 662               		.file 2 "/usr/lib64/gcc/avr/4.7.1/../../../../avr/include/stdint.h"
 663               		.file 3 "../../../../tmk_core/common/keyboard.h"
 664               		.file 4 "../../../../tmk_core/common/action_code.h"
 665               		.file 5 "../../../../tmk_core/common/action.h"