   1               		.file	"sleep_led.c"
   2               	__SP_H__ = 0x3e
   3               	__SP_L__ = 0x3d
   4               	__SREG__ = 0x3f
   5               	__RAMPZ__ = 0x3b
   6               	__tmp_reg__ = 0
   7               	__zero_reg__ = 1
   8               		.text
   9               	.Ltext0:
  10               		.cfi_sections	.debug_frame
  11               		.section	.text.sleep_led_init,"ax",@progbits
  12               	.global	sleep_led_init
  14               	sleep_led_init:
  15               	.LFB1:
  16               		.file 1 "../../../../tmk_core/common/avr/sleep_led.c"
   1:../../../../tmk_core/common/avr/sleep_led.c **** #include <stdint.h>
   2:../../../../tmk_core/common/avr/sleep_led.c **** #include <avr/io.h>
   3:../../../../tmk_core/common/avr/sleep_led.c **** #include <avr/interrupt.h>
   4:../../../../tmk_core/common/avr/sleep_led.c **** #include <avr/pgmspace.h>
   5:../../../../tmk_core/common/avr/sleep_led.c **** #include "led.h"
   6:../../../../tmk_core/common/avr/sleep_led.c **** #include "sleep_led.h"
   7:../../../../tmk_core/common/avr/sleep_led.c **** 
   8:../../../../tmk_core/common/avr/sleep_led.c **** /* Software PWM
   9:../../../../tmk_core/common/avr/sleep_led.c ****  *  ______           ______           __
  10:../../../../tmk_core/common/avr/sleep_led.c ****  * |  ON  |___OFF___|  ON  |___OFF___|   ....
  11:../../../../tmk_core/common/avr/sleep_led.c ****  * |<-------------->|<-------------->|<- ....
  12:../../../../tmk_core/common/avr/sleep_led.c ****  *     PWM period       PWM period
  13:../../../../tmk_core/common/avr/sleep_led.c ****  *
  14:../../../../tmk_core/common/avr/sleep_led.c ****  * 256              interrupts/period[resolution]
  15:../../../../tmk_core/common/avr/sleep_led.c ****  * 64               periods/second[frequency]
  16:../../../../tmk_core/common/avr/sleep_led.c ****  * 256*64           interrupts/second
  17:../../../../tmk_core/common/avr/sleep_led.c ****  * F_CPU/(256*64)   clocks/interrupt
  18:../../../../tmk_core/common/avr/sleep_led.c ****  */
  19:../../../../tmk_core/common/avr/sleep_led.c **** #define SLEEP_LED_TIMER_TOP F_CPU/(256*64)
  20:../../../../tmk_core/common/avr/sleep_led.c **** 
  21:../../../../tmk_core/common/avr/sleep_led.c **** void sleep_led_init(void)
  22:../../../../tmk_core/common/avr/sleep_led.c **** {
  17               		.loc 1 22 0
  18               		.cfi_startproc
  19               	/* prologue: function */
  20               	/* frame size = 0 */
  21               	/* stack size = 0 */
  22               	.L__stack_usage = 0
  23:../../../../tmk_core/common/avr/sleep_led.c ****     /* Timer1 setup */
  24:../../../../tmk_core/common/avr/sleep_led.c ****     /* CTC mode */
  25:../../../../tmk_core/common/avr/sleep_led.c ****     TCCR1B |= _BV(WGM12);
  23               		.loc 1 25 0
  24 0000 E1E8      		ldi r30,lo8(-127)
  25 0002 F0E0      		ldi r31,0
  26 0004 8081      		ld r24,Z
  27 0006 8860      		ori r24,lo8(8)
  28 0008 8083      		st Z,r24
  26:../../../../tmk_core/common/avr/sleep_led.c ****     /* Clock selelct: clk/1 */
  27:../../../../tmk_core/common/avr/sleep_led.c ****     TCCR1B |= _BV(CS10);
  29               		.loc 1 27 0
  30 000a 8081      		ld r24,Z
  31 000c 8160      		ori r24,lo8(1)
  32 000e 8083      		st Z,r24
  28:../../../../tmk_core/common/avr/sleep_led.c ****     /* Set TOP value */
  29:../../../../tmk_core/common/avr/sleep_led.c ****     uint8_t sreg = SREG;
  33               		.loc 1 29 0
  34 0010 8FB7      		in r24,__SREG__
  35               	.LVL0:
  30:../../../../tmk_core/common/avr/sleep_led.c ****     cli();
  36               		.loc 1 30 0
  37               	/* #APP */
  38               	 ;  30 "../../../../tmk_core/common/avr/sleep_led.c" 1
  39 0012 F894      		cli
  40               	 ;  0 "" 2
  31:../../../../tmk_core/common/avr/sleep_led.c ****     OCR1AH = (SLEEP_LED_TIMER_TOP>>8)&0xff;
  41               		.loc 1 31 0
  42               	/* #NOAPP */
  43 0014 93E0      		ldi r25,lo8(3)
  44 0016 9093 8900 		sts 137,r25
  32:../../../../tmk_core/common/avr/sleep_led.c ****     OCR1AL = SLEEP_LED_TIMER_TOP&0xff;
  45               		.loc 1 32 0
  46 001a 90ED      		ldi r25,lo8(-48)
  47 001c 9093 8800 		sts 136,r25
  33:../../../../tmk_core/common/avr/sleep_led.c ****     SREG = sreg;
  48               		.loc 1 33 0
  49 0020 8FBF      		out __SREG__,r24
  50 0022 0895      		ret
  51               		.cfi_endproc
  52               	.LFE1:
  54               		.section	.text.sleep_led_enable,"ax",@progbits
  55               	.global	sleep_led_enable
  57               	sleep_led_enable:
  58               	.LFB2:
  34:../../../../tmk_core/common/avr/sleep_led.c **** }
  35:../../../../tmk_core/common/avr/sleep_led.c **** 
  36:../../../../tmk_core/common/avr/sleep_led.c **** void sleep_led_enable(void)
  37:../../../../tmk_core/common/avr/sleep_led.c **** {
  59               		.loc 1 37 0
  60               		.cfi_startproc
  61               	/* prologue: function */
  62               	/* frame size = 0 */
  63               	/* stack size = 0 */
  64               	.L__stack_usage = 0
  38:../../../../tmk_core/common/avr/sleep_led.c ****     /* Enable Compare Match Interrupt */
  39:../../../../tmk_core/common/avr/sleep_led.c ****     TIMSK1 |= _BV(OCIE1A);
  65               		.loc 1 39 0
  66 0000 EFE6      		ldi r30,lo8(111)
  67 0002 F0E0      		ldi r31,0
  68 0004 8081      		ld r24,Z
  69 0006 8260      		ori r24,lo8(2)
  70 0008 8083      		st Z,r24
  71 000a 0895      		ret
  72               		.cfi_endproc
  73               	.LFE2:
  75               		.section	.text.sleep_led_disable,"ax",@progbits
  76               	.global	sleep_led_disable
  78               	sleep_led_disable:
  79               	.LFB3:
  40:../../../../tmk_core/common/avr/sleep_led.c **** }
  41:../../../../tmk_core/common/avr/sleep_led.c **** 
  42:../../../../tmk_core/common/avr/sleep_led.c **** void sleep_led_disable(void)
  43:../../../../tmk_core/common/avr/sleep_led.c **** {
  80               		.loc 1 43 0
  81               		.cfi_startproc
  82               	/* prologue: function */
  83               	/* frame size = 0 */
  84               	/* stack size = 0 */
  85               	.L__stack_usage = 0
  44:../../../../tmk_core/common/avr/sleep_led.c ****     /* Disable Compare Match Interrupt */
  45:../../../../tmk_core/common/avr/sleep_led.c ****     TIMSK1 &= ~_BV(OCIE1A);
  86               		.loc 1 45 0
  87 0000 EFE6      		ldi r30,lo8(111)
  88 0002 F0E0      		ldi r31,0
  89 0004 8081      		ld r24,Z
  90 0006 8D7F      		andi r24,lo8(-3)
  91 0008 8083      		st Z,r24
  92 000a 0895      		ret
  93               		.cfi_endproc
  94               	.LFE3:
  96               		.section	.text.sleep_led_toggle,"ax",@progbits
  97               	.global	sleep_led_toggle
  99               	sleep_led_toggle:
 100               	.LFB4:
  46:../../../../tmk_core/common/avr/sleep_led.c **** }
  47:../../../../tmk_core/common/avr/sleep_led.c **** 
  48:../../../../tmk_core/common/avr/sleep_led.c **** void sleep_led_toggle(void)
  49:../../../../tmk_core/common/avr/sleep_led.c **** {
 101               		.loc 1 49 0
 102               		.cfi_startproc
 103               	/* prologue: function */
 104               	/* frame size = 0 */
 105               	/* stack size = 0 */
 106               	.L__stack_usage = 0
  50:../../../../tmk_core/common/avr/sleep_led.c ****     /* Disable Compare Match Interrupt */
  51:../../../../tmk_core/common/avr/sleep_led.c ****     TIMSK1 ^= _BV(OCIE1A);
 107               		.loc 1 51 0
 108 0000 EFE6      		ldi r30,lo8(111)
 109 0002 F0E0      		ldi r31,0
 110 0004 8081      		ld r24,Z
 111 0006 92E0      		ldi r25,lo8(2)
 112 0008 8927      		eor r24,r25
 113 000a 8083      		st Z,r24
 114 000c 0895      		ret
 115               		.cfi_endproc
 116               	.LFE4:
 118               		.section	.text.__vector_17,"ax",@progbits
 119               	.global	__vector_17
 121               	__vector_17:
 122               	.LFB5:
  52:../../../../tmk_core/common/avr/sleep_led.c **** }
  53:../../../../tmk_core/common/avr/sleep_led.c **** 
  54:../../../../tmk_core/common/avr/sleep_led.c **** 
  55:../../../../tmk_core/common/avr/sleep_led.c **** /* Breathing Sleep LED brighness(PWM On period) table
  56:../../../../tmk_core/common/avr/sleep_led.c ****  * (64[steps] * 4[duration]) / 64[PWM periods/s] = 4 second breath cycle
  57:../../../../tmk_core/common/avr/sleep_led.c ****  *
  58:../../../../tmk_core/common/avr/sleep_led.c ****  * http://www.wolframalpha.com/input/?i=%28sin%28+x%2F64*pi%29**8+*+255%2C+x%3D0+to+63
  59:../../../../tmk_core/common/avr/sleep_led.c ****  * (0..63).each {|x| p ((sin(x/64.0*PI)**8)*255).to_i }
  60:../../../../tmk_core/common/avr/sleep_led.c ****  */
  61:../../../../tmk_core/common/avr/sleep_led.c **** static const uint8_t breathing_table[64] PROGMEM = {
  62:../../../../tmk_core/common/avr/sleep_led.c **** 0, 0, 0, 0, 0, 0, 0, 0, 0, 0, 0, 1, 2, 4, 6, 10,
  63:../../../../tmk_core/common/avr/sleep_led.c **** 15, 23, 32, 44, 58, 74, 93, 113, 135, 157, 179, 199, 218, 233, 245, 252,
  64:../../../../tmk_core/common/avr/sleep_led.c **** 255, 252, 245, 233, 218, 199, 179, 157, 135, 113, 93, 74, 58, 44, 32, 23,
  65:../../../../tmk_core/common/avr/sleep_led.c **** 15, 10, 6, 4, 2, 1, 0, 0, 0, 0, 0, 0, 0, 0, 0, 0
  66:../../../../tmk_core/common/avr/sleep_led.c **** };
  67:../../../../tmk_core/common/avr/sleep_led.c **** 
  68:../../../../tmk_core/common/avr/sleep_led.c **** ISR(TIMER1_COMPA_vect)
  69:../../../../tmk_core/common/avr/sleep_led.c **** {
 123               		.loc 1 69 0
 124               		.cfi_startproc
 125 0000 1F92      		push r1
 126               	.LCFI0:
 127               		.cfi_def_cfa_offset 3
 128               		.cfi_offset 1, -2
 129 0002 0F92      		push r0
 130               	.LCFI1:
 131               		.cfi_def_cfa_offset 4
 132               		.cfi_offset 0, -3
 133 0004 0FB6      		in r0,__SREG__
 134 0006 0F92      		push r0
 135 0008 1124      		clr __zero_reg__
 136 000a 0BB6      		in r0,__RAMPZ__
 137 000c 0F92      		push r0
 138 000e 2F93      		push r18
 139               	.LCFI2:
 140               		.cfi_def_cfa_offset 5
 141               		.cfi_offset 18, -4
 142 0010 3F93      		push r19
 143               	.LCFI3:
 144               		.cfi_def_cfa_offset 6
 145               		.cfi_offset 19, -5
 146 0012 4F93      		push r20
 147               	.LCFI4:
 148               		.cfi_def_cfa_offset 7
 149               		.cfi_offset 20, -6
 150 0014 5F93      		push r21
 151               	.LCFI5:
 152               		.cfi_def_cfa_offset 8
 153               		.cfi_offset 21, -7
 154 0016 6F93      		push r22
 155               	.LCFI6:
 156               		.cfi_def_cfa_offset 9
 157               		.cfi_offset 22, -8
 158 0018 7F93      		push r23
 159               	.LCFI7:
 160               		.cfi_def_cfa_offset 10
 161               		.cfi_offset 23, -9
 162 001a 8F93      		push r24
 163               	.LCFI8:
 164               		.cfi_def_cfa_offset 11
 165               		.cfi_offset 24, -10
 166 001c 9F93      		push r25
 167               	.LCFI9:
 168               		.cfi_def_cfa_offset 12
 169               		.cfi_offset 25, -11
 170 001e AF93      		push r26
 171               	.LCFI10:
 172               		.cfi_def_cfa_offset 13
 173               		.cfi_offset 26, -12
 174 0020 BF93      		push r27
 175               	.LCFI11:
 176               		.cfi_def_cfa_offset 14
 177               		.cfi_offset 27, -13
 178 0022 EF93      		push r30
 179               	.LCFI12:
 180               		.cfi_def_cfa_offset 15
 181               		.cfi_offset 30, -14
 182 0024 FF93      		push r31
 183               	.LCFI13:
 184               		.cfi_def_cfa_offset 16
 185               		.cfi_offset 31, -15
 186               	/* prologue: Signal */
 187               	/* frame size = 0 */
 188               	/* stack size = 16 */
 189               	.L__stack_usage = 16
  70:../../../../tmk_core/common/avr/sleep_led.c ****     /* Software PWM
  71:../../../../tmk_core/common/avr/sleep_led.c ****      * timer:1111 1111 1111 1111
  72:../../../../tmk_core/common/avr/sleep_led.c ****      *       \_____/\/ \_______/____  count(0-255)
  73:../../../../tmk_core/common/avr/sleep_led.c ****      *          \    \______________  duration of step(4)
  74:../../../../tmk_core/common/avr/sleep_led.c ****      *           \__________________  index of step table(0-63)
  75:../../../../tmk_core/common/avr/sleep_led.c ****      */
  76:../../../../tmk_core/common/avr/sleep_led.c ****     static union {
  77:../../../../tmk_core/common/avr/sleep_led.c ****         uint16_t row;
  78:../../../../tmk_core/common/avr/sleep_led.c ****         struct {
  79:../../../../tmk_core/common/avr/sleep_led.c ****             uint8_t count:8;
  80:../../../../tmk_core/common/avr/sleep_led.c ****             uint8_t duration:2;
  81:../../../../tmk_core/common/avr/sleep_led.c ****             uint8_t index:6;
  82:../../../../tmk_core/common/avr/sleep_led.c ****         } pwm;
  83:../../../../tmk_core/common/avr/sleep_led.c ****     } timer = { .row = 0 };
  84:../../../../tmk_core/common/avr/sleep_led.c **** 
  85:../../../../tmk_core/common/avr/sleep_led.c ****     timer.row++;
 190               		.loc 1 85 0
 191 0026 8091 0000 		lds r24,timer.1580
 192 002a 9091 0000 		lds r25,timer.1580+1
 193 002e 0196      		adiw r24,1
 194 0030 9093 0000 		sts timer.1580+1,r25
 195 0034 8093 0000 		sts timer.1580,r24
  86:../../../../tmk_core/common/avr/sleep_led.c ****     
  87:../../../../tmk_core/common/avr/sleep_led.c ****     // LED on
  88:../../../../tmk_core/common/avr/sleep_led.c ****     if (timer.pwm.count == 0) {
 196               		.loc 1 88 0
 197 0038 8111      		cpse r24,__zero_reg__
 198 003a 00C0      		rjmp .L6
  89:../../../../tmk_core/common/avr/sleep_led.c ****         led_set(1<<USB_LED_CAPS_LOCK);
 199               		.loc 1 89 0
 200 003c 82E0      		ldi r24,lo8(2)
 201 003e 0E94 0000 		call led_set
 202               	.LVL1:
 203               	.L6:
 204               	.LBB2:
  90:../../../../tmk_core/common/avr/sleep_led.c ****     }
  91:../../../../tmk_core/common/avr/sleep_led.c ****     // LED off
  92:../../../../tmk_core/common/avr/sleep_led.c ****     if (timer.pwm.count == pgm_read_byte(&breathing_table[timer.pwm.index])) {
 205               		.loc 1 92 0
 206 0042 E091 0000 		lds r30,timer.1580+1
 207 0046 E695      		lsr r30
 208 0048 E695      		lsr r30
 209 004a F0E0      		ldi r31,0
 210 004c E050      		subi r30,lo8(-(breathing_table))
 211 004e F040      		sbci r31,hi8(-(breathing_table))
 212               	/* #APP */
 213               	 ;  92 "../../../../tmk_core/common/avr/sleep_led.c" 1
 214 0050 E491      		lpm r30, Z
 215               		
 216               	 ;  0 "" 2
 217               	.LVL2:
 218               	/* #NOAPP */
 219               	.LBE2:
 220 0052 8091 0000 		lds r24,timer.1580
 221 0056 8E13      		cpse r24,r30
 222 0058 00C0      		rjmp .L5
  93:../../../../tmk_core/common/avr/sleep_led.c ****         led_set(0);
 223               		.loc 1 93 0
 224 005a 80E0      		ldi r24,0
 225 005c 0E94 0000 		call led_set
 226               	.LVL3:
 227               	.L5:
 228               	/* epilogue start */
  94:../../../../tmk_core/common/avr/sleep_led.c ****     }
  95:../../../../tmk_core/common/avr/sleep_led.c **** }
 229               		.loc 1 95 0
 230 0060 FF91      		pop r31
 231 0062 EF91      		pop r30
 232 0064 BF91      		pop r27
 233 0066 AF91      		pop r26
 234 0068 9F91      		pop r25
 235 006a 8F91      		pop r24
 236 006c 7F91      		pop r23
 237 006e 6F91      		pop r22
 238 0070 5F91      		pop r21
 239 0072 4F91      		pop r20
 240 0074 3F91      		pop r19
 241 0076 2F91      		pop r18
 242 0078 0F90      		pop r0
 243 007a 0BBE      		out __RAMPZ__,r0
 244 007c 0F90      		pop r0
 245 007e 0FBE      		out __SREG__,r0
 246 0080 0F90      		pop r0
 247 0082 1F90      		pop r1
 248 0084 1895      		reti
 249               		.cfi_endproc
 250               	.LFE5:
 252               		.section	.bss.timer.1580,"aw",@nobits
 255               	timer.1580:
 256 0000 0000      		.zero	2
 257               		.section	.progmem.data.breathing_table,"a",@progbits
 260               	breathing_table:
 261 0000 00        		.byte	0
 262 0001 00        		.byte	0
 263 0002 00        		.byte	0
 264 0003 00        		.byte	0
 265 0004 00        		.byte	0
 266 0005 00        		.byte	0
 267 0006 00        		.byte	0
 268 0007 00        		.byte	0
 269 0008 00        		.byte	0
 270 0009 00        		.byte	0
 271 000a 00        		.byte	0
 272 000b 01        		.byte	1
 273 000c 02        		.byte	2
 274 000d 04        		.byte	4
 275 000e 06        		.byte	6
 276 000f 0A        		.byte	10
 277 0010 0F        		.byte	15
 278 0011 17        		.byte	23
 279 0012 20        		.byte	32
 280 0013 2C        		.byte	44
 281 0014 3A        		.byte	58
 282 0015 4A        		.byte	74
 283 0016 5D        		.byte	93
 284 0017 71        		.byte	113
 285 0018 87        		.byte	-121
 286 0019 9D        		.byte	-99
 287 001a B3        		.byte	-77
 288 001b C7        		.byte	-57
 289 001c DA        		.byte	-38
 290 001d E9        		.byte	-23
 291 001e F5        		.byte	-11
 292 001f FC        		.byte	-4
 293 0020 FF        		.byte	-1
 294 0021 FC        		.byte	-4
 295 0022 F5        		.byte	-11
 296 0023 E9        		.byte	-23
 297 0024 DA        		.byte	-38
 298 0025 C7        		.byte	-57
 299 0026 B3        		.byte	-77
 300 0027 9D        		.byte	-99
 301 0028 87        		.byte	-121
 302 0029 71        		.byte	113
 303 002a 5D        		.byte	93
 304 002b 4A        		.byte	74
 305 002c 3A        		.byte	58
 306 002d 2C        		.byte	44
 307 002e 20        		.byte	32
 308 002f 17        		.byte	23
 309 0030 0F        		.byte	15
 310 0031 0A        		.byte	10
 311 0032 06        		.byte	6
 312 0033 04        		.byte	4
 313 0034 02        		.byte	2
 314 0035 01        		.byte	1
 315 0036 00        		.byte	0
 316 0037 00        		.byte	0
 317 0038 00        		.byte	0
 318 0039 00        		.byte	0
 319 003a 00        		.byte	0
 320 003b 00        		.byte	0
 321 003c 00        		.byte	0
 322 003d 00        		.byte	0
 323 003e 00        		.byte	0
 324 003f 00        		.byte	0
 325               		.text
 326               	.Letext0:
 327               		.file 2 "/usr/lib64/gcc/avr/4.7.1/../../../../avr/include/stdint.h"
 328               		.file 3 "../../../../tmk_core/common/led.h"