   1               		.file	"EndpointStream_AVR8.c"
   2               	__SP_H__ = 0x3e
   3               	__SP_L__ = 0x3d
   4               	__SREG__ = 0x3f
   5               	__RAMPZ__ = 0x3b
   6               	__tmp_reg__ = 0
   7               	__zero_reg__ = 1
   8               		.text
   9               	.Ltext0:
  10               		.cfi_sections	.debug_frame
  11               		.section	.text.Endpoint_Discard_Stream,"ax",@progbits
  12               	.global	Endpoint_Discard_Stream
  14               	Endpoint_Discard_Stream:
  15               	.LFB85:
  16               		.file 1 "../../../../tmk_core/protocol/lufa/LUFA-git/LUFA/Drivers/USB/Core/AVR8/EndpointStream_AVR
   1:../../../../tmk_core/protocol/lufa/LUFA-git/LUFA/Drivers/USB/Core/AVR8/EndpointStream_AVR8.c **** /*
   2:../../../../tmk_core/protocol/lufa/LUFA-git/LUFA/Drivers/USB/Core/AVR8/EndpointStream_AVR8.c ****              LUFA Library
   3:../../../../tmk_core/protocol/lufa/LUFA-git/LUFA/Drivers/USB/Core/AVR8/EndpointStream_AVR8.c ****      Copyright (C) Dean Camera, 2014.
   4:../../../../tmk_core/protocol/lufa/LUFA-git/LUFA/Drivers/USB/Core/AVR8/EndpointStream_AVR8.c **** 
   5:../../../../tmk_core/protocol/lufa/LUFA-git/LUFA/Drivers/USB/Core/AVR8/EndpointStream_AVR8.c ****   dean [at] fourwalledcubicle [dot] com
   6:../../../../tmk_core/protocol/lufa/LUFA-git/LUFA/Drivers/USB/Core/AVR8/EndpointStream_AVR8.c ****            www.lufa-lib.org
   7:../../../../tmk_core/protocol/lufa/LUFA-git/LUFA/Drivers/USB/Core/AVR8/EndpointStream_AVR8.c **** */
   8:../../../../tmk_core/protocol/lufa/LUFA-git/LUFA/Drivers/USB/Core/AVR8/EndpointStream_AVR8.c **** 
   9:../../../../tmk_core/protocol/lufa/LUFA-git/LUFA/Drivers/USB/Core/AVR8/EndpointStream_AVR8.c **** /*
  10:../../../../tmk_core/protocol/lufa/LUFA-git/LUFA/Drivers/USB/Core/AVR8/EndpointStream_AVR8.c ****   Copyright 2014  Dean Camera (dean [at] fourwalledcubicle [dot] com)
  11:../../../../tmk_core/protocol/lufa/LUFA-git/LUFA/Drivers/USB/Core/AVR8/EndpointStream_AVR8.c **** 
  12:../../../../tmk_core/protocol/lufa/LUFA-git/LUFA/Drivers/USB/Core/AVR8/EndpointStream_AVR8.c ****   Permission to use, copy, modify, distribute, and sell this
  13:../../../../tmk_core/protocol/lufa/LUFA-git/LUFA/Drivers/USB/Core/AVR8/EndpointStream_AVR8.c ****   software and its documentation for any purpose is hereby granted
  14:../../../../tmk_core/protocol/lufa/LUFA-git/LUFA/Drivers/USB/Core/AVR8/EndpointStream_AVR8.c ****   without fee, provided that the above copyright notice appear in
  15:../../../../tmk_core/protocol/lufa/LUFA-git/LUFA/Drivers/USB/Core/AVR8/EndpointStream_AVR8.c ****   all copies and that both that the copyright notice and this
  16:../../../../tmk_core/protocol/lufa/LUFA-git/LUFA/Drivers/USB/Core/AVR8/EndpointStream_AVR8.c ****   permission notice and warranty disclaimer appear in supporting
  17:../../../../tmk_core/protocol/lufa/LUFA-git/LUFA/Drivers/USB/Core/AVR8/EndpointStream_AVR8.c ****   documentation, and that the name of the author not be used in
  18:../../../../tmk_core/protocol/lufa/LUFA-git/LUFA/Drivers/USB/Core/AVR8/EndpointStream_AVR8.c ****   advertising or publicity pertaining to distribution of the
  19:../../../../tmk_core/protocol/lufa/LUFA-git/LUFA/Drivers/USB/Core/AVR8/EndpointStream_AVR8.c ****   software without specific, written prior permission.
  20:../../../../tmk_core/protocol/lufa/LUFA-git/LUFA/Drivers/USB/Core/AVR8/EndpointStream_AVR8.c **** 
  21:../../../../tmk_core/protocol/lufa/LUFA-git/LUFA/Drivers/USB/Core/AVR8/EndpointStream_AVR8.c ****   The author disclaims all warranties with regard to this
  22:../../../../tmk_core/protocol/lufa/LUFA-git/LUFA/Drivers/USB/Core/AVR8/EndpointStream_AVR8.c ****   software, including all implied warranties of merchantability
  23:../../../../tmk_core/protocol/lufa/LUFA-git/LUFA/Drivers/USB/Core/AVR8/EndpointStream_AVR8.c ****   and fitness.  In no event shall the author be liable for any
  24:../../../../tmk_core/protocol/lufa/LUFA-git/LUFA/Drivers/USB/Core/AVR8/EndpointStream_AVR8.c ****   special, indirect or consequential damages or any damages
  25:../../../../tmk_core/protocol/lufa/LUFA-git/LUFA/Drivers/USB/Core/AVR8/EndpointStream_AVR8.c ****   whatsoever resulting from loss of use, data or profits, whether
  26:../../../../tmk_core/protocol/lufa/LUFA-git/LUFA/Drivers/USB/Core/AVR8/EndpointStream_AVR8.c ****   in an action of contract, negligence or other tortious action,
  27:../../../../tmk_core/protocol/lufa/LUFA-git/LUFA/Drivers/USB/Core/AVR8/EndpointStream_AVR8.c ****   arising out of or in connection with the use or performance of
  28:../../../../tmk_core/protocol/lufa/LUFA-git/LUFA/Drivers/USB/Core/AVR8/EndpointStream_AVR8.c ****   this software.
  29:../../../../tmk_core/protocol/lufa/LUFA-git/LUFA/Drivers/USB/Core/AVR8/EndpointStream_AVR8.c **** */
  30:../../../../tmk_core/protocol/lufa/LUFA-git/LUFA/Drivers/USB/Core/AVR8/EndpointStream_AVR8.c **** 
  31:../../../../tmk_core/protocol/lufa/LUFA-git/LUFA/Drivers/USB/Core/AVR8/EndpointStream_AVR8.c **** #include "../../../../Common/Common.h"
  32:../../../../tmk_core/protocol/lufa/LUFA-git/LUFA/Drivers/USB/Core/AVR8/EndpointStream_AVR8.c **** #if (ARCH == ARCH_AVR8)
  33:../../../../tmk_core/protocol/lufa/LUFA-git/LUFA/Drivers/USB/Core/AVR8/EndpointStream_AVR8.c **** 
  34:../../../../tmk_core/protocol/lufa/LUFA-git/LUFA/Drivers/USB/Core/AVR8/EndpointStream_AVR8.c **** #define  __INCLUDE_FROM_USB_DRIVER
  35:../../../../tmk_core/protocol/lufa/LUFA-git/LUFA/Drivers/USB/Core/AVR8/EndpointStream_AVR8.c **** #include "../USBMode.h"
  36:../../../../tmk_core/protocol/lufa/LUFA-git/LUFA/Drivers/USB/Core/AVR8/EndpointStream_AVR8.c **** 
  37:../../../../tmk_core/protocol/lufa/LUFA-git/LUFA/Drivers/USB/Core/AVR8/EndpointStream_AVR8.c **** #if defined(USB_CAN_BE_DEVICE)
  38:../../../../tmk_core/protocol/lufa/LUFA-git/LUFA/Drivers/USB/Core/AVR8/EndpointStream_AVR8.c **** 
  39:../../../../tmk_core/protocol/lufa/LUFA-git/LUFA/Drivers/USB/Core/AVR8/EndpointStream_AVR8.c **** #include "EndpointStream_AVR8.h"
  40:../../../../tmk_core/protocol/lufa/LUFA-git/LUFA/Drivers/USB/Core/AVR8/EndpointStream_AVR8.c **** 
  41:../../../../tmk_core/protocol/lufa/LUFA-git/LUFA/Drivers/USB/Core/AVR8/EndpointStream_AVR8.c **** #if !defined(CONTROL_ONLY_DEVICE)
  42:../../../../tmk_core/protocol/lufa/LUFA-git/LUFA/Drivers/USB/Core/AVR8/EndpointStream_AVR8.c **** uint8_t Endpoint_Discard_Stream(uint16_t Length,
  43:../../../../tmk_core/protocol/lufa/LUFA-git/LUFA/Drivers/USB/Core/AVR8/EndpointStream_AVR8.c ****                                 uint16_t* const BytesProcessed)
  44:../../../../tmk_core/protocol/lufa/LUFA-git/LUFA/Drivers/USB/Core/AVR8/EndpointStream_AVR8.c **** {
  17               		.loc 1 44 0
  18               		.cfi_startproc
  19               	.LVL0:
  20 0000 AF92      		push r10
  21               	.LCFI0:
  22               		.cfi_def_cfa_offset 3
  23               		.cfi_offset 10, -2
  24 0002 BF92      		push r11
  25               	.LCFI1:
  26               		.cfi_def_cfa_offset 4
  27               		.cfi_offset 11, -3
  28 0004 CF92      		push r12
  29               	.LCFI2:
  30               		.cfi_def_cfa_offset 5
  31               		.cfi_offset 12, -4
  32 0006 DF92      		push r13
  33               	.LCFI3:
  34               		.cfi_def_cfa_offset 6
  35               		.cfi_offset 13, -5
  36 0008 EF92      		push r14
  37               	.LCFI4:
  38               		.cfi_def_cfa_offset 7
  39               		.cfi_offset 14, -6
  40 000a FF92      		push r15
  41               	.LCFI5:
  42               		.cfi_def_cfa_offset 8
  43               		.cfi_offset 15, -7
  44 000c CF93      		push r28
  45               	.LCFI6:
  46               		.cfi_def_cfa_offset 9
  47               		.cfi_offset 28, -8
  48               	/* prologue: function */
  49               	/* frame size = 0 */
  50               	/* stack size = 7 */
  51               	.L__stack_usage = 7
  52 000e 6C01      		movw r12,r24
  53 0010 7B01      		movw r14,r22
  54               	.LVL1:
  45:../../../../tmk_core/protocol/lufa/LUFA-git/LUFA/Drivers/USB/Core/AVR8/EndpointStream_AVR8.c **** 	uint8_t  ErrorCode;
  46:../../../../tmk_core/protocol/lufa/LUFA-git/LUFA/Drivers/USB/Core/AVR8/EndpointStream_AVR8.c **** 	uint16_t BytesInTransfer = 0;
  47:../../../../tmk_core/protocol/lufa/LUFA-git/LUFA/Drivers/USB/Core/AVR8/EndpointStream_AVR8.c **** 
  48:../../../../tmk_core/protocol/lufa/LUFA-git/LUFA/Drivers/USB/Core/AVR8/EndpointStream_AVR8.c **** 	if ((ErrorCode = Endpoint_WaitUntilReady()))
  55               		.loc 1 48 0
  56 0012 0E94 0000 		call Endpoint_WaitUntilReady
  57               	.LVL2:
  58 0016 C82F      		mov r28,r24
  59               	.LVL3:
  60 0018 8111      		cpse r24,__zero_reg__
  61 001a 00C0      		rjmp .L2
  49:../../../../tmk_core/protocol/lufa/LUFA-git/LUFA/Drivers/USB/Core/AVR8/EndpointStream_AVR8.c **** 	  return ErrorCode;
  50:../../../../tmk_core/protocol/lufa/LUFA-git/LUFA/Drivers/USB/Core/AVR8/EndpointStream_AVR8.c **** 
  51:../../../../tmk_core/protocol/lufa/LUFA-git/LUFA/Drivers/USB/Core/AVR8/EndpointStream_AVR8.c **** 	if (BytesProcessed != NULL)
  62               		.loc 1 51 0
  63 001c E114      		cp r14,__zero_reg__
  64 001e F104      		cpc r15,__zero_reg__
  65 0020 01F0      		breq .L3
  52:../../../../tmk_core/protocol/lufa/LUFA-git/LUFA/Drivers/USB/Core/AVR8/EndpointStream_AVR8.c **** 	  Length -= *BytesProcessed;
  66               		.loc 1 52 0
  67 0022 F701      		movw r30,r14
  68 0024 2081      		ld r18,Z
  69 0026 3181      		ldd r19,Z+1
  70 0028 C21A      		sub r12,r18
  71 002a D30A      		sbc r13,r19
  72               	.LVL4:
  73               	.L3:
  44:../../../../tmk_core/protocol/lufa/LUFA-git/LUFA/Drivers/USB/Core/AVR8/EndpointStream_AVR8.c **** {
  74               		.loc 1 44 0 discriminator 1
  75 002c A12C      		mov r10,__zero_reg__
  76 002e B12C      		mov r11,__zero_reg__
  77 0030 00C0      		rjmp .L13
  78               	.LVL5:
  79               	.L8:
  80               	.LBB268:
  81               	.LBB269:
  82               		.file 2 "../../../../tmk_core/protocol/lufa/LUFA-git/LUFA/Drivers/USB/Core/AVR8/../AVR8/../AVR8/En
   1:../../../../tmk_core/protocol/lufa/LUFA-git/LUFA/Drivers/USB/Core/AVR8/../AVR8/../AVR8/Endpoint_AVR8.h **** /*
   2:../../../../tmk_core/protocol/lufa/LUFA-git/LUFA/Drivers/USB/Core/AVR8/../AVR8/../AVR8/Endpoint_AVR8.h ****              LUFA Library
   3:../../../../tmk_core/protocol/lufa/LUFA-git/LUFA/Drivers/USB/Core/AVR8/../AVR8/../AVR8/Endpoint_AVR8.h ****      Copyright (C) Dean Camera, 2014.
   4:../../../../tmk_core/protocol/lufa/LUFA-git/LUFA/Drivers/USB/Core/AVR8/../AVR8/../AVR8/Endpoint_AVR8.h **** 
   5:../../../../tmk_core/protocol/lufa/LUFA-git/LUFA/Drivers/USB/Core/AVR8/../AVR8/../AVR8/Endpoint_AVR8.h ****   dean [at] fourwalledcubicle [dot] com
   6:../../../../tmk_core/protocol/lufa/LUFA-git/LUFA/Drivers/USB/Core/AVR8/../AVR8/../AVR8/Endpoint_AVR8.h ****            www.lufa-lib.org
   7:../../../../tmk_core/protocol/lufa/LUFA-git/LUFA/Drivers/USB/Core/AVR8/../AVR8/../AVR8/Endpoint_AVR8.h **** */
   8:../../../../tmk_core/protocol/lufa/LUFA-git/LUFA/Drivers/USB/Core/AVR8/../AVR8/../AVR8/Endpoint_AVR8.h **** 
   9:../../../../tmk_core/protocol/lufa/LUFA-git/LUFA/Drivers/USB/Core/AVR8/../AVR8/../AVR8/Endpoint_AVR8.h **** /*
  10:../../../../tmk_core/protocol/lufa/LUFA-git/LUFA/Drivers/USB/Core/AVR8/../AVR8/../AVR8/Endpoint_AVR8.h ****   Copyright 2014  Dean Camera (dean [at] fourwalledcubicle [dot] com)
  11:../../../../tmk_core/protocol/lufa/LUFA-git/LUFA/Drivers/USB/Core/AVR8/../AVR8/../AVR8/Endpoint_AVR8.h **** 
  12:../../../../tmk_core/protocol/lufa/LUFA-git/LUFA/Drivers/USB/Core/AVR8/../AVR8/../AVR8/Endpoint_AVR8.h ****   Permission to use, copy, modify, distribute, and sell this
  13:../../../../tmk_core/protocol/lufa/LUFA-git/LUFA/Drivers/USB/Core/AVR8/../AVR8/../AVR8/Endpoint_AVR8.h ****   software and its documentation for any purpose is hereby granted
  14:../../../../tmk_core/protocol/lufa/LUFA-git/LUFA/Drivers/USB/Core/AVR8/../AVR8/../AVR8/Endpoint_AVR8.h ****   without fee, provided that the above copyright notice appear in
  15:../../../../tmk_core/protocol/lufa/LUFA-git/LUFA/Drivers/USB/Core/AVR8/../AVR8/../AVR8/Endpoint_AVR8.h ****   all copies and that both that the copyright notice and this
  16:../../../../tmk_core/protocol/lufa/LUFA-git/LUFA/Drivers/USB/Core/AVR8/../AVR8/../AVR8/Endpoint_AVR8.h ****   permission notice and warranty disclaimer appear in supporting
  17:../../../../tmk_core/protocol/lufa/LUFA-git/LUFA/Drivers/USB/Core/AVR8/../AVR8/../AVR8/Endpoint_AVR8.h ****   documentation, and that the name of the author not be used in
  18:../../../../tmk_core/protocol/lufa/LUFA-git/LUFA/Drivers/USB/Core/AVR8/../AVR8/../AVR8/Endpoint_AVR8.h ****   advertising or publicity pertaining to distribution of the
  19:../../../../tmk_core/protocol/lufa/LUFA-git/LUFA/Drivers/USB/Core/AVR8/../AVR8/../AVR8/Endpoint_AVR8.h ****   software without specific, written prior permission.
  20:../../../../tmk_core/protocol/lufa/LUFA-git/LUFA/Drivers/USB/Core/AVR8/../AVR8/../AVR8/Endpoint_AVR8.h **** 
  21:../../../../tmk_core/protocol/lufa/LUFA-git/LUFA/Drivers/USB/Core/AVR8/../AVR8/../AVR8/Endpoint_AVR8.h ****   The author disclaims all warranties with regard to this
  22:../../../../tmk_core/protocol/lufa/LUFA-git/LUFA/Drivers/USB/Core/AVR8/../AVR8/../AVR8/Endpoint_AVR8.h ****   software, including all implied warranties of merchantability
  23:../../../../tmk_core/protocol/lufa/LUFA-git/LUFA/Drivers/USB/Core/AVR8/../AVR8/../AVR8/Endpoint_AVR8.h ****   and fitness.  In no event shall the author be liable for any
  24:../../../../tmk_core/protocol/lufa/LUFA-git/LUFA/Drivers/USB/Core/AVR8/../AVR8/../AVR8/Endpoint_AVR8.h ****   special, indirect or consequential damages or any damages
  25:../../../../tmk_core/protocol/lufa/LUFA-git/LUFA/Drivers/USB/Core/AVR8/../AVR8/../AVR8/Endpoint_AVR8.h ****   whatsoever resulting from loss of use, data or profits, whether
  26:../../../../tmk_core/protocol/lufa/LUFA-git/LUFA/Drivers/USB/Core/AVR8/../AVR8/../AVR8/Endpoint_AVR8.h ****   in an action of contract, negligence or other tortious action,
  27:../../../../tmk_core/protocol/lufa/LUFA-git/LUFA/Drivers/USB/Core/AVR8/../AVR8/../AVR8/Endpoint_AVR8.h ****   arising out of or in connection with the use or performance of
  28:../../../../tmk_core/protocol/lufa/LUFA-git/LUFA/Drivers/USB/Core/AVR8/../AVR8/../AVR8/Endpoint_AVR8.h ****   this software.
  29:../../../../tmk_core/protocol/lufa/LUFA-git/LUFA/Drivers/USB/Core/AVR8/../AVR8/../AVR8/Endpoint_AVR8.h **** */
  30:../../../../tmk_core/protocol/lufa/LUFA-git/LUFA/Drivers/USB/Core/AVR8/../AVR8/../AVR8/Endpoint_AVR8.h **** 
  31:../../../../tmk_core/protocol/lufa/LUFA-git/LUFA/Drivers/USB/Core/AVR8/../AVR8/../AVR8/Endpoint_AVR8.h **** /** \file
  32:../../../../tmk_core/protocol/lufa/LUFA-git/LUFA/Drivers/USB/Core/AVR8/../AVR8/../AVR8/Endpoint_AVR8.h ****  *  \brief USB Endpoint definitions for the AVR8 microcontrollers.
  33:../../../../tmk_core/protocol/lufa/LUFA-git/LUFA/Drivers/USB/Core/AVR8/../AVR8/../AVR8/Endpoint_AVR8.h ****  *  \copydetails Group_EndpointManagement_AVR8
  34:../../../../tmk_core/protocol/lufa/LUFA-git/LUFA/Drivers/USB/Core/AVR8/../AVR8/../AVR8/Endpoint_AVR8.h ****  *
  35:../../../../tmk_core/protocol/lufa/LUFA-git/LUFA/Drivers/USB/Core/AVR8/../AVR8/../AVR8/Endpoint_AVR8.h ****  *  \note This file should not be included directly. It is automatically included as needed by the 
  36:../../../../tmk_core/protocol/lufa/LUFA-git/LUFA/Drivers/USB/Core/AVR8/../AVR8/../AVR8/Endpoint_AVR8.h ****  *        dispatch header located in LUFA/Drivers/USB/USB.h.
  37:../../../../tmk_core/protocol/lufa/LUFA-git/LUFA/Drivers/USB/Core/AVR8/../AVR8/../AVR8/Endpoint_AVR8.h ****  */
  38:../../../../tmk_core/protocol/lufa/LUFA-git/LUFA/Drivers/USB/Core/AVR8/../AVR8/../AVR8/Endpoint_AVR8.h **** 
  39:../../../../tmk_core/protocol/lufa/LUFA-git/LUFA/Drivers/USB/Core/AVR8/../AVR8/../AVR8/Endpoint_AVR8.h **** /** \ingroup Group_EndpointRW
  40:../../../../tmk_core/protocol/lufa/LUFA-git/LUFA/Drivers/USB/Core/AVR8/../AVR8/../AVR8/Endpoint_AVR8.h ****  *  \defgroup Group_EndpointRW_AVR8 Endpoint Data Reading and Writing (AVR8)
  41:../../../../tmk_core/protocol/lufa/LUFA-git/LUFA/Drivers/USB/Core/AVR8/../AVR8/../AVR8/Endpoint_AVR8.h ****  *  \brief Endpoint data read/write definitions for the Atmel AVR8 architecture.
  42:../../../../tmk_core/protocol/lufa/LUFA-git/LUFA/Drivers/USB/Core/AVR8/../AVR8/../AVR8/Endpoint_AVR8.h ****  *
  43:../../../../tmk_core/protocol/lufa/LUFA-git/LUFA/Drivers/USB/Core/AVR8/../AVR8/../AVR8/Endpoint_AVR8.h ****  *  Functions, macros, variables, enums and types related to data reading and writing from and to e
  44:../../../../tmk_core/protocol/lufa/LUFA-git/LUFA/Drivers/USB/Core/AVR8/../AVR8/../AVR8/Endpoint_AVR8.h ****  */
  45:../../../../tmk_core/protocol/lufa/LUFA-git/LUFA/Drivers/USB/Core/AVR8/../AVR8/../AVR8/Endpoint_AVR8.h **** 
  46:../../../../tmk_core/protocol/lufa/LUFA-git/LUFA/Drivers/USB/Core/AVR8/../AVR8/../AVR8/Endpoint_AVR8.h **** /** \ingroup Group_EndpointPrimitiveRW
  47:../../../../tmk_core/protocol/lufa/LUFA-git/LUFA/Drivers/USB/Core/AVR8/../AVR8/../AVR8/Endpoint_AVR8.h ****  *  \defgroup Group_EndpointPrimitiveRW_AVR8 Read/Write of Primitive Data Types (AVR8)
  48:../../../../tmk_core/protocol/lufa/LUFA-git/LUFA/Drivers/USB/Core/AVR8/../AVR8/../AVR8/Endpoint_AVR8.h ****  *  \brief Endpoint primitive read/write definitions for the Atmel AVR8 architecture.
  49:../../../../tmk_core/protocol/lufa/LUFA-git/LUFA/Drivers/USB/Core/AVR8/../AVR8/../AVR8/Endpoint_AVR8.h ****  *
  50:../../../../tmk_core/protocol/lufa/LUFA-git/LUFA/Drivers/USB/Core/AVR8/../AVR8/../AVR8/Endpoint_AVR8.h ****  *  Functions, macros, variables, enums and types related to data reading and writing of primitive 
  51:../../../../tmk_core/protocol/lufa/LUFA-git/LUFA/Drivers/USB/Core/AVR8/../AVR8/../AVR8/Endpoint_AVR8.h ****  *  from and to endpoints.
  52:../../../../tmk_core/protocol/lufa/LUFA-git/LUFA/Drivers/USB/Core/AVR8/../AVR8/../AVR8/Endpoint_AVR8.h ****  */
  53:../../../../tmk_core/protocol/lufa/LUFA-git/LUFA/Drivers/USB/Core/AVR8/../AVR8/../AVR8/Endpoint_AVR8.h **** 
  54:../../../../tmk_core/protocol/lufa/LUFA-git/LUFA/Drivers/USB/Core/AVR8/../AVR8/../AVR8/Endpoint_AVR8.h **** /** \ingroup Group_EndpointPacketManagement
  55:../../../../tmk_core/protocol/lufa/LUFA-git/LUFA/Drivers/USB/Core/AVR8/../AVR8/../AVR8/Endpoint_AVR8.h ****  *  \defgroup Group_EndpointPacketManagement_AVR8 Endpoint Packet Management (AVR8)
  56:../../../../tmk_core/protocol/lufa/LUFA-git/LUFA/Drivers/USB/Core/AVR8/../AVR8/../AVR8/Endpoint_AVR8.h ****  *  \brief Endpoint packet management definitions for the Atmel AVR8 architecture.
  57:../../../../tmk_core/protocol/lufa/LUFA-git/LUFA/Drivers/USB/Core/AVR8/../AVR8/../AVR8/Endpoint_AVR8.h ****  *
  58:../../../../tmk_core/protocol/lufa/LUFA-git/LUFA/Drivers/USB/Core/AVR8/../AVR8/../AVR8/Endpoint_AVR8.h ****  *  Functions, macros, variables, enums and types related to packet management of endpoints.
  59:../../../../tmk_core/protocol/lufa/LUFA-git/LUFA/Drivers/USB/Core/AVR8/../AVR8/../AVR8/Endpoint_AVR8.h ****  */
  60:../../../../tmk_core/protocol/lufa/LUFA-git/LUFA/Drivers/USB/Core/AVR8/../AVR8/../AVR8/Endpoint_AVR8.h **** 
  61:../../../../tmk_core/protocol/lufa/LUFA-git/LUFA/Drivers/USB/Core/AVR8/../AVR8/../AVR8/Endpoint_AVR8.h **** /** \ingroup Group_EndpointManagement
  62:../../../../tmk_core/protocol/lufa/LUFA-git/LUFA/Drivers/USB/Core/AVR8/../AVR8/../AVR8/Endpoint_AVR8.h ****  *  \defgroup Group_EndpointManagement_AVR8 Endpoint Management (AVR8)
  63:../../../../tmk_core/protocol/lufa/LUFA-git/LUFA/Drivers/USB/Core/AVR8/../AVR8/../AVR8/Endpoint_AVR8.h ****  *  \brief Endpoint management definitions for the Atmel AVR8 architecture.
  64:../../../../tmk_core/protocol/lufa/LUFA-git/LUFA/Drivers/USB/Core/AVR8/../AVR8/../AVR8/Endpoint_AVR8.h ****  *
  65:../../../../tmk_core/protocol/lufa/LUFA-git/LUFA/Drivers/USB/Core/AVR8/../AVR8/../AVR8/Endpoint_AVR8.h ****  *  Functions, macros and enums related to endpoint management when in USB Device mode. This
  66:../../../../tmk_core/protocol/lufa/LUFA-git/LUFA/Drivers/USB/Core/AVR8/../AVR8/../AVR8/Endpoint_AVR8.h ****  *  module contains the endpoint management macros, as well as endpoint interrupt and data
  67:../../../../tmk_core/protocol/lufa/LUFA-git/LUFA/Drivers/USB/Core/AVR8/../AVR8/../AVR8/Endpoint_AVR8.h ****  *  send/receive functions for various data types.
  68:../../../../tmk_core/protocol/lufa/LUFA-git/LUFA/Drivers/USB/Core/AVR8/../AVR8/../AVR8/Endpoint_AVR8.h ****  *
  69:../../../../tmk_core/protocol/lufa/LUFA-git/LUFA/Drivers/USB/Core/AVR8/../AVR8/../AVR8/Endpoint_AVR8.h ****  *  @{
  70:../../../../tmk_core/protocol/lufa/LUFA-git/LUFA/Drivers/USB/Core/AVR8/../AVR8/../AVR8/Endpoint_AVR8.h ****  */
  71:../../../../tmk_core/protocol/lufa/LUFA-git/LUFA/Drivers/USB/Core/AVR8/../AVR8/../AVR8/Endpoint_AVR8.h **** 
  72:../../../../tmk_core/protocol/lufa/LUFA-git/LUFA/Drivers/USB/Core/AVR8/../AVR8/../AVR8/Endpoint_AVR8.h **** #ifndef __ENDPOINT_AVR8_H__
  73:../../../../tmk_core/protocol/lufa/LUFA-git/LUFA/Drivers/USB/Core/AVR8/../AVR8/../AVR8/Endpoint_AVR8.h **** #define __ENDPOINT_AVR8_H__
  74:../../../../tmk_core/protocol/lufa/LUFA-git/LUFA/Drivers/USB/Core/AVR8/../AVR8/../AVR8/Endpoint_AVR8.h **** 
  75:../../../../tmk_core/protocol/lufa/LUFA-git/LUFA/Drivers/USB/Core/AVR8/../AVR8/../AVR8/Endpoint_AVR8.h **** 	/* Includes: */
  76:../../../../tmk_core/protocol/lufa/LUFA-git/LUFA/Drivers/USB/Core/AVR8/../AVR8/../AVR8/Endpoint_AVR8.h **** 		#include "../../../../Common/Common.h"
  77:../../../../tmk_core/protocol/lufa/LUFA-git/LUFA/Drivers/USB/Core/AVR8/../AVR8/../AVR8/Endpoint_AVR8.h **** 		#include "../USBTask.h"
  78:../../../../tmk_core/protocol/lufa/LUFA-git/LUFA/Drivers/USB/Core/AVR8/../AVR8/../AVR8/Endpoint_AVR8.h **** 		#include "../USBInterrupt.h"
  79:../../../../tmk_core/protocol/lufa/LUFA-git/LUFA/Drivers/USB/Core/AVR8/../AVR8/../AVR8/Endpoint_AVR8.h **** 
  80:../../../../tmk_core/protocol/lufa/LUFA-git/LUFA/Drivers/USB/Core/AVR8/../AVR8/../AVR8/Endpoint_AVR8.h **** 	/* Enable C linkage for C++ Compilers: */
  81:../../../../tmk_core/protocol/lufa/LUFA-git/LUFA/Drivers/USB/Core/AVR8/../AVR8/../AVR8/Endpoint_AVR8.h **** 		#if defined(__cplusplus)
  82:../../../../tmk_core/protocol/lufa/LUFA-git/LUFA/Drivers/USB/Core/AVR8/../AVR8/../AVR8/Endpoint_AVR8.h **** 			extern "C" {
  83:../../../../tmk_core/protocol/lufa/LUFA-git/LUFA/Drivers/USB/Core/AVR8/../AVR8/../AVR8/Endpoint_AVR8.h **** 		#endif
  84:../../../../tmk_core/protocol/lufa/LUFA-git/LUFA/Drivers/USB/Core/AVR8/../AVR8/../AVR8/Endpoint_AVR8.h **** 
  85:../../../../tmk_core/protocol/lufa/LUFA-git/LUFA/Drivers/USB/Core/AVR8/../AVR8/../AVR8/Endpoint_AVR8.h **** 	/* Preprocessor Checks: */
  86:../../../../tmk_core/protocol/lufa/LUFA-git/LUFA/Drivers/USB/Core/AVR8/../AVR8/../AVR8/Endpoint_AVR8.h **** 		#if !defined(__INCLUDE_FROM_USB_DRIVER)
  87:../../../../tmk_core/protocol/lufa/LUFA-git/LUFA/Drivers/USB/Core/AVR8/../AVR8/../AVR8/Endpoint_AVR8.h **** 			#error Do not include this file directly. Include LUFA/Drivers/USB/USB.h instead.
  88:../../../../tmk_core/protocol/lufa/LUFA-git/LUFA/Drivers/USB/Core/AVR8/../AVR8/../AVR8/Endpoint_AVR8.h **** 		#endif
  89:../../../../tmk_core/protocol/lufa/LUFA-git/LUFA/Drivers/USB/Core/AVR8/../AVR8/../AVR8/Endpoint_AVR8.h **** 
  90:../../../../tmk_core/protocol/lufa/LUFA-git/LUFA/Drivers/USB/Core/AVR8/../AVR8/../AVR8/Endpoint_AVR8.h **** 	/* Private Interface - For use in library only: */
  91:../../../../tmk_core/protocol/lufa/LUFA-git/LUFA/Drivers/USB/Core/AVR8/../AVR8/../AVR8/Endpoint_AVR8.h **** 	#if !defined(__DOXYGEN__)
  92:../../../../tmk_core/protocol/lufa/LUFA-git/LUFA/Drivers/USB/Core/AVR8/../AVR8/../AVR8/Endpoint_AVR8.h **** 		/* Inline Functions: */
  93:../../../../tmk_core/protocol/lufa/LUFA-git/LUFA/Drivers/USB/Core/AVR8/../AVR8/../AVR8/Endpoint_AVR8.h **** 			static inline uint8_t Endpoint_BytesToEPSizeMask(const uint16_t Bytes) ATTR_WARN_UNUSED_RESULT A
  94:../../../../tmk_core/protocol/lufa/LUFA-git/LUFA/Drivers/USB/Core/AVR8/../AVR8/../AVR8/Endpoint_AVR8.h **** 			                                                                       ATTR_ALWAYS_INLINE;
  95:../../../../tmk_core/protocol/lufa/LUFA-git/LUFA/Drivers/USB/Core/AVR8/../AVR8/../AVR8/Endpoint_AVR8.h **** 			static inline uint8_t Endpoint_BytesToEPSizeMask(const uint16_t Bytes)
  96:../../../../tmk_core/protocol/lufa/LUFA-git/LUFA/Drivers/USB/Core/AVR8/../AVR8/../AVR8/Endpoint_AVR8.h **** 			{
  97:../../../../tmk_core/protocol/lufa/LUFA-git/LUFA/Drivers/USB/Core/AVR8/../AVR8/../AVR8/Endpoint_AVR8.h **** 				uint8_t  MaskVal    = 0;
  98:../../../../tmk_core/protocol/lufa/LUFA-git/LUFA/Drivers/USB/Core/AVR8/../AVR8/../AVR8/Endpoint_AVR8.h **** 				uint16_t CheckBytes = 8;
  99:../../../../tmk_core/protocol/lufa/LUFA-git/LUFA/Drivers/USB/Core/AVR8/../AVR8/../AVR8/Endpoint_AVR8.h **** 
 100:../../../../tmk_core/protocol/lufa/LUFA-git/LUFA/Drivers/USB/Core/AVR8/../AVR8/../AVR8/Endpoint_AVR8.h **** 				while (CheckBytes < Bytes)
 101:../../../../tmk_core/protocol/lufa/LUFA-git/LUFA/Drivers/USB/Core/AVR8/../AVR8/../AVR8/Endpoint_AVR8.h **** 				{
 102:../../../../tmk_core/protocol/lufa/LUFA-git/LUFA/Drivers/USB/Core/AVR8/../AVR8/../AVR8/Endpoint_AVR8.h **** 					MaskVal++;
 103:../../../../tmk_core/protocol/lufa/LUFA-git/LUFA/Drivers/USB/Core/AVR8/../AVR8/../AVR8/Endpoint_AVR8.h **** 					CheckBytes <<= 1;
 104:../../../../tmk_core/protocol/lufa/LUFA-git/LUFA/Drivers/USB/Core/AVR8/../AVR8/../AVR8/Endpoint_AVR8.h **** 				}
 105:../../../../tmk_core/protocol/lufa/LUFA-git/LUFA/Drivers/USB/Core/AVR8/../AVR8/../AVR8/Endpoint_AVR8.h **** 
 106:../../../../tmk_core/protocol/lufa/LUFA-git/LUFA/Drivers/USB/Core/AVR8/../AVR8/../AVR8/Endpoint_AVR8.h **** 				return (MaskVal << EPSIZE0);
 107:../../../../tmk_core/protocol/lufa/LUFA-git/LUFA/Drivers/USB/Core/AVR8/../AVR8/../AVR8/Endpoint_AVR8.h **** 			}
 108:../../../../tmk_core/protocol/lufa/LUFA-git/LUFA/Drivers/USB/Core/AVR8/../AVR8/../AVR8/Endpoint_AVR8.h **** 
 109:../../../../tmk_core/protocol/lufa/LUFA-git/LUFA/Drivers/USB/Core/AVR8/../AVR8/../AVR8/Endpoint_AVR8.h **** 		/* Function Prototypes: */
 110:../../../../tmk_core/protocol/lufa/LUFA-git/LUFA/Drivers/USB/Core/AVR8/../AVR8/../AVR8/Endpoint_AVR8.h **** 			void Endpoint_ClearEndpoints(void);
 111:../../../../tmk_core/protocol/lufa/LUFA-git/LUFA/Drivers/USB/Core/AVR8/../AVR8/../AVR8/Endpoint_AVR8.h **** 			bool Endpoint_ConfigureEndpoint_Prv(const uint8_t Number,
 112:../../../../tmk_core/protocol/lufa/LUFA-git/LUFA/Drivers/USB/Core/AVR8/../AVR8/../AVR8/Endpoint_AVR8.h **** 			                                    const uint8_t UECFG0XData,
 113:../../../../tmk_core/protocol/lufa/LUFA-git/LUFA/Drivers/USB/Core/AVR8/../AVR8/../AVR8/Endpoint_AVR8.h **** 			                                    const uint8_t UECFG1XData);
 114:../../../../tmk_core/protocol/lufa/LUFA-git/LUFA/Drivers/USB/Core/AVR8/../AVR8/../AVR8/Endpoint_AVR8.h **** 
 115:../../../../tmk_core/protocol/lufa/LUFA-git/LUFA/Drivers/USB/Core/AVR8/../AVR8/../AVR8/Endpoint_AVR8.h **** 	#endif
 116:../../../../tmk_core/protocol/lufa/LUFA-git/LUFA/Drivers/USB/Core/AVR8/../AVR8/../AVR8/Endpoint_AVR8.h **** 
 117:../../../../tmk_core/protocol/lufa/LUFA-git/LUFA/Drivers/USB/Core/AVR8/../AVR8/../AVR8/Endpoint_AVR8.h **** 	/* Public Interface - May be used in end-application: */
 118:../../../../tmk_core/protocol/lufa/LUFA-git/LUFA/Drivers/USB/Core/AVR8/../AVR8/../AVR8/Endpoint_AVR8.h **** 		/* Macros: */
 119:../../../../tmk_core/protocol/lufa/LUFA-git/LUFA/Drivers/USB/Core/AVR8/../AVR8/../AVR8/Endpoint_AVR8.h **** 			#if (!defined(FIXED_CONTROL_ENDPOINT_SIZE) || defined(__DOXYGEN__))
 120:../../../../tmk_core/protocol/lufa/LUFA-git/LUFA/Drivers/USB/Core/AVR8/../AVR8/../AVR8/Endpoint_AVR8.h **** 				/** Default size of the default control endpoint's bank, until altered by the control endpoint 
 121:../../../../tmk_core/protocol/lufa/LUFA-git/LUFA/Drivers/USB/Core/AVR8/../AVR8/../AVR8/Endpoint_AVR8.h **** 				 *  value in the device descriptor. Not available if the \c FIXED_CONTROL_ENDPOINT_SIZE token i
 122:../../../../tmk_core/protocol/lufa/LUFA-git/LUFA/Drivers/USB/Core/AVR8/../AVR8/../AVR8/Endpoint_AVR8.h **** 				 */
 123:../../../../tmk_core/protocol/lufa/LUFA-git/LUFA/Drivers/USB/Core/AVR8/../AVR8/../AVR8/Endpoint_AVR8.h **** 				#define ENDPOINT_CONTROLEP_DEFAULT_SIZE     8
 124:../../../../tmk_core/protocol/lufa/LUFA-git/LUFA/Drivers/USB/Core/AVR8/../AVR8/../AVR8/Endpoint_AVR8.h **** 			#endif
 125:../../../../tmk_core/protocol/lufa/LUFA-git/LUFA/Drivers/USB/Core/AVR8/../AVR8/../AVR8/Endpoint_AVR8.h **** 
 126:../../../../tmk_core/protocol/lufa/LUFA-git/LUFA/Drivers/USB/Core/AVR8/../AVR8/../AVR8/Endpoint_AVR8.h **** 			#if !defined(CONTROL_ONLY_DEVICE) || defined(__DOXYGEN__)
 127:../../../../tmk_core/protocol/lufa/LUFA-git/LUFA/Drivers/USB/Core/AVR8/../AVR8/../AVR8/Endpoint_AVR8.h **** 				#if defined(USB_SERIES_4_AVR) || defined(USB_SERIES_6_AVR) || defined(USB_SERIES_7_AVR) || defi
 128:../../../../tmk_core/protocol/lufa/LUFA-git/LUFA/Drivers/USB/Core/AVR8/../AVR8/../AVR8/Endpoint_AVR8.h **** 					/** Total number of endpoints (including the default control endpoint at address 0) which may
 129:../../../../tmk_core/protocol/lufa/LUFA-git/LUFA/Drivers/USB/Core/AVR8/../AVR8/../AVR8/Endpoint_AVR8.h **** 					 *  be used in the device. Different USB AVR models support different amounts of endpoints,
 130:../../../../tmk_core/protocol/lufa/LUFA-git/LUFA/Drivers/USB/Core/AVR8/../AVR8/../AVR8/Endpoint_AVR8.h **** 					 *  this value reflects the maximum number of endpoints for the currently selected AVR model.
 131:../../../../tmk_core/protocol/lufa/LUFA-git/LUFA/Drivers/USB/Core/AVR8/../AVR8/../AVR8/Endpoint_AVR8.h **** 					 */
 132:../../../../tmk_core/protocol/lufa/LUFA-git/LUFA/Drivers/USB/Core/AVR8/../AVR8/../AVR8/Endpoint_AVR8.h **** 					#define ENDPOINT_TOTAL_ENDPOINTS        7
 133:../../../../tmk_core/protocol/lufa/LUFA-git/LUFA/Drivers/USB/Core/AVR8/../AVR8/../AVR8/Endpoint_AVR8.h **** 				#else
 134:../../../../tmk_core/protocol/lufa/LUFA-git/LUFA/Drivers/USB/Core/AVR8/../AVR8/../AVR8/Endpoint_AVR8.h **** 					#define ENDPOINT_TOTAL_ENDPOINTS        5
 135:../../../../tmk_core/protocol/lufa/LUFA-git/LUFA/Drivers/USB/Core/AVR8/../AVR8/../AVR8/Endpoint_AVR8.h **** 				#endif
 136:../../../../tmk_core/protocol/lufa/LUFA-git/LUFA/Drivers/USB/Core/AVR8/../AVR8/../AVR8/Endpoint_AVR8.h **** 			#else
 137:../../../../tmk_core/protocol/lufa/LUFA-git/LUFA/Drivers/USB/Core/AVR8/../AVR8/../AVR8/Endpoint_AVR8.h **** 				#define ENDPOINT_TOTAL_ENDPOINTS            1
 138:../../../../tmk_core/protocol/lufa/LUFA-git/LUFA/Drivers/USB/Core/AVR8/../AVR8/../AVR8/Endpoint_AVR8.h **** 			#endif
 139:../../../../tmk_core/protocol/lufa/LUFA-git/LUFA/Drivers/USB/Core/AVR8/../AVR8/../AVR8/Endpoint_AVR8.h **** 
 140:../../../../tmk_core/protocol/lufa/LUFA-git/LUFA/Drivers/USB/Core/AVR8/../AVR8/../AVR8/Endpoint_AVR8.h **** 		/* Enums: */
 141:../../../../tmk_core/protocol/lufa/LUFA-git/LUFA/Drivers/USB/Core/AVR8/../AVR8/../AVR8/Endpoint_AVR8.h **** 			/** Enum for the possible error return codes of the \ref Endpoint_WaitUntilReady() function.
 142:../../../../tmk_core/protocol/lufa/LUFA-git/LUFA/Drivers/USB/Core/AVR8/../AVR8/../AVR8/Endpoint_AVR8.h **** 			 *
 143:../../../../tmk_core/protocol/lufa/LUFA-git/LUFA/Drivers/USB/Core/AVR8/../AVR8/../AVR8/Endpoint_AVR8.h **** 			 *  \ingroup Group_EndpointRW_AVR8
 144:../../../../tmk_core/protocol/lufa/LUFA-git/LUFA/Drivers/USB/Core/AVR8/../AVR8/../AVR8/Endpoint_AVR8.h **** 			 */
 145:../../../../tmk_core/protocol/lufa/LUFA-git/LUFA/Drivers/USB/Core/AVR8/../AVR8/../AVR8/Endpoint_AVR8.h **** 			enum Endpoint_WaitUntilReady_ErrorCodes_t
 146:../../../../tmk_core/protocol/lufa/LUFA-git/LUFA/Drivers/USB/Core/AVR8/../AVR8/../AVR8/Endpoint_AVR8.h **** 			{
 147:../../../../tmk_core/protocol/lufa/LUFA-git/LUFA/Drivers/USB/Core/AVR8/../AVR8/../AVR8/Endpoint_AVR8.h **** 				ENDPOINT_READYWAIT_NoError                 = 0, /**< Endpoint is ready for next packet, no erro
 148:../../../../tmk_core/protocol/lufa/LUFA-git/LUFA/Drivers/USB/Core/AVR8/../AVR8/../AVR8/Endpoint_AVR8.h **** 				ENDPOINT_READYWAIT_EndpointStalled         = 1, /**< The endpoint was stalled during the stream
 149:../../../../tmk_core/protocol/lufa/LUFA-git/LUFA/Drivers/USB/Core/AVR8/../AVR8/../AVR8/Endpoint_AVR8.h **** 				                                                 *   transfer by the host or device.
 150:../../../../tmk_core/protocol/lufa/LUFA-git/LUFA/Drivers/USB/Core/AVR8/../AVR8/../AVR8/Endpoint_AVR8.h **** 				                                                 */
 151:../../../../tmk_core/protocol/lufa/LUFA-git/LUFA/Drivers/USB/Core/AVR8/../AVR8/../AVR8/Endpoint_AVR8.h **** 				ENDPOINT_READYWAIT_DeviceDisconnected      = 2,	/**< Device was disconnected from the host whil
 152:../../../../tmk_core/protocol/lufa/LUFA-git/LUFA/Drivers/USB/Core/AVR8/../AVR8/../AVR8/Endpoint_AVR8.h **** 				                                                 *   waiting for the endpoint to become ready.
 153:../../../../tmk_core/protocol/lufa/LUFA-git/LUFA/Drivers/USB/Core/AVR8/../AVR8/../AVR8/Endpoint_AVR8.h **** 				                                                 */
 154:../../../../tmk_core/protocol/lufa/LUFA-git/LUFA/Drivers/USB/Core/AVR8/../AVR8/../AVR8/Endpoint_AVR8.h **** 				ENDPOINT_READYWAIT_BusSuspended            = 3, /**< The USB bus has been suspended by the host
 155:../../../../tmk_core/protocol/lufa/LUFA-git/LUFA/Drivers/USB/Core/AVR8/../AVR8/../AVR8/Endpoint_AVR8.h **** 				                                                 *   no USB endpoint traffic can occur until th
 156:../../../../tmk_core/protocol/lufa/LUFA-git/LUFA/Drivers/USB/Core/AVR8/../AVR8/../AVR8/Endpoint_AVR8.h **** 				                                                 *   has resumed.
 157:../../../../tmk_core/protocol/lufa/LUFA-git/LUFA/Drivers/USB/Core/AVR8/../AVR8/../AVR8/Endpoint_AVR8.h **** 				                                                 */
 158:../../../../tmk_core/protocol/lufa/LUFA-git/LUFA/Drivers/USB/Core/AVR8/../AVR8/../AVR8/Endpoint_AVR8.h **** 				ENDPOINT_READYWAIT_Timeout                 = 4, /**< The host failed to accept or send the next
 159:../../../../tmk_core/protocol/lufa/LUFA-git/LUFA/Drivers/USB/Core/AVR8/../AVR8/../AVR8/Endpoint_AVR8.h **** 				                                                 *   within the software timeout period set by 
 160:../../../../tmk_core/protocol/lufa/LUFA-git/LUFA/Drivers/USB/Core/AVR8/../AVR8/../AVR8/Endpoint_AVR8.h **** 				                                                 *   \ref USB_STREAM_TIMEOUT_MS macro.
 161:../../../../tmk_core/protocol/lufa/LUFA-git/LUFA/Drivers/USB/Core/AVR8/../AVR8/../AVR8/Endpoint_AVR8.h **** 				                                                 */
 162:../../../../tmk_core/protocol/lufa/LUFA-git/LUFA/Drivers/USB/Core/AVR8/../AVR8/../AVR8/Endpoint_AVR8.h **** 			};
 163:../../../../tmk_core/protocol/lufa/LUFA-git/LUFA/Drivers/USB/Core/AVR8/../AVR8/../AVR8/Endpoint_AVR8.h **** 
 164:../../../../tmk_core/protocol/lufa/LUFA-git/LUFA/Drivers/USB/Core/AVR8/../AVR8/../AVR8/Endpoint_AVR8.h **** 		/* Inline Functions: */
 165:../../../../tmk_core/protocol/lufa/LUFA-git/LUFA/Drivers/USB/Core/AVR8/../AVR8/../AVR8/Endpoint_AVR8.h **** 			/** Configures the specified endpoint address with the given endpoint type, bank size and number
 166:../../../../tmk_core/protocol/lufa/LUFA-git/LUFA/Drivers/USB/Core/AVR8/../AVR8/../AVR8/Endpoint_AVR8.h **** 			 *  banks. Once configured, the endpoint may be read from or written to, depending on its direct
 167:../../../../tmk_core/protocol/lufa/LUFA-git/LUFA/Drivers/USB/Core/AVR8/../AVR8/../AVR8/Endpoint_AVR8.h **** 			 *
 168:../../../../tmk_core/protocol/lufa/LUFA-git/LUFA/Drivers/USB/Core/AVR8/../AVR8/../AVR8/Endpoint_AVR8.h **** 			 *  \param[in] Address    Endpoint address to configure.
 169:../../../../tmk_core/protocol/lufa/LUFA-git/LUFA/Drivers/USB/Core/AVR8/../AVR8/../AVR8/Endpoint_AVR8.h **** 			 *
 170:../../../../tmk_core/protocol/lufa/LUFA-git/LUFA/Drivers/USB/Core/AVR8/../AVR8/../AVR8/Endpoint_AVR8.h **** 			 *  \param[in] Type       Type of endpoint to configure, a \c EP_TYPE_* mask. Not all endpoint t
 171:../../../../tmk_core/protocol/lufa/LUFA-git/LUFA/Drivers/USB/Core/AVR8/../AVR8/../AVR8/Endpoint_AVR8.h **** 			 *                        are available on Low Speed USB devices - refer to the USB 2.0 specific
 172:../../../../tmk_core/protocol/lufa/LUFA-git/LUFA/Drivers/USB/Core/AVR8/../AVR8/../AVR8/Endpoint_AVR8.h **** 			 *
 173:../../../../tmk_core/protocol/lufa/LUFA-git/LUFA/Drivers/USB/Core/AVR8/../AVR8/../AVR8/Endpoint_AVR8.h **** 			 *  \param[in] Size       Size of the endpoint's bank, where packets are stored before they are 
 174:../../../../tmk_core/protocol/lufa/LUFA-git/LUFA/Drivers/USB/Core/AVR8/../AVR8/../AVR8/Endpoint_AVR8.h **** 			 *                        to the USB host, or after they have been received from the USB host (d
 175:../../../../tmk_core/protocol/lufa/LUFA-git/LUFA/Drivers/USB/Core/AVR8/../AVR8/../AVR8/Endpoint_AVR8.h **** 			 *                        the endpoint's data direction). The bank size must indicate the maximu
 176:../../../../tmk_core/protocol/lufa/LUFA-git/LUFA/Drivers/USB/Core/AVR8/../AVR8/../AVR8/Endpoint_AVR8.h **** 			 *                        that the endpoint can handle.
 177:../../../../tmk_core/protocol/lufa/LUFA-git/LUFA/Drivers/USB/Core/AVR8/../AVR8/../AVR8/Endpoint_AVR8.h **** 			 *
 178:../../../../tmk_core/protocol/lufa/LUFA-git/LUFA/Drivers/USB/Core/AVR8/../AVR8/../AVR8/Endpoint_AVR8.h **** 			 *  \param[in] Banks      Number of banks to use for the endpoint being configured.
 179:../../../../tmk_core/protocol/lufa/LUFA-git/LUFA/Drivers/USB/Core/AVR8/../AVR8/../AVR8/Endpoint_AVR8.h **** 			 *
 180:../../../../tmk_core/protocol/lufa/LUFA-git/LUFA/Drivers/USB/Core/AVR8/../AVR8/../AVR8/Endpoint_AVR8.h **** 			 *  \attention When the \c ORDERED_EP_CONFIG compile time option is used, Endpoints <b>must</b> 
 181:../../../../tmk_core/protocol/lufa/LUFA-git/LUFA/Drivers/USB/Core/AVR8/../AVR8/../AVR8/Endpoint_AVR8.h **** 			 *             ascending order, or bank corruption will occur.
 182:../../../../tmk_core/protocol/lufa/LUFA-git/LUFA/Drivers/USB/Core/AVR8/../AVR8/../AVR8/Endpoint_AVR8.h **** 			 *
 183:../../../../tmk_core/protocol/lufa/LUFA-git/LUFA/Drivers/USB/Core/AVR8/../AVR8/../AVR8/Endpoint_AVR8.h **** 			 *  \note Different endpoints may have different maximum packet sizes based on the endpoint's in
 184:../../../../tmk_core/protocol/lufa/LUFA-git/LUFA/Drivers/USB/Core/AVR8/../AVR8/../AVR8/Endpoint_AVR8.h **** 			 *        refer to the chosen microcontroller model's datasheet to determine the maximum bank si
 185:../../../../tmk_core/protocol/lufa/LUFA-git/LUFA/Drivers/USB/Core/AVR8/../AVR8/../AVR8/Endpoint_AVR8.h **** 			 *        \n\n
 186:../../../../tmk_core/protocol/lufa/LUFA-git/LUFA/Drivers/USB/Core/AVR8/../AVR8/../AVR8/Endpoint_AVR8.h **** 			 *
 187:../../../../tmk_core/protocol/lufa/LUFA-git/LUFA/Drivers/USB/Core/AVR8/../AVR8/../AVR8/Endpoint_AVR8.h **** 			 *  \note The default control endpoint should not be manually configured by the user application
 188:../../../../tmk_core/protocol/lufa/LUFA-git/LUFA/Drivers/USB/Core/AVR8/../AVR8/../AVR8/Endpoint_AVR8.h **** 			 *        it is automatically configured by the library internally.
 189:../../../../tmk_core/protocol/lufa/LUFA-git/LUFA/Drivers/USB/Core/AVR8/../AVR8/../AVR8/Endpoint_AVR8.h **** 			 *        \n\n
 190:../../../../tmk_core/protocol/lufa/LUFA-git/LUFA/Drivers/USB/Core/AVR8/../AVR8/../AVR8/Endpoint_AVR8.h **** 			 *
 191:../../../../tmk_core/protocol/lufa/LUFA-git/LUFA/Drivers/USB/Core/AVR8/../AVR8/../AVR8/Endpoint_AVR8.h **** 			 *  \note This routine will automatically select the specified endpoint upon success. Upon failu
 192:../../../../tmk_core/protocol/lufa/LUFA-git/LUFA/Drivers/USB/Core/AVR8/../AVR8/../AVR8/Endpoint_AVR8.h **** 			 *        which failed to reconfigure correctly will be selected.
 193:../../../../tmk_core/protocol/lufa/LUFA-git/LUFA/Drivers/USB/Core/AVR8/../AVR8/../AVR8/Endpoint_AVR8.h **** 			 *
 194:../../../../tmk_core/protocol/lufa/LUFA-git/LUFA/Drivers/USB/Core/AVR8/../AVR8/../AVR8/Endpoint_AVR8.h **** 			 *  \return Boolean \c true if the configuration succeeded, \c false otherwise.
 195:../../../../tmk_core/protocol/lufa/LUFA-git/LUFA/Drivers/USB/Core/AVR8/../AVR8/../AVR8/Endpoint_AVR8.h **** 			 */
 196:../../../../tmk_core/protocol/lufa/LUFA-git/LUFA/Drivers/USB/Core/AVR8/../AVR8/../AVR8/Endpoint_AVR8.h **** 			static inline bool Endpoint_ConfigureEndpoint(const uint8_t Address,
 197:../../../../tmk_core/protocol/lufa/LUFA-git/LUFA/Drivers/USB/Core/AVR8/../AVR8/../AVR8/Endpoint_AVR8.h **** 			                                              const uint8_t Type,
 198:../../../../tmk_core/protocol/lufa/LUFA-git/LUFA/Drivers/USB/Core/AVR8/../AVR8/../AVR8/Endpoint_AVR8.h **** 			                                              const uint16_t Size,
 199:../../../../tmk_core/protocol/lufa/LUFA-git/LUFA/Drivers/USB/Core/AVR8/../AVR8/../AVR8/Endpoint_AVR8.h **** 			                                              const uint8_t Banks) ATTR_ALWAYS_INLINE;
 200:../../../../tmk_core/protocol/lufa/LUFA-git/LUFA/Drivers/USB/Core/AVR8/../AVR8/../AVR8/Endpoint_AVR8.h **** 			static inline bool Endpoint_ConfigureEndpoint(const uint8_t Address,
 201:../../../../tmk_core/protocol/lufa/LUFA-git/LUFA/Drivers/USB/Core/AVR8/../AVR8/../AVR8/Endpoint_AVR8.h **** 			                                              const uint8_t Type,
 202:../../../../tmk_core/protocol/lufa/LUFA-git/LUFA/Drivers/USB/Core/AVR8/../AVR8/../AVR8/Endpoint_AVR8.h **** 			                                              const uint16_t Size,
 203:../../../../tmk_core/protocol/lufa/LUFA-git/LUFA/Drivers/USB/Core/AVR8/../AVR8/../AVR8/Endpoint_AVR8.h **** 			                                              const uint8_t Banks)
 204:../../../../tmk_core/protocol/lufa/LUFA-git/LUFA/Drivers/USB/Core/AVR8/../AVR8/../AVR8/Endpoint_AVR8.h **** 			{
 205:../../../../tmk_core/protocol/lufa/LUFA-git/LUFA/Drivers/USB/Core/AVR8/../AVR8/../AVR8/Endpoint_AVR8.h **** 				uint8_t Number = (Address & ENDPOINT_EPNUM_MASK);
 206:../../../../tmk_core/protocol/lufa/LUFA-git/LUFA/Drivers/USB/Core/AVR8/../AVR8/../AVR8/Endpoint_AVR8.h **** 
 207:../../../../tmk_core/protocol/lufa/LUFA-git/LUFA/Drivers/USB/Core/AVR8/../AVR8/../AVR8/Endpoint_AVR8.h **** 				if (Number >= ENDPOINT_TOTAL_ENDPOINTS)
 208:../../../../tmk_core/protocol/lufa/LUFA-git/LUFA/Drivers/USB/Core/AVR8/../AVR8/../AVR8/Endpoint_AVR8.h **** 				  return false;
 209:../../../../tmk_core/protocol/lufa/LUFA-git/LUFA/Drivers/USB/Core/AVR8/../AVR8/../AVR8/Endpoint_AVR8.h **** 
 210:../../../../tmk_core/protocol/lufa/LUFA-git/LUFA/Drivers/USB/Core/AVR8/../AVR8/../AVR8/Endpoint_AVR8.h **** 				return Endpoint_ConfigureEndpoint_Prv(Number,
 211:../../../../tmk_core/protocol/lufa/LUFA-git/LUFA/Drivers/USB/Core/AVR8/../AVR8/../AVR8/Endpoint_AVR8.h **** 				                                      ((Type << EPTYPE0) | ((Address & ENDPOINT_DIR_IN) ? (1 <<
 212:../../../../tmk_core/protocol/lufa/LUFA-git/LUFA/Drivers/USB/Core/AVR8/../AVR8/../AVR8/Endpoint_AVR8.h **** 				                                      ((1 << ALLOC) | ((Banks > 1) ? (1 << EPBK0) : 0) | Endpoi
 213:../../../../tmk_core/protocol/lufa/LUFA-git/LUFA/Drivers/USB/Core/AVR8/../AVR8/../AVR8/Endpoint_AVR8.h **** 			}
 214:../../../../tmk_core/protocol/lufa/LUFA-git/LUFA/Drivers/USB/Core/AVR8/../AVR8/../AVR8/Endpoint_AVR8.h **** 
 215:../../../../tmk_core/protocol/lufa/LUFA-git/LUFA/Drivers/USB/Core/AVR8/../AVR8/../AVR8/Endpoint_AVR8.h **** 			/** Indicates the number of bytes currently stored in the current endpoint's selected bank.
 216:../../../../tmk_core/protocol/lufa/LUFA-git/LUFA/Drivers/USB/Core/AVR8/../AVR8/../AVR8/Endpoint_AVR8.h **** 			 *
 217:../../../../tmk_core/protocol/lufa/LUFA-git/LUFA/Drivers/USB/Core/AVR8/../AVR8/../AVR8/Endpoint_AVR8.h **** 			 *  \ingroup Group_EndpointRW_AVR8
 218:../../../../tmk_core/protocol/lufa/LUFA-git/LUFA/Drivers/USB/Core/AVR8/../AVR8/../AVR8/Endpoint_AVR8.h **** 			 *
 219:../../../../tmk_core/protocol/lufa/LUFA-git/LUFA/Drivers/USB/Core/AVR8/../AVR8/../AVR8/Endpoint_AVR8.h **** 			 *  \return Total number of bytes in the currently selected Endpoint's FIFO buffer.
 220:../../../../tmk_core/protocol/lufa/LUFA-git/LUFA/Drivers/USB/Core/AVR8/../AVR8/../AVR8/Endpoint_AVR8.h **** 			 */
 221:../../../../tmk_core/protocol/lufa/LUFA-git/LUFA/Drivers/USB/Core/AVR8/../AVR8/../AVR8/Endpoint_AVR8.h **** 			static inline uint16_t Endpoint_BytesInEndpoint(void) ATTR_WARN_UNUSED_RESULT ATTR_ALWAYS_INLINE
 222:../../../../tmk_core/protocol/lufa/LUFA-git/LUFA/Drivers/USB/Core/AVR8/../AVR8/../AVR8/Endpoint_AVR8.h **** 			static inline uint16_t Endpoint_BytesInEndpoint(void)
 223:../../../../tmk_core/protocol/lufa/LUFA-git/LUFA/Drivers/USB/Core/AVR8/../AVR8/../AVR8/Endpoint_AVR8.h **** 			{
 224:../../../../tmk_core/protocol/lufa/LUFA-git/LUFA/Drivers/USB/Core/AVR8/../AVR8/../AVR8/Endpoint_AVR8.h **** 				#if (defined(USB_SERIES_6_AVR) || defined(USB_SERIES_7_AVR))
 225:../../../../tmk_core/protocol/lufa/LUFA-git/LUFA/Drivers/USB/Core/AVR8/../AVR8/../AVR8/Endpoint_AVR8.h **** 					return UEBCX;
 226:../../../../tmk_core/protocol/lufa/LUFA-git/LUFA/Drivers/USB/Core/AVR8/../AVR8/../AVR8/Endpoint_AVR8.h **** 				#elif defined(USB_SERIES_4_AVR)
 227:../../../../tmk_core/protocol/lufa/LUFA-git/LUFA/Drivers/USB/Core/AVR8/../AVR8/../AVR8/Endpoint_AVR8.h **** 					return (((uint16_t)UEBCHX << 8) | UEBCLX);
 228:../../../../tmk_core/protocol/lufa/LUFA-git/LUFA/Drivers/USB/Core/AVR8/../AVR8/../AVR8/Endpoint_AVR8.h **** 				#elif defined(USB_SERIES_2_AVR)
 229:../../../../tmk_core/protocol/lufa/LUFA-git/LUFA/Drivers/USB/Core/AVR8/../AVR8/../AVR8/Endpoint_AVR8.h **** 					return UEBCLX;
 230:../../../../tmk_core/protocol/lufa/LUFA-git/LUFA/Drivers/USB/Core/AVR8/../AVR8/../AVR8/Endpoint_AVR8.h **** 				#endif
 231:../../../../tmk_core/protocol/lufa/LUFA-git/LUFA/Drivers/USB/Core/AVR8/../AVR8/../AVR8/Endpoint_AVR8.h **** 			}
 232:../../../../tmk_core/protocol/lufa/LUFA-git/LUFA/Drivers/USB/Core/AVR8/../AVR8/../AVR8/Endpoint_AVR8.h **** 
 233:../../../../tmk_core/protocol/lufa/LUFA-git/LUFA/Drivers/USB/Core/AVR8/../AVR8/../AVR8/Endpoint_AVR8.h **** 			/** Determines the currently selected endpoint's direction.
 234:../../../../tmk_core/protocol/lufa/LUFA-git/LUFA/Drivers/USB/Core/AVR8/../AVR8/../AVR8/Endpoint_AVR8.h **** 			 *
 235:../../../../tmk_core/protocol/lufa/LUFA-git/LUFA/Drivers/USB/Core/AVR8/../AVR8/../AVR8/Endpoint_AVR8.h **** 			 *  \return The currently selected endpoint's direction, as a \c ENDPOINT_DIR_* mask.
 236:../../../../tmk_core/protocol/lufa/LUFA-git/LUFA/Drivers/USB/Core/AVR8/../AVR8/../AVR8/Endpoint_AVR8.h **** 			 */
 237:../../../../tmk_core/protocol/lufa/LUFA-git/LUFA/Drivers/USB/Core/AVR8/../AVR8/../AVR8/Endpoint_AVR8.h **** 			static inline uint8_t Endpoint_GetEndpointDirection(void) ATTR_WARN_UNUSED_RESULT ATTR_ALWAYS_IN
 238:../../../../tmk_core/protocol/lufa/LUFA-git/LUFA/Drivers/USB/Core/AVR8/../AVR8/../AVR8/Endpoint_AVR8.h **** 			static inline uint8_t Endpoint_GetEndpointDirection(void)
 239:../../../../tmk_core/protocol/lufa/LUFA-git/LUFA/Drivers/USB/Core/AVR8/../AVR8/../AVR8/Endpoint_AVR8.h **** 			{
 240:../../../../tmk_core/protocol/lufa/LUFA-git/LUFA/Drivers/USB/Core/AVR8/../AVR8/../AVR8/Endpoint_AVR8.h **** 				return (UECFG0X & (1 << EPDIR)) ? ENDPOINT_DIR_IN : ENDPOINT_DIR_OUT;
 241:../../../../tmk_core/protocol/lufa/LUFA-git/LUFA/Drivers/USB/Core/AVR8/../AVR8/../AVR8/Endpoint_AVR8.h **** 			}
 242:../../../../tmk_core/protocol/lufa/LUFA-git/LUFA/Drivers/USB/Core/AVR8/../AVR8/../AVR8/Endpoint_AVR8.h **** 
 243:../../../../tmk_core/protocol/lufa/LUFA-git/LUFA/Drivers/USB/Core/AVR8/../AVR8/../AVR8/Endpoint_AVR8.h **** 			/** Get the endpoint address of the currently selected endpoint. This is typically used to save
 244:../../../../tmk_core/protocol/lufa/LUFA-git/LUFA/Drivers/USB/Core/AVR8/../AVR8/../AVR8/Endpoint_AVR8.h **** 			 *  the currently selected endpoint so that it can be restored after another endpoint has been
 245:../../../../tmk_core/protocol/lufa/LUFA-git/LUFA/Drivers/USB/Core/AVR8/../AVR8/../AVR8/Endpoint_AVR8.h **** 			 *  manipulated.
 246:../../../../tmk_core/protocol/lufa/LUFA-git/LUFA/Drivers/USB/Core/AVR8/../AVR8/../AVR8/Endpoint_AVR8.h **** 			 *
 247:../../../../tmk_core/protocol/lufa/LUFA-git/LUFA/Drivers/USB/Core/AVR8/../AVR8/../AVR8/Endpoint_AVR8.h **** 			 *  \return Index of the currently selected endpoint.
 248:../../../../tmk_core/protocol/lufa/LUFA-git/LUFA/Drivers/USB/Core/AVR8/../AVR8/../AVR8/Endpoint_AVR8.h **** 			 */
 249:../../../../tmk_core/protocol/lufa/LUFA-git/LUFA/Drivers/USB/Core/AVR8/../AVR8/../AVR8/Endpoint_AVR8.h **** 			static inline uint8_t Endpoint_GetCurrentEndpoint(void) ATTR_WARN_UNUSED_RESULT ATTR_ALWAYS_INLI
 250:../../../../tmk_core/protocol/lufa/LUFA-git/LUFA/Drivers/USB/Core/AVR8/../AVR8/../AVR8/Endpoint_AVR8.h **** 			static inline uint8_t Endpoint_GetCurrentEndpoint(void)
 251:../../../../tmk_core/protocol/lufa/LUFA-git/LUFA/Drivers/USB/Core/AVR8/../AVR8/../AVR8/Endpoint_AVR8.h **** 			{
 252:../../../../tmk_core/protocol/lufa/LUFA-git/LUFA/Drivers/USB/Core/AVR8/../AVR8/../AVR8/Endpoint_AVR8.h **** 				#if !defined(CONTROL_ONLY_DEVICE)
 253:../../../../tmk_core/protocol/lufa/LUFA-git/LUFA/Drivers/USB/Core/AVR8/../AVR8/../AVR8/Endpoint_AVR8.h **** 					return ((UENUM & ENDPOINT_EPNUM_MASK) | Endpoint_GetEndpointDirection());
 254:../../../../tmk_core/protocol/lufa/LUFA-git/LUFA/Drivers/USB/Core/AVR8/../AVR8/../AVR8/Endpoint_AVR8.h **** 				#else
 255:../../../../tmk_core/protocol/lufa/LUFA-git/LUFA/Drivers/USB/Core/AVR8/../AVR8/../AVR8/Endpoint_AVR8.h **** 					return ENDPOINT_CONTROLEP;
 256:../../../../tmk_core/protocol/lufa/LUFA-git/LUFA/Drivers/USB/Core/AVR8/../AVR8/../AVR8/Endpoint_AVR8.h **** 				#endif
 257:../../../../tmk_core/protocol/lufa/LUFA-git/LUFA/Drivers/USB/Core/AVR8/../AVR8/../AVR8/Endpoint_AVR8.h **** 			}
 258:../../../../tmk_core/protocol/lufa/LUFA-git/LUFA/Drivers/USB/Core/AVR8/../AVR8/../AVR8/Endpoint_AVR8.h **** 
 259:../../../../tmk_core/protocol/lufa/LUFA-git/LUFA/Drivers/USB/Core/AVR8/../AVR8/../AVR8/Endpoint_AVR8.h **** 			/** Selects the given endpoint address.
 260:../../../../tmk_core/protocol/lufa/LUFA-git/LUFA/Drivers/USB/Core/AVR8/../AVR8/../AVR8/Endpoint_AVR8.h **** 			 *
 261:../../../../tmk_core/protocol/lufa/LUFA-git/LUFA/Drivers/USB/Core/AVR8/../AVR8/../AVR8/Endpoint_AVR8.h **** 			 *  Any endpoint operations which do not require the endpoint address to be indicated will opera
 262:../../../../tmk_core/protocol/lufa/LUFA-git/LUFA/Drivers/USB/Core/AVR8/../AVR8/../AVR8/Endpoint_AVR8.h **** 			 *  the currently selected endpoint.
 263:../../../../tmk_core/protocol/lufa/LUFA-git/LUFA/Drivers/USB/Core/AVR8/../AVR8/../AVR8/Endpoint_AVR8.h **** 			 *
 264:../../../../tmk_core/protocol/lufa/LUFA-git/LUFA/Drivers/USB/Core/AVR8/../AVR8/../AVR8/Endpoint_AVR8.h **** 			 *  \param[in] Address Endpoint address to select.
 265:../../../../tmk_core/protocol/lufa/LUFA-git/LUFA/Drivers/USB/Core/AVR8/../AVR8/../AVR8/Endpoint_AVR8.h **** 			 */
 266:../../../../tmk_core/protocol/lufa/LUFA-git/LUFA/Drivers/USB/Core/AVR8/../AVR8/../AVR8/Endpoint_AVR8.h **** 			static inline void Endpoint_SelectEndpoint(const uint8_t Address) ATTR_ALWAYS_INLINE;
 267:../../../../tmk_core/protocol/lufa/LUFA-git/LUFA/Drivers/USB/Core/AVR8/../AVR8/../AVR8/Endpoint_AVR8.h **** 			static inline void Endpoint_SelectEndpoint(const uint8_t Address)
 268:../../../../tmk_core/protocol/lufa/LUFA-git/LUFA/Drivers/USB/Core/AVR8/../AVR8/../AVR8/Endpoint_AVR8.h **** 			{
 269:../../../../tmk_core/protocol/lufa/LUFA-git/LUFA/Drivers/USB/Core/AVR8/../AVR8/../AVR8/Endpoint_AVR8.h **** 				#if !defined(CONTROL_ONLY_DEVICE)
 270:../../../../tmk_core/protocol/lufa/LUFA-git/LUFA/Drivers/USB/Core/AVR8/../AVR8/../AVR8/Endpoint_AVR8.h **** 					UENUM = (Address & ENDPOINT_EPNUM_MASK);
 271:../../../../tmk_core/protocol/lufa/LUFA-git/LUFA/Drivers/USB/Core/AVR8/../AVR8/../AVR8/Endpoint_AVR8.h **** 				#endif
 272:../../../../tmk_core/protocol/lufa/LUFA-git/LUFA/Drivers/USB/Core/AVR8/../AVR8/../AVR8/Endpoint_AVR8.h **** 			}
 273:../../../../tmk_core/protocol/lufa/LUFA-git/LUFA/Drivers/USB/Core/AVR8/../AVR8/../AVR8/Endpoint_AVR8.h **** 
 274:../../../../tmk_core/protocol/lufa/LUFA-git/LUFA/Drivers/USB/Core/AVR8/../AVR8/../AVR8/Endpoint_AVR8.h **** 			/** Resets the endpoint bank FIFO. This clears all the endpoint banks and resets the USB control
 275:../../../../tmk_core/protocol/lufa/LUFA-git/LUFA/Drivers/USB/Core/AVR8/../AVR8/../AVR8/Endpoint_AVR8.h **** 			 *  data In and Out pointers to the bank's contents.
 276:../../../../tmk_core/protocol/lufa/LUFA-git/LUFA/Drivers/USB/Core/AVR8/../AVR8/../AVR8/Endpoint_AVR8.h **** 			 *
 277:../../../../tmk_core/protocol/lufa/LUFA-git/LUFA/Drivers/USB/Core/AVR8/../AVR8/../AVR8/Endpoint_AVR8.h **** 			 *  \param[in] Address  Endpoint address whose FIFO buffers are to be reset.
 278:../../../../tmk_core/protocol/lufa/LUFA-git/LUFA/Drivers/USB/Core/AVR8/../AVR8/../AVR8/Endpoint_AVR8.h **** 			 */
 279:../../../../tmk_core/protocol/lufa/LUFA-git/LUFA/Drivers/USB/Core/AVR8/../AVR8/../AVR8/Endpoint_AVR8.h **** 			static inline void Endpoint_ResetEndpoint(const uint8_t Address) ATTR_ALWAYS_INLINE;
 280:../../../../tmk_core/protocol/lufa/LUFA-git/LUFA/Drivers/USB/Core/AVR8/../AVR8/../AVR8/Endpoint_AVR8.h **** 			static inline void Endpoint_ResetEndpoint(const uint8_t Address)
 281:../../../../tmk_core/protocol/lufa/LUFA-git/LUFA/Drivers/USB/Core/AVR8/../AVR8/../AVR8/Endpoint_AVR8.h **** 			{
 282:../../../../tmk_core/protocol/lufa/LUFA-git/LUFA/Drivers/USB/Core/AVR8/../AVR8/../AVR8/Endpoint_AVR8.h **** 				UERST = (1 << (Address & ENDPOINT_EPNUM_MASK));
 283:../../../../tmk_core/protocol/lufa/LUFA-git/LUFA/Drivers/USB/Core/AVR8/../AVR8/../AVR8/Endpoint_AVR8.h **** 				UERST = 0;
 284:../../../../tmk_core/protocol/lufa/LUFA-git/LUFA/Drivers/USB/Core/AVR8/../AVR8/../AVR8/Endpoint_AVR8.h **** 			}
 285:../../../../tmk_core/protocol/lufa/LUFA-git/LUFA/Drivers/USB/Core/AVR8/../AVR8/../AVR8/Endpoint_AVR8.h **** 
 286:../../../../tmk_core/protocol/lufa/LUFA-git/LUFA/Drivers/USB/Core/AVR8/../AVR8/../AVR8/Endpoint_AVR8.h **** 			/** Enables the currently selected endpoint so that data can be sent and received through it to
 287:../../../../tmk_core/protocol/lufa/LUFA-git/LUFA/Drivers/USB/Core/AVR8/../AVR8/../AVR8/Endpoint_AVR8.h **** 			 *  and from a host.
 288:../../../../tmk_core/protocol/lufa/LUFA-git/LUFA/Drivers/USB/Core/AVR8/../AVR8/../AVR8/Endpoint_AVR8.h **** 			 *
 289:../../../../tmk_core/protocol/lufa/LUFA-git/LUFA/Drivers/USB/Core/AVR8/../AVR8/../AVR8/Endpoint_AVR8.h **** 			 *  \note Endpoints must first be configured properly via \ref Endpoint_ConfigureEndpoint().
 290:../../../../tmk_core/protocol/lufa/LUFA-git/LUFA/Drivers/USB/Core/AVR8/../AVR8/../AVR8/Endpoint_AVR8.h **** 			 */
 291:../../../../tmk_core/protocol/lufa/LUFA-git/LUFA/Drivers/USB/Core/AVR8/../AVR8/../AVR8/Endpoint_AVR8.h **** 			static inline void Endpoint_EnableEndpoint(void) ATTR_ALWAYS_INLINE;
 292:../../../../tmk_core/protocol/lufa/LUFA-git/LUFA/Drivers/USB/Core/AVR8/../AVR8/../AVR8/Endpoint_AVR8.h **** 			static inline void Endpoint_EnableEndpoint(void)
 293:../../../../tmk_core/protocol/lufa/LUFA-git/LUFA/Drivers/USB/Core/AVR8/../AVR8/../AVR8/Endpoint_AVR8.h **** 			{
 294:../../../../tmk_core/protocol/lufa/LUFA-git/LUFA/Drivers/USB/Core/AVR8/../AVR8/../AVR8/Endpoint_AVR8.h **** 				UECONX |= (1 << EPEN);
 295:../../../../tmk_core/protocol/lufa/LUFA-git/LUFA/Drivers/USB/Core/AVR8/../AVR8/../AVR8/Endpoint_AVR8.h **** 			}
 296:../../../../tmk_core/protocol/lufa/LUFA-git/LUFA/Drivers/USB/Core/AVR8/../AVR8/../AVR8/Endpoint_AVR8.h **** 
 297:../../../../tmk_core/protocol/lufa/LUFA-git/LUFA/Drivers/USB/Core/AVR8/../AVR8/../AVR8/Endpoint_AVR8.h **** 			/** Disables the currently selected endpoint so that data cannot be sent and received through it
 298:../../../../tmk_core/protocol/lufa/LUFA-git/LUFA/Drivers/USB/Core/AVR8/../AVR8/../AVR8/Endpoint_AVR8.h **** 			 *  to and from a host.
 299:../../../../tmk_core/protocol/lufa/LUFA-git/LUFA/Drivers/USB/Core/AVR8/../AVR8/../AVR8/Endpoint_AVR8.h **** 			 */
 300:../../../../tmk_core/protocol/lufa/LUFA-git/LUFA/Drivers/USB/Core/AVR8/../AVR8/../AVR8/Endpoint_AVR8.h **** 			static inline void Endpoint_DisableEndpoint(void) ATTR_ALWAYS_INLINE;
 301:../../../../tmk_core/protocol/lufa/LUFA-git/LUFA/Drivers/USB/Core/AVR8/../AVR8/../AVR8/Endpoint_AVR8.h **** 			static inline void Endpoint_DisableEndpoint(void)
 302:../../../../tmk_core/protocol/lufa/LUFA-git/LUFA/Drivers/USB/Core/AVR8/../AVR8/../AVR8/Endpoint_AVR8.h **** 			{
 303:../../../../tmk_core/protocol/lufa/LUFA-git/LUFA/Drivers/USB/Core/AVR8/../AVR8/../AVR8/Endpoint_AVR8.h **** 				UECONX &= ~(1 << EPEN);
 304:../../../../tmk_core/protocol/lufa/LUFA-git/LUFA/Drivers/USB/Core/AVR8/../AVR8/../AVR8/Endpoint_AVR8.h **** 			}
 305:../../../../tmk_core/protocol/lufa/LUFA-git/LUFA/Drivers/USB/Core/AVR8/../AVR8/../AVR8/Endpoint_AVR8.h **** 
 306:../../../../tmk_core/protocol/lufa/LUFA-git/LUFA/Drivers/USB/Core/AVR8/../AVR8/../AVR8/Endpoint_AVR8.h **** 			/** Determines if the currently selected endpoint is enabled, but not necessarily configured.
 307:../../../../tmk_core/protocol/lufa/LUFA-git/LUFA/Drivers/USB/Core/AVR8/../AVR8/../AVR8/Endpoint_AVR8.h **** 			 *
 308:../../../../tmk_core/protocol/lufa/LUFA-git/LUFA/Drivers/USB/Core/AVR8/../AVR8/../AVR8/Endpoint_AVR8.h **** 			 * \return Boolean \c true if the currently selected endpoint is enabled, \c false otherwise.
 309:../../../../tmk_core/protocol/lufa/LUFA-git/LUFA/Drivers/USB/Core/AVR8/../AVR8/../AVR8/Endpoint_AVR8.h **** 			 */
 310:../../../../tmk_core/protocol/lufa/LUFA-git/LUFA/Drivers/USB/Core/AVR8/../AVR8/../AVR8/Endpoint_AVR8.h **** 			static inline bool Endpoint_IsEnabled(void) ATTR_WARN_UNUSED_RESULT ATTR_ALWAYS_INLINE;
 311:../../../../tmk_core/protocol/lufa/LUFA-git/LUFA/Drivers/USB/Core/AVR8/../AVR8/../AVR8/Endpoint_AVR8.h **** 			static inline bool Endpoint_IsEnabled(void)
 312:../../../../tmk_core/protocol/lufa/LUFA-git/LUFA/Drivers/USB/Core/AVR8/../AVR8/../AVR8/Endpoint_AVR8.h **** 			{
 313:../../../../tmk_core/protocol/lufa/LUFA-git/LUFA/Drivers/USB/Core/AVR8/../AVR8/../AVR8/Endpoint_AVR8.h **** 				return ((UECONX & (1 << EPEN)) ? true : false);
 314:../../../../tmk_core/protocol/lufa/LUFA-git/LUFA/Drivers/USB/Core/AVR8/../AVR8/../AVR8/Endpoint_AVR8.h **** 			}
 315:../../../../tmk_core/protocol/lufa/LUFA-git/LUFA/Drivers/USB/Core/AVR8/../AVR8/../AVR8/Endpoint_AVR8.h **** 
 316:../../../../tmk_core/protocol/lufa/LUFA-git/LUFA/Drivers/USB/Core/AVR8/../AVR8/../AVR8/Endpoint_AVR8.h **** 			/** Retrieves the number of busy banks in the currently selected endpoint, which have been queue
 317:../../../../tmk_core/protocol/lufa/LUFA-git/LUFA/Drivers/USB/Core/AVR8/../AVR8/../AVR8/Endpoint_AVR8.h **** 			 *  transmission via the \ref Endpoint_ClearIN() command, or are awaiting acknowledgment via the
 318:../../../../tmk_core/protocol/lufa/LUFA-git/LUFA/Drivers/USB/Core/AVR8/../AVR8/../AVR8/Endpoint_AVR8.h **** 			 *  \ref Endpoint_ClearOUT() command.
 319:../../../../tmk_core/protocol/lufa/LUFA-git/LUFA/Drivers/USB/Core/AVR8/../AVR8/../AVR8/Endpoint_AVR8.h **** 			 *
 320:../../../../tmk_core/protocol/lufa/LUFA-git/LUFA/Drivers/USB/Core/AVR8/../AVR8/../AVR8/Endpoint_AVR8.h **** 			 *  \ingroup Group_EndpointPacketManagement_AVR8
 321:../../../../tmk_core/protocol/lufa/LUFA-git/LUFA/Drivers/USB/Core/AVR8/../AVR8/../AVR8/Endpoint_AVR8.h **** 			 *
 322:../../../../tmk_core/protocol/lufa/LUFA-git/LUFA/Drivers/USB/Core/AVR8/../AVR8/../AVR8/Endpoint_AVR8.h **** 			 *  \return Total number of busy banks in the selected endpoint.
 323:../../../../tmk_core/protocol/lufa/LUFA-git/LUFA/Drivers/USB/Core/AVR8/../AVR8/../AVR8/Endpoint_AVR8.h **** 			 */
 324:../../../../tmk_core/protocol/lufa/LUFA-git/LUFA/Drivers/USB/Core/AVR8/../AVR8/../AVR8/Endpoint_AVR8.h **** 			static inline uint8_t Endpoint_GetBusyBanks(void) ATTR_ALWAYS_INLINE ATTR_WARN_UNUSED_RESULT;
 325:../../../../tmk_core/protocol/lufa/LUFA-git/LUFA/Drivers/USB/Core/AVR8/../AVR8/../AVR8/Endpoint_AVR8.h **** 			static inline uint8_t Endpoint_GetBusyBanks(void)
 326:../../../../tmk_core/protocol/lufa/LUFA-git/LUFA/Drivers/USB/Core/AVR8/../AVR8/../AVR8/Endpoint_AVR8.h **** 			{
 327:../../../../tmk_core/protocol/lufa/LUFA-git/LUFA/Drivers/USB/Core/AVR8/../AVR8/../AVR8/Endpoint_AVR8.h **** 				return (UESTA0X & (0x03 << NBUSYBK0));
 328:../../../../tmk_core/protocol/lufa/LUFA-git/LUFA/Drivers/USB/Core/AVR8/../AVR8/../AVR8/Endpoint_AVR8.h **** 			}
 329:../../../../tmk_core/protocol/lufa/LUFA-git/LUFA/Drivers/USB/Core/AVR8/../AVR8/../AVR8/Endpoint_AVR8.h **** 
 330:../../../../tmk_core/protocol/lufa/LUFA-git/LUFA/Drivers/USB/Core/AVR8/../AVR8/../AVR8/Endpoint_AVR8.h **** 			/** Aborts all pending IN transactions on the currently selected endpoint, once the bank
 331:../../../../tmk_core/protocol/lufa/LUFA-git/LUFA/Drivers/USB/Core/AVR8/../AVR8/../AVR8/Endpoint_AVR8.h **** 			 *  has been queued for transmission to the host via \ref Endpoint_ClearIN(). This function
 332:../../../../tmk_core/protocol/lufa/LUFA-git/LUFA/Drivers/USB/Core/AVR8/../AVR8/../AVR8/Endpoint_AVR8.h **** 			 *  will terminate all queued transactions, resetting the endpoint banks ready for a new
 333:../../../../tmk_core/protocol/lufa/LUFA-git/LUFA/Drivers/USB/Core/AVR8/../AVR8/../AVR8/Endpoint_AVR8.h **** 			 *  packet.
 334:../../../../tmk_core/protocol/lufa/LUFA-git/LUFA/Drivers/USB/Core/AVR8/../AVR8/../AVR8/Endpoint_AVR8.h **** 			 *
 335:../../../../tmk_core/protocol/lufa/LUFA-git/LUFA/Drivers/USB/Core/AVR8/../AVR8/../AVR8/Endpoint_AVR8.h **** 			 *  \ingroup Group_EndpointPacketManagement_AVR8
 336:../../../../tmk_core/protocol/lufa/LUFA-git/LUFA/Drivers/USB/Core/AVR8/../AVR8/../AVR8/Endpoint_AVR8.h **** 			 */
 337:../../../../tmk_core/protocol/lufa/LUFA-git/LUFA/Drivers/USB/Core/AVR8/../AVR8/../AVR8/Endpoint_AVR8.h **** 			static inline void Endpoint_AbortPendingIN(void)
 338:../../../../tmk_core/protocol/lufa/LUFA-git/LUFA/Drivers/USB/Core/AVR8/../AVR8/../AVR8/Endpoint_AVR8.h **** 			{
 339:../../../../tmk_core/protocol/lufa/LUFA-git/LUFA/Drivers/USB/Core/AVR8/../AVR8/../AVR8/Endpoint_AVR8.h **** 				while (Endpoint_GetBusyBanks() != 0)
 340:../../../../tmk_core/protocol/lufa/LUFA-git/LUFA/Drivers/USB/Core/AVR8/../AVR8/../AVR8/Endpoint_AVR8.h **** 				{
 341:../../../../tmk_core/protocol/lufa/LUFA-git/LUFA/Drivers/USB/Core/AVR8/../AVR8/../AVR8/Endpoint_AVR8.h **** 					UEINTX |= (1 << RXOUTI);
 342:../../../../tmk_core/protocol/lufa/LUFA-git/LUFA/Drivers/USB/Core/AVR8/../AVR8/../AVR8/Endpoint_AVR8.h **** 					while (UEINTX & (1 << RXOUTI));
 343:../../../../tmk_core/protocol/lufa/LUFA-git/LUFA/Drivers/USB/Core/AVR8/../AVR8/../AVR8/Endpoint_AVR8.h **** 				}
 344:../../../../tmk_core/protocol/lufa/LUFA-git/LUFA/Drivers/USB/Core/AVR8/../AVR8/../AVR8/Endpoint_AVR8.h **** 			}
 345:../../../../tmk_core/protocol/lufa/LUFA-git/LUFA/Drivers/USB/Core/AVR8/../AVR8/../AVR8/Endpoint_AVR8.h **** 
 346:../../../../tmk_core/protocol/lufa/LUFA-git/LUFA/Drivers/USB/Core/AVR8/../AVR8/../AVR8/Endpoint_AVR8.h **** 			/** Determines if the currently selected endpoint may be read from (if data is waiting in the en
 347:../../../../tmk_core/protocol/lufa/LUFA-git/LUFA/Drivers/USB/Core/AVR8/../AVR8/../AVR8/Endpoint_AVR8.h **** 			 *  bank and the endpoint is an OUT direction, or if the bank is not yet full if the endpoint is
 348:../../../../tmk_core/protocol/lufa/LUFA-git/LUFA/Drivers/USB/Core/AVR8/../AVR8/../AVR8/Endpoint_AVR8.h **** 			 *  direction). This function will return false if an error has occurred in the endpoint, if the
 349:../../../../tmk_core/protocol/lufa/LUFA-git/LUFA/Drivers/USB/Core/AVR8/../AVR8/../AVR8/Endpoint_AVR8.h **** 			 *  is an OUT direction and no packet (or an empty packet) has been received, or if the endpoint
 350:../../../../tmk_core/protocol/lufa/LUFA-git/LUFA/Drivers/USB/Core/AVR8/../AVR8/../AVR8/Endpoint_AVR8.h **** 			 *  direction and the endpoint bank is full.
 351:../../../../tmk_core/protocol/lufa/LUFA-git/LUFA/Drivers/USB/Core/AVR8/../AVR8/../AVR8/Endpoint_AVR8.h **** 			 *
 352:../../../../tmk_core/protocol/lufa/LUFA-git/LUFA/Drivers/USB/Core/AVR8/../AVR8/../AVR8/Endpoint_AVR8.h **** 			 *  \ingroup Group_EndpointPacketManagement_AVR8
 353:../../../../tmk_core/protocol/lufa/LUFA-git/LUFA/Drivers/USB/Core/AVR8/../AVR8/../AVR8/Endpoint_AVR8.h **** 			 *
 354:../../../../tmk_core/protocol/lufa/LUFA-git/LUFA/Drivers/USB/Core/AVR8/../AVR8/../AVR8/Endpoint_AVR8.h **** 			 *  \return Boolean \c true if the currently selected endpoint may be read from or written to, d
 355:../../../../tmk_core/protocol/lufa/LUFA-git/LUFA/Drivers/USB/Core/AVR8/../AVR8/../AVR8/Endpoint_AVR8.h **** 			 *          on its direction.
 356:../../../../tmk_core/protocol/lufa/LUFA-git/LUFA/Drivers/USB/Core/AVR8/../AVR8/../AVR8/Endpoint_AVR8.h **** 			 */
 357:../../../../tmk_core/protocol/lufa/LUFA-git/LUFA/Drivers/USB/Core/AVR8/../AVR8/../AVR8/Endpoint_AVR8.h **** 			static inline bool Endpoint_IsReadWriteAllowed(void) ATTR_WARN_UNUSED_RESULT ATTR_ALWAYS_INLINE;
 358:../../../../tmk_core/protocol/lufa/LUFA-git/LUFA/Drivers/USB/Core/AVR8/../AVR8/../AVR8/Endpoint_AVR8.h **** 			static inline bool Endpoint_IsReadWriteAllowed(void)
 359:../../../../tmk_core/protocol/lufa/LUFA-git/LUFA/Drivers/USB/Core/AVR8/../AVR8/../AVR8/Endpoint_AVR8.h **** 			{
 360:../../../../tmk_core/protocol/lufa/LUFA-git/LUFA/Drivers/USB/Core/AVR8/../AVR8/../AVR8/Endpoint_AVR8.h **** 				return ((UEINTX & (1 << RWAL)) ? true : false);
  83               		.loc 2 360 0
  84 0032 8091 E800 		lds r24,232
  85               	.LBE269:
  86               	.LBE268:
  53:../../../../tmk_core/protocol/lufa/LUFA-git/LUFA/Drivers/USB/Core/AVR8/EndpointStream_AVR8.c **** 
  54:../../../../tmk_core/protocol/lufa/LUFA-git/LUFA/Drivers/USB/Core/AVR8/EndpointStream_AVR8.c **** 	while (Length)
  55:../../../../tmk_core/protocol/lufa/LUFA-git/LUFA/Drivers/USB/Core/AVR8/EndpointStream_AVR8.c **** 	{
  56:../../../../tmk_core/protocol/lufa/LUFA-git/LUFA/Drivers/USB/Core/AVR8/EndpointStream_AVR8.c **** 		if (!(Endpoint_IsReadWriteAllowed()))
  87               		.loc 1 56 0
  88 0036 85FD      		sbrc r24,5
  89 0038 00C0      		rjmp .L5
  90               	.LBB270:
  91               	.LBB271:
 361:../../../../tmk_core/protocol/lufa/LUFA-git/LUFA/Drivers/USB/Core/AVR8/../AVR8/../AVR8/Endpoint_AVR8.h **** 			}
 362:../../../../tmk_core/protocol/lufa/LUFA-git/LUFA/Drivers/USB/Core/AVR8/../AVR8/../AVR8/Endpoint_AVR8.h **** 
 363:../../../../tmk_core/protocol/lufa/LUFA-git/LUFA/Drivers/USB/Core/AVR8/../AVR8/../AVR8/Endpoint_AVR8.h **** 			/** Determines if the currently selected endpoint is configured.
 364:../../../../tmk_core/protocol/lufa/LUFA-git/LUFA/Drivers/USB/Core/AVR8/../AVR8/../AVR8/Endpoint_AVR8.h **** 			 *
 365:../../../../tmk_core/protocol/lufa/LUFA-git/LUFA/Drivers/USB/Core/AVR8/../AVR8/../AVR8/Endpoint_AVR8.h **** 			 *  \return Boolean \c true if the currently selected endpoint has been configured, \c false oth
 366:../../../../tmk_core/protocol/lufa/LUFA-git/LUFA/Drivers/USB/Core/AVR8/../AVR8/../AVR8/Endpoint_AVR8.h **** 			 */
 367:../../../../tmk_core/protocol/lufa/LUFA-git/LUFA/Drivers/USB/Core/AVR8/../AVR8/../AVR8/Endpoint_AVR8.h **** 			static inline bool Endpoint_IsConfigured(void) ATTR_WARN_UNUSED_RESULT ATTR_ALWAYS_INLINE;
 368:../../../../tmk_core/protocol/lufa/LUFA-git/LUFA/Drivers/USB/Core/AVR8/../AVR8/../AVR8/Endpoint_AVR8.h **** 			static inline bool Endpoint_IsConfigured(void)
 369:../../../../tmk_core/protocol/lufa/LUFA-git/LUFA/Drivers/USB/Core/AVR8/../AVR8/../AVR8/Endpoint_AVR8.h **** 			{
 370:../../../../tmk_core/protocol/lufa/LUFA-git/LUFA/Drivers/USB/Core/AVR8/../AVR8/../AVR8/Endpoint_AVR8.h **** 				return ((UESTA0X & (1 << CFGOK)) ? true : false);
 371:../../../../tmk_core/protocol/lufa/LUFA-git/LUFA/Drivers/USB/Core/AVR8/../AVR8/../AVR8/Endpoint_AVR8.h **** 			}
 372:../../../../tmk_core/protocol/lufa/LUFA-git/LUFA/Drivers/USB/Core/AVR8/../AVR8/../AVR8/Endpoint_AVR8.h **** 
 373:../../../../tmk_core/protocol/lufa/LUFA-git/LUFA/Drivers/USB/Core/AVR8/../AVR8/../AVR8/Endpoint_AVR8.h **** 			/** Returns a mask indicating which INTERRUPT type endpoints have interrupted - i.e. their
 374:../../../../tmk_core/protocol/lufa/LUFA-git/LUFA/Drivers/USB/Core/AVR8/../AVR8/../AVR8/Endpoint_AVR8.h **** 			 *  interrupt duration has elapsed. Which endpoints have interrupted can be determined by
 375:../../../../tmk_core/protocol/lufa/LUFA-git/LUFA/Drivers/USB/Core/AVR8/../AVR8/../AVR8/Endpoint_AVR8.h **** 			 *  masking the return value against <tt>(1 << <i>{Endpoint Number}</i>)</tt>.
 376:../../../../tmk_core/protocol/lufa/LUFA-git/LUFA/Drivers/USB/Core/AVR8/../AVR8/../AVR8/Endpoint_AVR8.h **** 			 *
 377:../../../../tmk_core/protocol/lufa/LUFA-git/LUFA/Drivers/USB/Core/AVR8/../AVR8/../AVR8/Endpoint_AVR8.h **** 			 *  \return Mask whose bits indicate which endpoints have interrupted.
 378:../../../../tmk_core/protocol/lufa/LUFA-git/LUFA/Drivers/USB/Core/AVR8/../AVR8/../AVR8/Endpoint_AVR8.h **** 			 */
 379:../../../../tmk_core/protocol/lufa/LUFA-git/LUFA/Drivers/USB/Core/AVR8/../AVR8/../AVR8/Endpoint_AVR8.h **** 			static inline uint8_t Endpoint_GetEndpointInterrupts(void) ATTR_WARN_UNUSED_RESULT ATTR_ALWAYS_I
 380:../../../../tmk_core/protocol/lufa/LUFA-git/LUFA/Drivers/USB/Core/AVR8/../AVR8/../AVR8/Endpoint_AVR8.h **** 			static inline uint8_t Endpoint_GetEndpointInterrupts(void)
 381:../../../../tmk_core/protocol/lufa/LUFA-git/LUFA/Drivers/USB/Core/AVR8/../AVR8/../AVR8/Endpoint_AVR8.h **** 			{
 382:../../../../tmk_core/protocol/lufa/LUFA-git/LUFA/Drivers/USB/Core/AVR8/../AVR8/../AVR8/Endpoint_AVR8.h **** 				return UEINT;
 383:../../../../tmk_core/protocol/lufa/LUFA-git/LUFA/Drivers/USB/Core/AVR8/../AVR8/../AVR8/Endpoint_AVR8.h **** 			}
 384:../../../../tmk_core/protocol/lufa/LUFA-git/LUFA/Drivers/USB/Core/AVR8/../AVR8/../AVR8/Endpoint_AVR8.h **** 
 385:../../../../tmk_core/protocol/lufa/LUFA-git/LUFA/Drivers/USB/Core/AVR8/../AVR8/../AVR8/Endpoint_AVR8.h **** 			/** Determines if the specified endpoint number has interrupted (valid only for INTERRUPT type
 386:../../../../tmk_core/protocol/lufa/LUFA-git/LUFA/Drivers/USB/Core/AVR8/../AVR8/../AVR8/Endpoint_AVR8.h **** 			 *  endpoints).
 387:../../../../tmk_core/protocol/lufa/LUFA-git/LUFA/Drivers/USB/Core/AVR8/../AVR8/../AVR8/Endpoint_AVR8.h **** 			 *
 388:../../../../tmk_core/protocol/lufa/LUFA-git/LUFA/Drivers/USB/Core/AVR8/../AVR8/../AVR8/Endpoint_AVR8.h **** 			 *  \param[in] Address  Address of the endpoint whose interrupt flag should be tested.
 389:../../../../tmk_core/protocol/lufa/LUFA-git/LUFA/Drivers/USB/Core/AVR8/../AVR8/../AVR8/Endpoint_AVR8.h **** 			 *
 390:../../../../tmk_core/protocol/lufa/LUFA-git/LUFA/Drivers/USB/Core/AVR8/../AVR8/../AVR8/Endpoint_AVR8.h **** 			 *  \return Boolean \c true if the specified endpoint has interrupted, \c false otherwise.
 391:../../../../tmk_core/protocol/lufa/LUFA-git/LUFA/Drivers/USB/Core/AVR8/../AVR8/../AVR8/Endpoint_AVR8.h **** 			 */
 392:../../../../tmk_core/protocol/lufa/LUFA-git/LUFA/Drivers/USB/Core/AVR8/../AVR8/../AVR8/Endpoint_AVR8.h **** 			static inline bool Endpoint_HasEndpointInterrupted(const uint8_t Address) ATTR_WARN_UNUSED_RESUL
 393:../../../../tmk_core/protocol/lufa/LUFA-git/LUFA/Drivers/USB/Core/AVR8/../AVR8/../AVR8/Endpoint_AVR8.h **** 			static inline bool Endpoint_HasEndpointInterrupted(const uint8_t Address)
 394:../../../../tmk_core/protocol/lufa/LUFA-git/LUFA/Drivers/USB/Core/AVR8/../AVR8/../AVR8/Endpoint_AVR8.h **** 			{
 395:../../../../tmk_core/protocol/lufa/LUFA-git/LUFA/Drivers/USB/Core/AVR8/../AVR8/../AVR8/Endpoint_AVR8.h **** 				return ((Endpoint_GetEndpointInterrupts() & (1 << (Address & ENDPOINT_EPNUM_MASK))) ? true : fa
 396:../../../../tmk_core/protocol/lufa/LUFA-git/LUFA/Drivers/USB/Core/AVR8/../AVR8/../AVR8/Endpoint_AVR8.h **** 			}
 397:../../../../tmk_core/protocol/lufa/LUFA-git/LUFA/Drivers/USB/Core/AVR8/../AVR8/../AVR8/Endpoint_AVR8.h **** 
 398:../../../../tmk_core/protocol/lufa/LUFA-git/LUFA/Drivers/USB/Core/AVR8/../AVR8/../AVR8/Endpoint_AVR8.h **** 			/** Determines if the selected IN endpoint is ready for a new packet to be sent to the host.
 399:../../../../tmk_core/protocol/lufa/LUFA-git/LUFA/Drivers/USB/Core/AVR8/../AVR8/../AVR8/Endpoint_AVR8.h **** 			 *
 400:../../../../tmk_core/protocol/lufa/LUFA-git/LUFA/Drivers/USB/Core/AVR8/../AVR8/../AVR8/Endpoint_AVR8.h **** 			 *  \ingroup Group_EndpointPacketManagement_AVR8
 401:../../../../tmk_core/protocol/lufa/LUFA-git/LUFA/Drivers/USB/Core/AVR8/../AVR8/../AVR8/Endpoint_AVR8.h **** 			 *
 402:../../../../tmk_core/protocol/lufa/LUFA-git/LUFA/Drivers/USB/Core/AVR8/../AVR8/../AVR8/Endpoint_AVR8.h **** 			 *  \return Boolean \c true if the current endpoint is ready for an IN packet, \c false otherwis
 403:../../../../tmk_core/protocol/lufa/LUFA-git/LUFA/Drivers/USB/Core/AVR8/../AVR8/../AVR8/Endpoint_AVR8.h **** 			 */
 404:../../../../tmk_core/protocol/lufa/LUFA-git/LUFA/Drivers/USB/Core/AVR8/../AVR8/../AVR8/Endpoint_AVR8.h **** 			static inline bool Endpoint_IsINReady(void) ATTR_WARN_UNUSED_RESULT ATTR_ALWAYS_INLINE;
 405:../../../../tmk_core/protocol/lufa/LUFA-git/LUFA/Drivers/USB/Core/AVR8/../AVR8/../AVR8/Endpoint_AVR8.h **** 			static inline bool Endpoint_IsINReady(void)
 406:../../../../tmk_core/protocol/lufa/LUFA-git/LUFA/Drivers/USB/Core/AVR8/../AVR8/../AVR8/Endpoint_AVR8.h **** 			{
 407:../../../../tmk_core/protocol/lufa/LUFA-git/LUFA/Drivers/USB/Core/AVR8/../AVR8/../AVR8/Endpoint_AVR8.h **** 				return ((UEINTX & (1 << TXINI)) ? true : false);
 408:../../../../tmk_core/protocol/lufa/LUFA-git/LUFA/Drivers/USB/Core/AVR8/../AVR8/../AVR8/Endpoint_AVR8.h **** 			}
 409:../../../../tmk_core/protocol/lufa/LUFA-git/LUFA/Drivers/USB/Core/AVR8/../AVR8/../AVR8/Endpoint_AVR8.h **** 
 410:../../../../tmk_core/protocol/lufa/LUFA-git/LUFA/Drivers/USB/Core/AVR8/../AVR8/../AVR8/Endpoint_AVR8.h **** 			/** Determines if the selected OUT endpoint has received new packet from the host.
 411:../../../../tmk_core/protocol/lufa/LUFA-git/LUFA/Drivers/USB/Core/AVR8/../AVR8/../AVR8/Endpoint_AVR8.h **** 			 *
 412:../../../../tmk_core/protocol/lufa/LUFA-git/LUFA/Drivers/USB/Core/AVR8/../AVR8/../AVR8/Endpoint_AVR8.h **** 			 *  \ingroup Group_EndpointPacketManagement_AVR8
 413:../../../../tmk_core/protocol/lufa/LUFA-git/LUFA/Drivers/USB/Core/AVR8/../AVR8/../AVR8/Endpoint_AVR8.h **** 			 *
 414:../../../../tmk_core/protocol/lufa/LUFA-git/LUFA/Drivers/USB/Core/AVR8/../AVR8/../AVR8/Endpoint_AVR8.h **** 			 *  \return Boolean \c true if current endpoint is has received an OUT packet, \c false otherwis
 415:../../../../tmk_core/protocol/lufa/LUFA-git/LUFA/Drivers/USB/Core/AVR8/../AVR8/../AVR8/Endpoint_AVR8.h **** 			 */
 416:../../../../tmk_core/protocol/lufa/LUFA-git/LUFA/Drivers/USB/Core/AVR8/../AVR8/../AVR8/Endpoint_AVR8.h **** 			static inline bool Endpoint_IsOUTReceived(void) ATTR_WARN_UNUSED_RESULT ATTR_ALWAYS_INLINE;
 417:../../../../tmk_core/protocol/lufa/LUFA-git/LUFA/Drivers/USB/Core/AVR8/../AVR8/../AVR8/Endpoint_AVR8.h **** 			static inline bool Endpoint_IsOUTReceived(void)
 418:../../../../tmk_core/protocol/lufa/LUFA-git/LUFA/Drivers/USB/Core/AVR8/../AVR8/../AVR8/Endpoint_AVR8.h **** 			{
 419:../../../../tmk_core/protocol/lufa/LUFA-git/LUFA/Drivers/USB/Core/AVR8/../AVR8/../AVR8/Endpoint_AVR8.h **** 				return ((UEINTX & (1 << RXOUTI)) ? true : false);
 420:../../../../tmk_core/protocol/lufa/LUFA-git/LUFA/Drivers/USB/Core/AVR8/../AVR8/../AVR8/Endpoint_AVR8.h **** 			}
 421:../../../../tmk_core/protocol/lufa/LUFA-git/LUFA/Drivers/USB/Core/AVR8/../AVR8/../AVR8/Endpoint_AVR8.h **** 
 422:../../../../tmk_core/protocol/lufa/LUFA-git/LUFA/Drivers/USB/Core/AVR8/../AVR8/../AVR8/Endpoint_AVR8.h **** 			/** Determines if the current CONTROL type endpoint has received a SETUP packet.
 423:../../../../tmk_core/protocol/lufa/LUFA-git/LUFA/Drivers/USB/Core/AVR8/../AVR8/../AVR8/Endpoint_AVR8.h **** 			 *
 424:../../../../tmk_core/protocol/lufa/LUFA-git/LUFA/Drivers/USB/Core/AVR8/../AVR8/../AVR8/Endpoint_AVR8.h **** 			 *  \ingroup Group_EndpointPacketManagement_AVR8
 425:../../../../tmk_core/protocol/lufa/LUFA-git/LUFA/Drivers/USB/Core/AVR8/../AVR8/../AVR8/Endpoint_AVR8.h **** 			 *
 426:../../../../tmk_core/protocol/lufa/LUFA-git/LUFA/Drivers/USB/Core/AVR8/../AVR8/../AVR8/Endpoint_AVR8.h **** 			 *  \return Boolean \c true if the selected endpoint has received a SETUP packet, \c false other
 427:../../../../tmk_core/protocol/lufa/LUFA-git/LUFA/Drivers/USB/Core/AVR8/../AVR8/../AVR8/Endpoint_AVR8.h **** 			 */
 428:../../../../tmk_core/protocol/lufa/LUFA-git/LUFA/Drivers/USB/Core/AVR8/../AVR8/../AVR8/Endpoint_AVR8.h **** 			static inline bool Endpoint_IsSETUPReceived(void) ATTR_WARN_UNUSED_RESULT ATTR_ALWAYS_INLINE;
 429:../../../../tmk_core/protocol/lufa/LUFA-git/LUFA/Drivers/USB/Core/AVR8/../AVR8/../AVR8/Endpoint_AVR8.h **** 			static inline bool Endpoint_IsSETUPReceived(void)
 430:../../../../tmk_core/protocol/lufa/LUFA-git/LUFA/Drivers/USB/Core/AVR8/../AVR8/../AVR8/Endpoint_AVR8.h **** 			{
 431:../../../../tmk_core/protocol/lufa/LUFA-git/LUFA/Drivers/USB/Core/AVR8/../AVR8/../AVR8/Endpoint_AVR8.h **** 				return ((UEINTX & (1 << RXSTPI)) ? true : false);
 432:../../../../tmk_core/protocol/lufa/LUFA-git/LUFA/Drivers/USB/Core/AVR8/../AVR8/../AVR8/Endpoint_AVR8.h **** 			}
 433:../../../../tmk_core/protocol/lufa/LUFA-git/LUFA/Drivers/USB/Core/AVR8/../AVR8/../AVR8/Endpoint_AVR8.h **** 
 434:../../../../tmk_core/protocol/lufa/LUFA-git/LUFA/Drivers/USB/Core/AVR8/../AVR8/../AVR8/Endpoint_AVR8.h **** 			/** Clears a received SETUP packet on the currently selected CONTROL type endpoint, freeing up t
 435:../../../../tmk_core/protocol/lufa/LUFA-git/LUFA/Drivers/USB/Core/AVR8/../AVR8/../AVR8/Endpoint_AVR8.h **** 			 *  endpoint for the next packet.
 436:../../../../tmk_core/protocol/lufa/LUFA-git/LUFA/Drivers/USB/Core/AVR8/../AVR8/../AVR8/Endpoint_AVR8.h **** 			 *
 437:../../../../tmk_core/protocol/lufa/LUFA-git/LUFA/Drivers/USB/Core/AVR8/../AVR8/../AVR8/Endpoint_AVR8.h **** 			 *  \ingroup Group_EndpointPacketManagement_AVR8
 438:../../../../tmk_core/protocol/lufa/LUFA-git/LUFA/Drivers/USB/Core/AVR8/../AVR8/../AVR8/Endpoint_AVR8.h **** 			 *
 439:../../../../tmk_core/protocol/lufa/LUFA-git/LUFA/Drivers/USB/Core/AVR8/../AVR8/../AVR8/Endpoint_AVR8.h **** 			 *  \note This is not applicable for non CONTROL type endpoints.
 440:../../../../tmk_core/protocol/lufa/LUFA-git/LUFA/Drivers/USB/Core/AVR8/../AVR8/../AVR8/Endpoint_AVR8.h **** 			 */
 441:../../../../tmk_core/protocol/lufa/LUFA-git/LUFA/Drivers/USB/Core/AVR8/../AVR8/../AVR8/Endpoint_AVR8.h **** 			static inline void Endpoint_ClearSETUP(void) ATTR_ALWAYS_INLINE;
 442:../../../../tmk_core/protocol/lufa/LUFA-git/LUFA/Drivers/USB/Core/AVR8/../AVR8/../AVR8/Endpoint_AVR8.h **** 			static inline void Endpoint_ClearSETUP(void)
 443:../../../../tmk_core/protocol/lufa/LUFA-git/LUFA/Drivers/USB/Core/AVR8/../AVR8/../AVR8/Endpoint_AVR8.h **** 			{
 444:../../../../tmk_core/protocol/lufa/LUFA-git/LUFA/Drivers/USB/Core/AVR8/../AVR8/../AVR8/Endpoint_AVR8.h **** 				UEINTX &= ~(1 << RXSTPI);
 445:../../../../tmk_core/protocol/lufa/LUFA-git/LUFA/Drivers/USB/Core/AVR8/../AVR8/../AVR8/Endpoint_AVR8.h **** 			}
 446:../../../../tmk_core/protocol/lufa/LUFA-git/LUFA/Drivers/USB/Core/AVR8/../AVR8/../AVR8/Endpoint_AVR8.h **** 
 447:../../../../tmk_core/protocol/lufa/LUFA-git/LUFA/Drivers/USB/Core/AVR8/../AVR8/../AVR8/Endpoint_AVR8.h **** 			/** Sends an IN packet to the host on the currently selected endpoint, freeing up the endpoint f
 448:../../../../tmk_core/protocol/lufa/LUFA-git/LUFA/Drivers/USB/Core/AVR8/../AVR8/../AVR8/Endpoint_AVR8.h **** 			 *  next packet and switching to the alternative endpoint bank if double banked.
 449:../../../../tmk_core/protocol/lufa/LUFA-git/LUFA/Drivers/USB/Core/AVR8/../AVR8/../AVR8/Endpoint_AVR8.h **** 			 *
 450:../../../../tmk_core/protocol/lufa/LUFA-git/LUFA/Drivers/USB/Core/AVR8/../AVR8/../AVR8/Endpoint_AVR8.h **** 			 *  \ingroup Group_EndpointPacketManagement_AVR8
 451:../../../../tmk_core/protocol/lufa/LUFA-git/LUFA/Drivers/USB/Core/AVR8/../AVR8/../AVR8/Endpoint_AVR8.h **** 			 */
 452:../../../../tmk_core/protocol/lufa/LUFA-git/LUFA/Drivers/USB/Core/AVR8/../AVR8/../AVR8/Endpoint_AVR8.h **** 			static inline void Endpoint_ClearIN(void) ATTR_ALWAYS_INLINE;
 453:../../../../tmk_core/protocol/lufa/LUFA-git/LUFA/Drivers/USB/Core/AVR8/../AVR8/../AVR8/Endpoint_AVR8.h **** 			static inline void Endpoint_ClearIN(void)
 454:../../../../tmk_core/protocol/lufa/LUFA-git/LUFA/Drivers/USB/Core/AVR8/../AVR8/../AVR8/Endpoint_AVR8.h **** 			{
 455:../../../../tmk_core/protocol/lufa/LUFA-git/LUFA/Drivers/USB/Core/AVR8/../AVR8/../AVR8/Endpoint_AVR8.h **** 				#if !defined(CONTROL_ONLY_DEVICE)
 456:../../../../tmk_core/protocol/lufa/LUFA-git/LUFA/Drivers/USB/Core/AVR8/../AVR8/../AVR8/Endpoint_AVR8.h **** 					UEINTX &= ~((1 << TXINI) | (1 << FIFOCON));
 457:../../../../tmk_core/protocol/lufa/LUFA-git/LUFA/Drivers/USB/Core/AVR8/../AVR8/../AVR8/Endpoint_AVR8.h **** 				#else
 458:../../../../tmk_core/protocol/lufa/LUFA-git/LUFA/Drivers/USB/Core/AVR8/../AVR8/../AVR8/Endpoint_AVR8.h **** 					UEINTX &= ~(1 << TXINI);
 459:../../../../tmk_core/protocol/lufa/LUFA-git/LUFA/Drivers/USB/Core/AVR8/../AVR8/../AVR8/Endpoint_AVR8.h **** 				#endif
 460:../../../../tmk_core/protocol/lufa/LUFA-git/LUFA/Drivers/USB/Core/AVR8/../AVR8/../AVR8/Endpoint_AVR8.h **** 			}
 461:../../../../tmk_core/protocol/lufa/LUFA-git/LUFA/Drivers/USB/Core/AVR8/../AVR8/../AVR8/Endpoint_AVR8.h **** 
 462:../../../../tmk_core/protocol/lufa/LUFA-git/LUFA/Drivers/USB/Core/AVR8/../AVR8/../AVR8/Endpoint_AVR8.h **** 			/** Acknowledges an OUT packet to the host on the currently selected endpoint, freeing up the en
 463:../../../../tmk_core/protocol/lufa/LUFA-git/LUFA/Drivers/USB/Core/AVR8/../AVR8/../AVR8/Endpoint_AVR8.h **** 			 *  for the next packet and switching to the alternative endpoint bank if double banked.
 464:../../../../tmk_core/protocol/lufa/LUFA-git/LUFA/Drivers/USB/Core/AVR8/../AVR8/../AVR8/Endpoint_AVR8.h **** 			 *
 465:../../../../tmk_core/protocol/lufa/LUFA-git/LUFA/Drivers/USB/Core/AVR8/../AVR8/../AVR8/Endpoint_AVR8.h **** 			 *  \ingroup Group_EndpointPacketManagement_AVR8
 466:../../../../tmk_core/protocol/lufa/LUFA-git/LUFA/Drivers/USB/Core/AVR8/../AVR8/../AVR8/Endpoint_AVR8.h **** 			 */
 467:../../../../tmk_core/protocol/lufa/LUFA-git/LUFA/Drivers/USB/Core/AVR8/../AVR8/../AVR8/Endpoint_AVR8.h **** 			static inline void Endpoint_ClearOUT(void) ATTR_ALWAYS_INLINE;
 468:../../../../tmk_core/protocol/lufa/LUFA-git/LUFA/Drivers/USB/Core/AVR8/../AVR8/../AVR8/Endpoint_AVR8.h **** 			static inline void Endpoint_ClearOUT(void)
 469:../../../../tmk_core/protocol/lufa/LUFA-git/LUFA/Drivers/USB/Core/AVR8/../AVR8/../AVR8/Endpoint_AVR8.h **** 			{
 470:../../../../tmk_core/protocol/lufa/LUFA-git/LUFA/Drivers/USB/Core/AVR8/../AVR8/../AVR8/Endpoint_AVR8.h **** 				#if !defined(CONTROL_ONLY_DEVICE)
 471:../../../../tmk_core/protocol/lufa/LUFA-git/LUFA/Drivers/USB/Core/AVR8/../AVR8/../AVR8/Endpoint_AVR8.h **** 					UEINTX &= ~((1 << RXOUTI) | (1 << FIFOCON));
  92               		.loc 2 471 0
  93 003a 8091 E800 		lds r24,232
  94 003e 8B77      		andi r24,lo8(123)
  95 0040 8093 E800 		sts 232,r24
  96               	.LBE271:
  97               	.LBE270:
  57:../../../../tmk_core/protocol/lufa/LUFA-git/LUFA/Drivers/USB/Core/AVR8/EndpointStream_AVR8.c **** 		{
  58:../../../../tmk_core/protocol/lufa/LUFA-git/LUFA/Drivers/USB/Core/AVR8/EndpointStream_AVR8.c **** 			Endpoint_ClearOUT();
  59:../../../../tmk_core/protocol/lufa/LUFA-git/LUFA/Drivers/USB/Core/AVR8/EndpointStream_AVR8.c **** 
  60:../../../../tmk_core/protocol/lufa/LUFA-git/LUFA/Drivers/USB/Core/AVR8/EndpointStream_AVR8.c **** 			if (BytesProcessed != NULL)
  98               		.loc 1 60 0
  99 0044 E114      		cp r14,__zero_reg__
 100 0046 F104      		cpc r15,__zero_reg__
 101 0048 01F0      		breq .L6
  61:../../../../tmk_core/protocol/lufa/LUFA-git/LUFA/Drivers/USB/Core/AVR8/EndpointStream_AVR8.c **** 			{
  62:../../../../tmk_core/protocol/lufa/LUFA-git/LUFA/Drivers/USB/Core/AVR8/EndpointStream_AVR8.c **** 				*BytesProcessed += BytesInTransfer;
 102               		.loc 1 62 0
 103 004a F701      		movw r30,r14
 104 004c 8081      		ld r24,Z
 105 004e 9181      		ldd r25,Z+1
 106 0050 8A0D      		add r24,r10
 107 0052 9B1D      		adc r25,r11
 108 0054 9183      		std Z+1,r25
 109 0056 8083      		st Z,r24
  63:../../../../tmk_core/protocol/lufa/LUFA-git/LUFA/Drivers/USB/Core/AVR8/EndpointStream_AVR8.c **** 				return ENDPOINT_RWSTREAM_IncompleteTransfer;
 110               		.loc 1 63 0
 111 0058 C5E0      		ldi r28,lo8(5)
 112 005a 00C0      		rjmp .L2
 113               	.L6:
  64:../../../../tmk_core/protocol/lufa/LUFA-git/LUFA/Drivers/USB/Core/AVR8/EndpointStream_AVR8.c **** 			}
  65:../../../../tmk_core/protocol/lufa/LUFA-git/LUFA/Drivers/USB/Core/AVR8/EndpointStream_AVR8.c **** 
  66:../../../../tmk_core/protocol/lufa/LUFA-git/LUFA/Drivers/USB/Core/AVR8/EndpointStream_AVR8.c **** 			if ((ErrorCode = Endpoint_WaitUntilReady()))
 114               		.loc 1 66 0
 115 005c 0E94 0000 		call Endpoint_WaitUntilReady
 116               	.LVL6:
 117 0060 8823      		tst r24
 118 0062 01F0      		breq .L13
 119 0064 00C0      		rjmp .L9
 120               	.LVL7:
 121               	.L5:
 122               	.LBB272:
 123               	.LBB273:
 472:../../../../tmk_core/protocol/lufa/LUFA-git/LUFA/Drivers/USB/Core/AVR8/../AVR8/../AVR8/Endpoint_AVR8.h **** 				#else
 473:../../../../tmk_core/protocol/lufa/LUFA-git/LUFA/Drivers/USB/Core/AVR8/../AVR8/../AVR8/Endpoint_AVR8.h **** 					UEINTX &= ~(1 << RXOUTI);
 474:../../../../tmk_core/protocol/lufa/LUFA-git/LUFA/Drivers/USB/Core/AVR8/../AVR8/../AVR8/Endpoint_AVR8.h **** 				#endif
 475:../../../../tmk_core/protocol/lufa/LUFA-git/LUFA/Drivers/USB/Core/AVR8/../AVR8/../AVR8/Endpoint_AVR8.h **** 			}
 476:../../../../tmk_core/protocol/lufa/LUFA-git/LUFA/Drivers/USB/Core/AVR8/../AVR8/../AVR8/Endpoint_AVR8.h **** 
 477:../../../../tmk_core/protocol/lufa/LUFA-git/LUFA/Drivers/USB/Core/AVR8/../AVR8/../AVR8/Endpoint_AVR8.h **** 			/** Stalls the current endpoint, indicating to the host that a logical problem occurred with the
 478:../../../../tmk_core/protocol/lufa/LUFA-git/LUFA/Drivers/USB/Core/AVR8/../AVR8/../AVR8/Endpoint_AVR8.h **** 			 *  indicated endpoint and that the current transfer sequence should be aborted. This provides a
 479:../../../../tmk_core/protocol/lufa/LUFA-git/LUFA/Drivers/USB/Core/AVR8/../AVR8/../AVR8/Endpoint_AVR8.h **** 			 *  way for devices to indicate invalid commands to the host so that the current transfer can be
 480:../../../../tmk_core/protocol/lufa/LUFA-git/LUFA/Drivers/USB/Core/AVR8/../AVR8/../AVR8/Endpoint_AVR8.h **** 			 *  aborted and the host can begin its own recovery sequence.
 481:../../../../tmk_core/protocol/lufa/LUFA-git/LUFA/Drivers/USB/Core/AVR8/../AVR8/../AVR8/Endpoint_AVR8.h **** 			 *
 482:../../../../tmk_core/protocol/lufa/LUFA-git/LUFA/Drivers/USB/Core/AVR8/../AVR8/../AVR8/Endpoint_AVR8.h **** 			 *  The currently selected endpoint remains stalled until either the \ref Endpoint_ClearStall() 
 483:../../../../tmk_core/protocol/lufa/LUFA-git/LUFA/Drivers/USB/Core/AVR8/../AVR8/../AVR8/Endpoint_AVR8.h **** 			 *  is called, or the host issues a CLEAR FEATURE request to the device for the currently select
 484:../../../../tmk_core/protocol/lufa/LUFA-git/LUFA/Drivers/USB/Core/AVR8/../AVR8/../AVR8/Endpoint_AVR8.h **** 			 *  endpoint.
 485:../../../../tmk_core/protocol/lufa/LUFA-git/LUFA/Drivers/USB/Core/AVR8/../AVR8/../AVR8/Endpoint_AVR8.h **** 			 *
 486:../../../../tmk_core/protocol/lufa/LUFA-git/LUFA/Drivers/USB/Core/AVR8/../AVR8/../AVR8/Endpoint_AVR8.h **** 			 *  \ingroup Group_EndpointPacketManagement_AVR8
 487:../../../../tmk_core/protocol/lufa/LUFA-git/LUFA/Drivers/USB/Core/AVR8/../AVR8/../AVR8/Endpoint_AVR8.h **** 			 */
 488:../../../../tmk_core/protocol/lufa/LUFA-git/LUFA/Drivers/USB/Core/AVR8/../AVR8/../AVR8/Endpoint_AVR8.h **** 			static inline void Endpoint_StallTransaction(void) ATTR_ALWAYS_INLINE;
 489:../../../../tmk_core/protocol/lufa/LUFA-git/LUFA/Drivers/USB/Core/AVR8/../AVR8/../AVR8/Endpoint_AVR8.h **** 			static inline void Endpoint_StallTransaction(void)
 490:../../../../tmk_core/protocol/lufa/LUFA-git/LUFA/Drivers/USB/Core/AVR8/../AVR8/../AVR8/Endpoint_AVR8.h **** 			{
 491:../../../../tmk_core/protocol/lufa/LUFA-git/LUFA/Drivers/USB/Core/AVR8/../AVR8/../AVR8/Endpoint_AVR8.h **** 				UECONX |= (1 << STALLRQ);
 492:../../../../tmk_core/protocol/lufa/LUFA-git/LUFA/Drivers/USB/Core/AVR8/../AVR8/../AVR8/Endpoint_AVR8.h **** 			}
 493:../../../../tmk_core/protocol/lufa/LUFA-git/LUFA/Drivers/USB/Core/AVR8/../AVR8/../AVR8/Endpoint_AVR8.h **** 
 494:../../../../tmk_core/protocol/lufa/LUFA-git/LUFA/Drivers/USB/Core/AVR8/../AVR8/../AVR8/Endpoint_AVR8.h **** 			/** Clears the STALL condition on the currently selected endpoint.
 495:../../../../tmk_core/protocol/lufa/LUFA-git/LUFA/Drivers/USB/Core/AVR8/../AVR8/../AVR8/Endpoint_AVR8.h **** 			 *
 496:../../../../tmk_core/protocol/lufa/LUFA-git/LUFA/Drivers/USB/Core/AVR8/../AVR8/../AVR8/Endpoint_AVR8.h **** 			 *  \ingroup Group_EndpointPacketManagement_AVR8
 497:../../../../tmk_core/protocol/lufa/LUFA-git/LUFA/Drivers/USB/Core/AVR8/../AVR8/../AVR8/Endpoint_AVR8.h **** 			 */
 498:../../../../tmk_core/protocol/lufa/LUFA-git/LUFA/Drivers/USB/Core/AVR8/../AVR8/../AVR8/Endpoint_AVR8.h **** 			static inline void Endpoint_ClearStall(void) ATTR_ALWAYS_INLINE;
 499:../../../../tmk_core/protocol/lufa/LUFA-git/LUFA/Drivers/USB/Core/AVR8/../AVR8/../AVR8/Endpoint_AVR8.h **** 			static inline void Endpoint_ClearStall(void)
 500:../../../../tmk_core/protocol/lufa/LUFA-git/LUFA/Drivers/USB/Core/AVR8/../AVR8/../AVR8/Endpoint_AVR8.h **** 			{
 501:../../../../tmk_core/protocol/lufa/LUFA-git/LUFA/Drivers/USB/Core/AVR8/../AVR8/../AVR8/Endpoint_AVR8.h **** 				UECONX |= (1 << STALLRQC);
 502:../../../../tmk_core/protocol/lufa/LUFA-git/LUFA/Drivers/USB/Core/AVR8/../AVR8/../AVR8/Endpoint_AVR8.h **** 			}
 503:../../../../tmk_core/protocol/lufa/LUFA-git/LUFA/Drivers/USB/Core/AVR8/../AVR8/../AVR8/Endpoint_AVR8.h **** 
 504:../../../../tmk_core/protocol/lufa/LUFA-git/LUFA/Drivers/USB/Core/AVR8/../AVR8/../AVR8/Endpoint_AVR8.h **** 			/** Determines if the currently selected endpoint is stalled, \c false otherwise.
 505:../../../../tmk_core/protocol/lufa/LUFA-git/LUFA/Drivers/USB/Core/AVR8/../AVR8/../AVR8/Endpoint_AVR8.h **** 			 *
 506:../../../../tmk_core/protocol/lufa/LUFA-git/LUFA/Drivers/USB/Core/AVR8/../AVR8/../AVR8/Endpoint_AVR8.h **** 			 *  \ingroup Group_EndpointPacketManagement_AVR8
 507:../../../../tmk_core/protocol/lufa/LUFA-git/LUFA/Drivers/USB/Core/AVR8/../AVR8/../AVR8/Endpoint_AVR8.h **** 			 *
 508:../../../../tmk_core/protocol/lufa/LUFA-git/LUFA/Drivers/USB/Core/AVR8/../AVR8/../AVR8/Endpoint_AVR8.h **** 			 *  \return Boolean \c true if the currently selected endpoint is stalled, \c false otherwise.
 509:../../../../tmk_core/protocol/lufa/LUFA-git/LUFA/Drivers/USB/Core/AVR8/../AVR8/../AVR8/Endpoint_AVR8.h **** 			 */
 510:../../../../tmk_core/protocol/lufa/LUFA-git/LUFA/Drivers/USB/Core/AVR8/../AVR8/../AVR8/Endpoint_AVR8.h **** 			static inline bool Endpoint_IsStalled(void) ATTR_WARN_UNUSED_RESULT ATTR_ALWAYS_INLINE;
 511:../../../../tmk_core/protocol/lufa/LUFA-git/LUFA/Drivers/USB/Core/AVR8/../AVR8/../AVR8/Endpoint_AVR8.h **** 			static inline bool Endpoint_IsStalled(void)
 512:../../../../tmk_core/protocol/lufa/LUFA-git/LUFA/Drivers/USB/Core/AVR8/../AVR8/../AVR8/Endpoint_AVR8.h **** 			{
 513:../../../../tmk_core/protocol/lufa/LUFA-git/LUFA/Drivers/USB/Core/AVR8/../AVR8/../AVR8/Endpoint_AVR8.h **** 				return ((UECONX & (1 << STALLRQ)) ? true : false);
 514:../../../../tmk_core/protocol/lufa/LUFA-git/LUFA/Drivers/USB/Core/AVR8/../AVR8/../AVR8/Endpoint_AVR8.h **** 			}
 515:../../../../tmk_core/protocol/lufa/LUFA-git/LUFA/Drivers/USB/Core/AVR8/../AVR8/../AVR8/Endpoint_AVR8.h **** 
 516:../../../../tmk_core/protocol/lufa/LUFA-git/LUFA/Drivers/USB/Core/AVR8/../AVR8/../AVR8/Endpoint_AVR8.h **** 			/** Resets the data toggle of the currently selected endpoint. */
 517:../../../../tmk_core/protocol/lufa/LUFA-git/LUFA/Drivers/USB/Core/AVR8/../AVR8/../AVR8/Endpoint_AVR8.h **** 			static inline void Endpoint_ResetDataToggle(void) ATTR_ALWAYS_INLINE;
 518:../../../../tmk_core/protocol/lufa/LUFA-git/LUFA/Drivers/USB/Core/AVR8/../AVR8/../AVR8/Endpoint_AVR8.h **** 			static inline void Endpoint_ResetDataToggle(void)
 519:../../../../tmk_core/protocol/lufa/LUFA-git/LUFA/Drivers/USB/Core/AVR8/../AVR8/../AVR8/Endpoint_AVR8.h **** 			{
 520:../../../../tmk_core/protocol/lufa/LUFA-git/LUFA/Drivers/USB/Core/AVR8/../AVR8/../AVR8/Endpoint_AVR8.h **** 				UECONX |= (1 << RSTDT);
 521:../../../../tmk_core/protocol/lufa/LUFA-git/LUFA/Drivers/USB/Core/AVR8/../AVR8/../AVR8/Endpoint_AVR8.h **** 			}
 522:../../../../tmk_core/protocol/lufa/LUFA-git/LUFA/Drivers/USB/Core/AVR8/../AVR8/../AVR8/Endpoint_AVR8.h **** 
 523:../../../../tmk_core/protocol/lufa/LUFA-git/LUFA/Drivers/USB/Core/AVR8/../AVR8/../AVR8/Endpoint_AVR8.h **** 			/** Sets the direction of the currently selected endpoint.
 524:../../../../tmk_core/protocol/lufa/LUFA-git/LUFA/Drivers/USB/Core/AVR8/../AVR8/../AVR8/Endpoint_AVR8.h **** 			 *
 525:../../../../tmk_core/protocol/lufa/LUFA-git/LUFA/Drivers/USB/Core/AVR8/../AVR8/../AVR8/Endpoint_AVR8.h **** 			 *  \param[in] DirectionMask  New endpoint direction, as a \c ENDPOINT_DIR_* mask.
 526:../../../../tmk_core/protocol/lufa/LUFA-git/LUFA/Drivers/USB/Core/AVR8/../AVR8/../AVR8/Endpoint_AVR8.h **** 			 */
 527:../../../../tmk_core/protocol/lufa/LUFA-git/LUFA/Drivers/USB/Core/AVR8/../AVR8/../AVR8/Endpoint_AVR8.h **** 			static inline void Endpoint_SetEndpointDirection(const uint8_t DirectionMask) ATTR_ALWAYS_INLINE
 528:../../../../tmk_core/protocol/lufa/LUFA-git/LUFA/Drivers/USB/Core/AVR8/../AVR8/../AVR8/Endpoint_AVR8.h **** 			static inline void Endpoint_SetEndpointDirection(const uint8_t DirectionMask)
 529:../../../../tmk_core/protocol/lufa/LUFA-git/LUFA/Drivers/USB/Core/AVR8/../AVR8/../AVR8/Endpoint_AVR8.h **** 			{
 530:../../../../tmk_core/protocol/lufa/LUFA-git/LUFA/Drivers/USB/Core/AVR8/../AVR8/../AVR8/Endpoint_AVR8.h **** 				UECFG0X = ((UECFG0X & ~(1 << EPDIR)) | (DirectionMask ? (1 << EPDIR) : 0));
 531:../../../../tmk_core/protocol/lufa/LUFA-git/LUFA/Drivers/USB/Core/AVR8/../AVR8/../AVR8/Endpoint_AVR8.h **** 			}
 532:../../../../tmk_core/protocol/lufa/LUFA-git/LUFA/Drivers/USB/Core/AVR8/../AVR8/../AVR8/Endpoint_AVR8.h **** 
 533:../../../../tmk_core/protocol/lufa/LUFA-git/LUFA/Drivers/USB/Core/AVR8/../AVR8/../AVR8/Endpoint_AVR8.h **** 			/** Reads one byte from the currently selected endpoint's bank, for OUT direction endpoints.
 534:../../../../tmk_core/protocol/lufa/LUFA-git/LUFA/Drivers/USB/Core/AVR8/../AVR8/../AVR8/Endpoint_AVR8.h **** 			 *
 535:../../../../tmk_core/protocol/lufa/LUFA-git/LUFA/Drivers/USB/Core/AVR8/../AVR8/../AVR8/Endpoint_AVR8.h **** 			 *  \ingroup Group_EndpointPrimitiveRW_AVR8
 536:../../../../tmk_core/protocol/lufa/LUFA-git/LUFA/Drivers/USB/Core/AVR8/../AVR8/../AVR8/Endpoint_AVR8.h **** 			 *
 537:../../../../tmk_core/protocol/lufa/LUFA-git/LUFA/Drivers/USB/Core/AVR8/../AVR8/../AVR8/Endpoint_AVR8.h **** 			 *  \return Next byte in the currently selected endpoint's FIFO buffer.
 538:../../../../tmk_core/protocol/lufa/LUFA-git/LUFA/Drivers/USB/Core/AVR8/../AVR8/../AVR8/Endpoint_AVR8.h **** 			 */
 539:../../../../tmk_core/protocol/lufa/LUFA-git/LUFA/Drivers/USB/Core/AVR8/../AVR8/../AVR8/Endpoint_AVR8.h **** 			static inline uint8_t Endpoint_Read_8(void) ATTR_WARN_UNUSED_RESULT ATTR_ALWAYS_INLINE;
 540:../../../../tmk_core/protocol/lufa/LUFA-git/LUFA/Drivers/USB/Core/AVR8/../AVR8/../AVR8/Endpoint_AVR8.h **** 			static inline uint8_t Endpoint_Read_8(void)
 541:../../../../tmk_core/protocol/lufa/LUFA-git/LUFA/Drivers/USB/Core/AVR8/../AVR8/../AVR8/Endpoint_AVR8.h **** 			{
 542:../../../../tmk_core/protocol/lufa/LUFA-git/LUFA/Drivers/USB/Core/AVR8/../AVR8/../AVR8/Endpoint_AVR8.h **** 				return UEDATX;
 543:../../../../tmk_core/protocol/lufa/LUFA-git/LUFA/Drivers/USB/Core/AVR8/../AVR8/../AVR8/Endpoint_AVR8.h **** 			}
 544:../../../../tmk_core/protocol/lufa/LUFA-git/LUFA/Drivers/USB/Core/AVR8/../AVR8/../AVR8/Endpoint_AVR8.h **** 
 545:../../../../tmk_core/protocol/lufa/LUFA-git/LUFA/Drivers/USB/Core/AVR8/../AVR8/../AVR8/Endpoint_AVR8.h **** 			/** Writes one byte to the currently selected endpoint's bank, for IN direction endpoints.
 546:../../../../tmk_core/protocol/lufa/LUFA-git/LUFA/Drivers/USB/Core/AVR8/../AVR8/../AVR8/Endpoint_AVR8.h **** 			 *
 547:../../../../tmk_core/protocol/lufa/LUFA-git/LUFA/Drivers/USB/Core/AVR8/../AVR8/../AVR8/Endpoint_AVR8.h **** 			 *  \ingroup Group_EndpointPrimitiveRW_AVR8
 548:../../../../tmk_core/protocol/lufa/LUFA-git/LUFA/Drivers/USB/Core/AVR8/../AVR8/../AVR8/Endpoint_AVR8.h **** 			 *
 549:../../../../tmk_core/protocol/lufa/LUFA-git/LUFA/Drivers/USB/Core/AVR8/../AVR8/../AVR8/Endpoint_AVR8.h **** 			 *  \param[in] Data  Data to write into the the currently selected endpoint's FIFO buffer.
 550:../../../../tmk_core/protocol/lufa/LUFA-git/LUFA/Drivers/USB/Core/AVR8/../AVR8/../AVR8/Endpoint_AVR8.h **** 			 */
 551:../../../../tmk_core/protocol/lufa/LUFA-git/LUFA/Drivers/USB/Core/AVR8/../AVR8/../AVR8/Endpoint_AVR8.h **** 			static inline void Endpoint_Write_8(const uint8_t Data) ATTR_ALWAYS_INLINE;
 552:../../../../tmk_core/protocol/lufa/LUFA-git/LUFA/Drivers/USB/Core/AVR8/../AVR8/../AVR8/Endpoint_AVR8.h **** 			static inline void Endpoint_Write_8(const uint8_t Data)
 553:../../../../tmk_core/protocol/lufa/LUFA-git/LUFA/Drivers/USB/Core/AVR8/../AVR8/../AVR8/Endpoint_AVR8.h **** 			{
 554:../../../../tmk_core/protocol/lufa/LUFA-git/LUFA/Drivers/USB/Core/AVR8/../AVR8/../AVR8/Endpoint_AVR8.h **** 				UEDATX = Data;
 555:../../../../tmk_core/protocol/lufa/LUFA-git/LUFA/Drivers/USB/Core/AVR8/../AVR8/../AVR8/Endpoint_AVR8.h **** 			}
 556:../../../../tmk_core/protocol/lufa/LUFA-git/LUFA/Drivers/USB/Core/AVR8/../AVR8/../AVR8/Endpoint_AVR8.h **** 
 557:../../../../tmk_core/protocol/lufa/LUFA-git/LUFA/Drivers/USB/Core/AVR8/../AVR8/../AVR8/Endpoint_AVR8.h **** 			/** Discards one byte from the currently selected endpoint's bank, for OUT direction endpoints.
 558:../../../../tmk_core/protocol/lufa/LUFA-git/LUFA/Drivers/USB/Core/AVR8/../AVR8/../AVR8/Endpoint_AVR8.h **** 			 *
 559:../../../../tmk_core/protocol/lufa/LUFA-git/LUFA/Drivers/USB/Core/AVR8/../AVR8/../AVR8/Endpoint_AVR8.h **** 			 *  \ingroup Group_EndpointPrimitiveRW_AVR8
 560:../../../../tmk_core/protocol/lufa/LUFA-git/LUFA/Drivers/USB/Core/AVR8/../AVR8/../AVR8/Endpoint_AVR8.h **** 			 */
 561:../../../../tmk_core/protocol/lufa/LUFA-git/LUFA/Drivers/USB/Core/AVR8/../AVR8/../AVR8/Endpoint_AVR8.h **** 			static inline void Endpoint_Discard_8(void) ATTR_ALWAYS_INLINE;
 562:../../../../tmk_core/protocol/lufa/LUFA-git/LUFA/Drivers/USB/Core/AVR8/../AVR8/../AVR8/Endpoint_AVR8.h **** 			static inline void Endpoint_Discard_8(void)
 563:../../../../tmk_core/protocol/lufa/LUFA-git/LUFA/Drivers/USB/Core/AVR8/../AVR8/../AVR8/Endpoint_AVR8.h **** 			{
 564:../../../../tmk_core/protocol/lufa/LUFA-git/LUFA/Drivers/USB/Core/AVR8/../AVR8/../AVR8/Endpoint_AVR8.h **** 				uint8_t Dummy;
 565:../../../../tmk_core/protocol/lufa/LUFA-git/LUFA/Drivers/USB/Core/AVR8/../AVR8/../AVR8/Endpoint_AVR8.h **** 
 566:../../../../tmk_core/protocol/lufa/LUFA-git/LUFA/Drivers/USB/Core/AVR8/../AVR8/../AVR8/Endpoint_AVR8.h **** 				Dummy = UEDATX;
 124               		.loc 2 566 0
 125 0066 8091 F100 		lds r24,241
 126               	.LBE273:
 127               	.LBE272:
  67:../../../../tmk_core/protocol/lufa/LUFA-git/LUFA/Drivers/USB/Core/AVR8/EndpointStream_AVR8.c **** 			  return ErrorCode;
  68:../../../../tmk_core/protocol/lufa/LUFA-git/LUFA/Drivers/USB/Core/AVR8/EndpointStream_AVR8.c **** 		}
  69:../../../../tmk_core/protocol/lufa/LUFA-git/LUFA/Drivers/USB/Core/AVR8/EndpointStream_AVR8.c **** 		else
  70:../../../../tmk_core/protocol/lufa/LUFA-git/LUFA/Drivers/USB/Core/AVR8/EndpointStream_AVR8.c **** 		{
  71:../../../../tmk_core/protocol/lufa/LUFA-git/LUFA/Drivers/USB/Core/AVR8/EndpointStream_AVR8.c **** 			Endpoint_Discard_8();
  72:../../../../tmk_core/protocol/lufa/LUFA-git/LUFA/Drivers/USB/Core/AVR8/EndpointStream_AVR8.c **** 
  73:../../../../tmk_core/protocol/lufa/LUFA-git/LUFA/Drivers/USB/Core/AVR8/EndpointStream_AVR8.c **** 			Length--;
 128               		.loc 1 73 0
 129 006a F1E0      		ldi r31,1
 130 006c CF1A      		sub r12,r31
 131 006e D108      		sbc r13,__zero_reg__
 132               	.LVL8:
  74:../../../../tmk_core/protocol/lufa/LUFA-git/LUFA/Drivers/USB/Core/AVR8/EndpointStream_AVR8.c **** 			BytesInTransfer++;
 133               		.loc 1 74 0
 134 0070 8FEF      		ldi r24,-1
 135 0072 A81A      		sub r10,r24
 136 0074 B80A      		sbc r11,r24
 137               	.LVL9:
 138               	.L13:
  54:../../../../tmk_core/protocol/lufa/LUFA-git/LUFA/Drivers/USB/Core/AVR8/EndpointStream_AVR8.c **** 	while (Length)
 139               		.loc 1 54 0 discriminator 1
 140 0076 C114      		cp r12,__zero_reg__
 141 0078 D104      		cpc r13,__zero_reg__
 142 007a 01F4      		brne .L8
 143 007c 00C0      		rjmp .L2
 144               	.LVL10:
 145               	.L9:
  66:../../../../tmk_core/protocol/lufa/LUFA-git/LUFA/Drivers/USB/Core/AVR8/EndpointStream_AVR8.c **** 			if ((ErrorCode = Endpoint_WaitUntilReady()))
 146               		.loc 1 66 0
 147 007e C82F      		mov r28,r24
 148               	.LVL11:
 149               	.L2:
  75:../../../../tmk_core/protocol/lufa/LUFA-git/LUFA/Drivers/USB/Core/AVR8/EndpointStream_AVR8.c **** 		}
  76:../../../../tmk_core/protocol/lufa/LUFA-git/LUFA/Drivers/USB/Core/AVR8/EndpointStream_AVR8.c **** 	}
  77:../../../../tmk_core/protocol/lufa/LUFA-git/LUFA/Drivers/USB/Core/AVR8/EndpointStream_AVR8.c **** 
  78:../../../../tmk_core/protocol/lufa/LUFA-git/LUFA/Drivers/USB/Core/AVR8/EndpointStream_AVR8.c **** 	return ENDPOINT_RWSTREAM_NoError;
  79:../../../../tmk_core/protocol/lufa/LUFA-git/LUFA/Drivers/USB/Core/AVR8/EndpointStream_AVR8.c **** }
 150               		.loc 1 79 0
 151 0080 8C2F      		mov r24,r28
 152               	/* epilogue start */
 153 0082 CF91      		pop r28
 154 0084 FF90      		pop r15
 155 0086 EF90      		pop r14
 156               	.LVL12:
 157 0088 DF90      		pop r13
 158 008a CF90      		pop r12
 159               	.LVL13:
 160 008c BF90      		pop r11
 161 008e AF90      		pop r10
 162 0090 0895      		ret
 163               		.cfi_endproc
 164               	.LFE85:
 166               		.section	.text.Endpoint_Null_Stream,"ax",@progbits
 167               	.global	Endpoint_Null_Stream
 169               	Endpoint_Null_Stream:
 170               	.LFB86:
  80:../../../../tmk_core/protocol/lufa/LUFA-git/LUFA/Drivers/USB/Core/AVR8/EndpointStream_AVR8.c **** 
  81:../../../../tmk_core/protocol/lufa/LUFA-git/LUFA/Drivers/USB/Core/AVR8/EndpointStream_AVR8.c **** uint8_t Endpoint_Null_Stream(uint16_t Length,
  82:../../../../tmk_core/protocol/lufa/LUFA-git/LUFA/Drivers/USB/Core/AVR8/EndpointStream_AVR8.c ****                              uint16_t* const BytesProcessed)
  83:../../../../tmk_core/protocol/lufa/LUFA-git/LUFA/Drivers/USB/Core/AVR8/EndpointStream_AVR8.c **** {
 171               		.loc 1 83 0
 172               		.cfi_startproc
 173               	.LVL14:
 174 0000 AF92      		push r10
 175               	.LCFI7:
 176               		.cfi_def_cfa_offset 3
 177               		.cfi_offset 10, -2
 178 0002 BF92      		push r11
 179               	.LCFI8:
 180               		.cfi_def_cfa_offset 4
 181               		.cfi_offset 11, -3
 182 0004 CF92      		push r12
 183               	.LCFI9:
 184               		.cfi_def_cfa_offset 5
 185               		.cfi_offset 12, -4
 186 0006 DF92      		push r13
 187               	.LCFI10:
 188               		.cfi_def_cfa_offset 6
 189               		.cfi_offset 13, -5
 190 0008 EF92      		push r14
 191               	.LCFI11:
 192               		.cfi_def_cfa_offset 7
 193               		.cfi_offset 14, -6
 194 000a FF92      		push r15
 195               	.LCFI12:
 196               		.cfi_def_cfa_offset 8
 197               		.cfi_offset 15, -7
 198 000c CF93      		push r28
 199               	.LCFI13:
 200               		.cfi_def_cfa_offset 9
 201               		.cfi_offset 28, -8
 202               	/* prologue: function */
 203               	/* frame size = 0 */
 204               	/* stack size = 7 */
 205               	.L__stack_usage = 7
 206 000e 6C01      		movw r12,r24
 207 0010 7B01      		movw r14,r22
 208               	.LVL15:
  84:../../../../tmk_core/protocol/lufa/LUFA-git/LUFA/Drivers/USB/Core/AVR8/EndpointStream_AVR8.c **** 	uint8_t  ErrorCode;
  85:../../../../tmk_core/protocol/lufa/LUFA-git/LUFA/Drivers/USB/Core/AVR8/EndpointStream_AVR8.c **** 	uint16_t BytesInTransfer = 0;
  86:../../../../tmk_core/protocol/lufa/LUFA-git/LUFA/Drivers/USB/Core/AVR8/EndpointStream_AVR8.c **** 
  87:../../../../tmk_core/protocol/lufa/LUFA-git/LUFA/Drivers/USB/Core/AVR8/EndpointStream_AVR8.c **** 	if ((ErrorCode = Endpoint_WaitUntilReady()))
 209               		.loc 1 87 0
 210 0012 0E94 0000 		call Endpoint_WaitUntilReady
 211               	.LVL16:
 212 0016 C82F      		mov r28,r24
 213               	.LVL17:
 214 0018 8111      		cpse r24,__zero_reg__
 215 001a 00C0      		rjmp .L15
  88:../../../../tmk_core/protocol/lufa/LUFA-git/LUFA/Drivers/USB/Core/AVR8/EndpointStream_AVR8.c **** 	  return ErrorCode;
  89:../../../../tmk_core/protocol/lufa/LUFA-git/LUFA/Drivers/USB/Core/AVR8/EndpointStream_AVR8.c **** 
  90:../../../../tmk_core/protocol/lufa/LUFA-git/LUFA/Drivers/USB/Core/AVR8/EndpointStream_AVR8.c **** 	if (BytesProcessed != NULL)
 216               		.loc 1 90 0
 217 001c E114      		cp r14,__zero_reg__
 218 001e F104      		cpc r15,__zero_reg__
 219 0020 01F0      		breq .L16
  91:../../../../tmk_core/protocol/lufa/LUFA-git/LUFA/Drivers/USB/Core/AVR8/EndpointStream_AVR8.c **** 	  Length -= *BytesProcessed;
 220               		.loc 1 91 0
 221 0022 F701      		movw r30,r14
 222 0024 2081      		ld r18,Z
 223 0026 3181      		ldd r19,Z+1
 224 0028 C21A      		sub r12,r18
 225 002a D30A      		sbc r13,r19
 226               	.LVL18:
 227               	.L16:
  83:../../../../tmk_core/protocol/lufa/LUFA-git/LUFA/Drivers/USB/Core/AVR8/EndpointStream_AVR8.c **** {
 228               		.loc 1 83 0 discriminator 1
 229 002c A12C      		mov r10,__zero_reg__
 230 002e B12C      		mov r11,__zero_reg__
 231 0030 00C0      		rjmp .L26
 232               	.LVL19:
 233               	.L21:
 234               	.LBB274:
 235               	.LBB275:
 360:../../../../tmk_core/protocol/lufa/LUFA-git/LUFA/Drivers/USB/Core/AVR8/../AVR8/../AVR8/Endpoint_AVR8.h **** 				return ((UEINTX & (1 << RWAL)) ? true : false);
 236               		.loc 2 360 0
 237 0032 8091 E800 		lds r24,232
 238               	.LBE275:
 239               	.LBE274:
  92:../../../../tmk_core/protocol/lufa/LUFA-git/LUFA/Drivers/USB/Core/AVR8/EndpointStream_AVR8.c **** 
  93:../../../../tmk_core/protocol/lufa/LUFA-git/LUFA/Drivers/USB/Core/AVR8/EndpointStream_AVR8.c **** 	while (Length)
  94:../../../../tmk_core/protocol/lufa/LUFA-git/LUFA/Drivers/USB/Core/AVR8/EndpointStream_AVR8.c **** 	{
  95:../../../../tmk_core/protocol/lufa/LUFA-git/LUFA/Drivers/USB/Core/AVR8/EndpointStream_AVR8.c **** 		if (!(Endpoint_IsReadWriteAllowed()))
 240               		.loc 1 95 0
 241 0036 85FD      		sbrc r24,5
 242 0038 00C0      		rjmp .L18
 243               	.LBB276:
 244               	.LBB277:
 456:../../../../tmk_core/protocol/lufa/LUFA-git/LUFA/Drivers/USB/Core/AVR8/../AVR8/../AVR8/Endpoint_AVR8.h **** 					UEINTX &= ~((1 << TXINI) | (1 << FIFOCON));
 245               		.loc 2 456 0
 246 003a 8091 E800 		lds r24,232
 247 003e 8E77      		andi r24,lo8(126)
 248 0040 8093 E800 		sts 232,r24
 249               	.LBE277:
 250               	.LBE276:
  96:../../../../tmk_core/protocol/lufa/LUFA-git/LUFA/Drivers/USB/Core/AVR8/EndpointStream_AVR8.c **** 		{
  97:../../../../tmk_core/protocol/lufa/LUFA-git/LUFA/Drivers/USB/Core/AVR8/EndpointStream_AVR8.c **** 			Endpoint_ClearIN();
  98:../../../../tmk_core/protocol/lufa/LUFA-git/LUFA/Drivers/USB/Core/AVR8/EndpointStream_AVR8.c **** 
  99:../../../../tmk_core/protocol/lufa/LUFA-git/LUFA/Drivers/USB/Core/AVR8/EndpointStream_AVR8.c **** 			if (BytesProcessed != NULL)
 251               		.loc 1 99 0
 252 0044 E114      		cp r14,__zero_reg__
 253 0046 F104      		cpc r15,__zero_reg__
 254 0048 01F0      		breq .L19
 100:../../../../tmk_core/protocol/lufa/LUFA-git/LUFA/Drivers/USB/Core/AVR8/EndpointStream_AVR8.c **** 			{
 101:../../../../tmk_core/protocol/lufa/LUFA-git/LUFA/Drivers/USB/Core/AVR8/EndpointStream_AVR8.c **** 				*BytesProcessed += BytesInTransfer;
 255               		.loc 1 101 0
 256 004a F701      		movw r30,r14
 257 004c 8081      		ld r24,Z
 258 004e 9181      		ldd r25,Z+1
 259 0050 8A0D      		add r24,r10
 260 0052 9B1D      		adc r25,r11
 261 0054 9183      		std Z+1,r25
 262 0056 8083      		st Z,r24
 102:../../../../tmk_core/protocol/lufa/LUFA-git/LUFA/Drivers/USB/Core/AVR8/EndpointStream_AVR8.c **** 				return ENDPOINT_RWSTREAM_IncompleteTransfer;
 263               		.loc 1 102 0
 264 0058 C5E0      		ldi r28,lo8(5)
 265 005a 00C0      		rjmp .L15
 266               	.L19:
 103:../../../../tmk_core/protocol/lufa/LUFA-git/LUFA/Drivers/USB/Core/AVR8/EndpointStream_AVR8.c **** 			}
 104:../../../../tmk_core/protocol/lufa/LUFA-git/LUFA/Drivers/USB/Core/AVR8/EndpointStream_AVR8.c **** 
 105:../../../../tmk_core/protocol/lufa/LUFA-git/LUFA/Drivers/USB/Core/AVR8/EndpointStream_AVR8.c **** 			if ((ErrorCode = Endpoint_WaitUntilReady()))
 267               		.loc 1 105 0
 268 005c 0E94 0000 		call Endpoint_WaitUntilReady
 269               	.LVL20:
 270 0060 8823      		tst r24
 271 0062 01F0      		breq .L26
 272 0064 00C0      		rjmp .L22
 273               	.LVL21:
 274               	.L18:
 275               	.LBB278:
 276               	.LBB279:
 554:../../../../tmk_core/protocol/lufa/LUFA-git/LUFA/Drivers/USB/Core/AVR8/../AVR8/../AVR8/Endpoint_AVR8.h **** 				UEDATX = Data;
 277               		.loc 2 554 0
 278 0066 1092 F100 		sts 241,__zero_reg__
 279               	.LBE279:
 280               	.LBE278:
 106:../../../../tmk_core/protocol/lufa/LUFA-git/LUFA/Drivers/USB/Core/AVR8/EndpointStream_AVR8.c **** 			  return ErrorCode;
 107:../../../../tmk_core/protocol/lufa/LUFA-git/LUFA/Drivers/USB/Core/AVR8/EndpointStream_AVR8.c **** 		}
 108:../../../../tmk_core/protocol/lufa/LUFA-git/LUFA/Drivers/USB/Core/AVR8/EndpointStream_AVR8.c **** 		else
 109:../../../../tmk_core/protocol/lufa/LUFA-git/LUFA/Drivers/USB/Core/AVR8/EndpointStream_AVR8.c **** 		{
 110:../../../../tmk_core/protocol/lufa/LUFA-git/LUFA/Drivers/USB/Core/AVR8/EndpointStream_AVR8.c **** 			Endpoint_Write_8(0);
 111:../../../../tmk_core/protocol/lufa/LUFA-git/LUFA/Drivers/USB/Core/AVR8/EndpointStream_AVR8.c **** 
 112:../../../../tmk_core/protocol/lufa/LUFA-git/LUFA/Drivers/USB/Core/AVR8/EndpointStream_AVR8.c **** 			Length--;
 281               		.loc 1 112 0
 282 006a F1E0      		ldi r31,1
 283 006c CF1A      		sub r12,r31
 284 006e D108      		sbc r13,__zero_reg__
 285               	.LVL22:
 113:../../../../tmk_core/protocol/lufa/LUFA-git/LUFA/Drivers/USB/Core/AVR8/EndpointStream_AVR8.c **** 			BytesInTransfer++;
 286               		.loc 1 113 0
 287 0070 8FEF      		ldi r24,-1
 288 0072 A81A      		sub r10,r24
 289 0074 B80A      		sbc r11,r24
 290               	.LVL23:
 291               	.L26:
  93:../../../../tmk_core/protocol/lufa/LUFA-git/LUFA/Drivers/USB/Core/AVR8/EndpointStream_AVR8.c **** 	while (Length)
 292               		.loc 1 93 0 discriminator 1
 293 0076 C114      		cp r12,__zero_reg__
 294 0078 D104      		cpc r13,__zero_reg__
 295 007a 01F4      		brne .L21
 296 007c 00C0      		rjmp .L15
 297               	.LVL24:
 298               	.L22:
 105:../../../../tmk_core/protocol/lufa/LUFA-git/LUFA/Drivers/USB/Core/AVR8/EndpointStream_AVR8.c **** 			if ((ErrorCode = Endpoint_WaitUntilReady()))
 299               		.loc 1 105 0
 300 007e C82F      		mov r28,r24
 301               	.LVL25:
 302               	.L15:
 114:../../../../tmk_core/protocol/lufa/LUFA-git/LUFA/Drivers/USB/Core/AVR8/EndpointStream_AVR8.c **** 		}
 115:../../../../tmk_core/protocol/lufa/LUFA-git/LUFA/Drivers/USB/Core/AVR8/EndpointStream_AVR8.c **** 	}
 116:../../../../tmk_core/protocol/lufa/LUFA-git/LUFA/Drivers/USB/Core/AVR8/EndpointStream_AVR8.c **** 
 117:../../../../tmk_core/protocol/lufa/LUFA-git/LUFA/Drivers/USB/Core/AVR8/EndpointStream_AVR8.c **** 	return ENDPOINT_RWSTREAM_NoError;
 118:../../../../tmk_core/protocol/lufa/LUFA-git/LUFA/Drivers/USB/Core/AVR8/EndpointStream_AVR8.c **** }
 303               		.loc 1 118 0
 304 0080 8C2F      		mov r24,r28
 305               	/* epilogue start */
 306 0082 CF91      		pop r28
 307 0084 FF90      		pop r15
 308 0086 EF90      		pop r14
 309               	.LVL26:
 310 0088 DF90      		pop r13
 311 008a CF90      		pop r12
 312               	.LVL27:
 313 008c BF90      		pop r11
 314 008e AF90      		pop r10
 315 0090 0895      		ret
 316               		.cfi_endproc
 317               	.LFE86:
 319               		.section	.text.Endpoint_Write_Stream_LE,"ax",@progbits
 320               	.global	Endpoint_Write_Stream_LE
 322               	Endpoint_Write_Stream_LE:
 323               	.LFB87:
 324               		.file 3 "../../../../tmk_core/protocol/lufa/LUFA-git/LUFA/Drivers/USB/Core/AVR8/Template/Template_
   1:../../../../tmk_core/protocol/lufa/LUFA-git/LUFA/Drivers/USB/Core/AVR8/Template/Template_Endpoint_RW.c **** /*
   2:../../../../tmk_core/protocol/lufa/LUFA-git/LUFA/Drivers/USB/Core/AVR8/Template/Template_Endpoint_RW.c ****              LUFA Library
   3:../../../../tmk_core/protocol/lufa/LUFA-git/LUFA/Drivers/USB/Core/AVR8/Template/Template_Endpoint_RW.c ****      Copyright (C) Dean Camera, 2014.
   4:../../../../tmk_core/protocol/lufa/LUFA-git/LUFA/Drivers/USB/Core/AVR8/Template/Template_Endpoint_RW.c **** 
   5:../../../../tmk_core/protocol/lufa/LUFA-git/LUFA/Drivers/USB/Core/AVR8/Template/Template_Endpoint_RW.c ****   dean [at] fourwalledcubicle [dot] com
   6:../../../../tmk_core/protocol/lufa/LUFA-git/LUFA/Drivers/USB/Core/AVR8/Template/Template_Endpoint_RW.c ****            www.lufa-lib.org
   7:../../../../tmk_core/protocol/lufa/LUFA-git/LUFA/Drivers/USB/Core/AVR8/Template/Template_Endpoint_RW.c **** */
   8:../../../../tmk_core/protocol/lufa/LUFA-git/LUFA/Drivers/USB/Core/AVR8/Template/Template_Endpoint_RW.c **** 
   9:../../../../tmk_core/protocol/lufa/LUFA-git/LUFA/Drivers/USB/Core/AVR8/Template/Template_Endpoint_RW.c **** /*
  10:../../../../tmk_core/protocol/lufa/LUFA-git/LUFA/Drivers/USB/Core/AVR8/Template/Template_Endpoint_RW.c ****   Copyright 2014  Dean Camera (dean [at] fourwalledcubicle [dot] com)
  11:../../../../tmk_core/protocol/lufa/LUFA-git/LUFA/Drivers/USB/Core/AVR8/Template/Template_Endpoint_RW.c **** 
  12:../../../../tmk_core/protocol/lufa/LUFA-git/LUFA/Drivers/USB/Core/AVR8/Template/Template_Endpoint_RW.c ****   Permission to use, copy, modify, distribute, and sell this
  13:../../../../tmk_core/protocol/lufa/LUFA-git/LUFA/Drivers/USB/Core/AVR8/Template/Template_Endpoint_RW.c ****   software and its documentation for any purpose is hereby granted
  14:../../../../tmk_core/protocol/lufa/LUFA-git/LUFA/Drivers/USB/Core/AVR8/Template/Template_Endpoint_RW.c ****   without fee, provided that the above copyright notice appear in
  15:../../../../tmk_core/protocol/lufa/LUFA-git/LUFA/Drivers/USB/Core/AVR8/Template/Template_Endpoint_RW.c ****   all copies and that both that the copyright notice and this
  16:../../../../tmk_core/protocol/lufa/LUFA-git/LUFA/Drivers/USB/Core/AVR8/Template/Template_Endpoint_RW.c ****   permission notice and warranty disclaimer appear in supporting
  17:../../../../tmk_core/protocol/lufa/LUFA-git/LUFA/Drivers/USB/Core/AVR8/Template/Template_Endpoint_RW.c ****   documentation, and that the name of the author not be used in
  18:../../../../tmk_core/protocol/lufa/LUFA-git/LUFA/Drivers/USB/Core/AVR8/Template/Template_Endpoint_RW.c ****   advertising or publicity pertaining to distribution of the
  19:../../../../tmk_core/protocol/lufa/LUFA-git/LUFA/Drivers/USB/Core/AVR8/Template/Template_Endpoint_RW.c ****   software without specific, written prior permission.
  20:../../../../tmk_core/protocol/lufa/LUFA-git/LUFA/Drivers/USB/Core/AVR8/Template/Template_Endpoint_RW.c **** 
  21:../../../../tmk_core/protocol/lufa/LUFA-git/LUFA/Drivers/USB/Core/AVR8/Template/Template_Endpoint_RW.c ****   The author disclaims all warranties with regard to this
  22:../../../../tmk_core/protocol/lufa/LUFA-git/LUFA/Drivers/USB/Core/AVR8/Template/Template_Endpoint_RW.c ****   software, including all implied warranties of merchantability
  23:../../../../tmk_core/protocol/lufa/LUFA-git/LUFA/Drivers/USB/Core/AVR8/Template/Template_Endpoint_RW.c ****   and fitness.  In no event shall the author be liable for any
  24:../../../../tmk_core/protocol/lufa/LUFA-git/LUFA/Drivers/USB/Core/AVR8/Template/Template_Endpoint_RW.c ****   special, indirect or consequential damages or any damages
  25:../../../../tmk_core/protocol/lufa/LUFA-git/LUFA/Drivers/USB/Core/AVR8/Template/Template_Endpoint_RW.c ****   whatsoever resulting from loss of use, data or profits, whether
  26:../../../../tmk_core/protocol/lufa/LUFA-git/LUFA/Drivers/USB/Core/AVR8/Template/Template_Endpoint_RW.c ****   in an action of contract, negligence or other tortious action,
  27:../../../../tmk_core/protocol/lufa/LUFA-git/LUFA/Drivers/USB/Core/AVR8/Template/Template_Endpoint_RW.c ****   arising out of or in connection with the use or performance of
  28:../../../../tmk_core/protocol/lufa/LUFA-git/LUFA/Drivers/USB/Core/AVR8/Template/Template_Endpoint_RW.c ****   this software.
  29:../../../../tmk_core/protocol/lufa/LUFA-git/LUFA/Drivers/USB/Core/AVR8/Template/Template_Endpoint_RW.c **** */
  30:../../../../tmk_core/protocol/lufa/LUFA-git/LUFA/Drivers/USB/Core/AVR8/Template/Template_Endpoint_RW.c **** 
  31:../../../../tmk_core/protocol/lufa/LUFA-git/LUFA/Drivers/USB/Core/AVR8/Template/Template_Endpoint_RW.c **** #if defined(TEMPLATE_FUNC_NAME)
  32:../../../../tmk_core/protocol/lufa/LUFA-git/LUFA/Drivers/USB/Core/AVR8/Template/Template_Endpoint_RW.c **** 
  33:../../../../tmk_core/protocol/lufa/LUFA-git/LUFA/Drivers/USB/Core/AVR8/Template/Template_Endpoint_RW.c **** uint8_t TEMPLATE_FUNC_NAME (TEMPLATE_BUFFER_TYPE const Buffer,
  34:../../../../tmk_core/protocol/lufa/LUFA-git/LUFA/Drivers/USB/Core/AVR8/Template/Template_Endpoint_RW.c ****                             uint16_t Length,
  35:../../../../tmk_core/protocol/lufa/LUFA-git/LUFA/Drivers/USB/Core/AVR8/Template/Template_Endpoint_RW.c ****                             uint16_t* const BytesProcessed)
  36:../../../../tmk_core/protocol/lufa/LUFA-git/LUFA/Drivers/USB/Core/AVR8/Template/Template_Endpoint_RW.c **** {
 325               		.loc 3 36 0
 326               		.cfi_startproc
 327               	.LVL28:
 328 0000 8F92      		push r8
 329               	.LCFI14:
 330               		.cfi_def_cfa_offset 3
 331               		.cfi_offset 8, -2
 332 0002 9F92      		push r9
 333               	.LCFI15:
 334               		.cfi_def_cfa_offset 4
 335               		.cfi_offset 9, -3
 336 0004 AF92      		push r10
 337               	.LCFI16:
 338               		.cfi_def_cfa_offset 5
 339               		.cfi_offset 10, -4
 340 0006 BF92      		push r11
 341               	.LCFI17:
 342               		.cfi_def_cfa_offset 6
 343               		.cfi_offset 11, -5
 344 0008 CF92      		push r12
 345               	.LCFI18:
 346               		.cfi_def_cfa_offset 7
 347               		.cfi_offset 12, -6
 348 000a DF92      		push r13
 349               	.LCFI19:
 350               		.cfi_def_cfa_offset 8
 351               		.cfi_offset 13, -7
 352 000c EF92      		push r14
 353               	.LCFI20:
 354               		.cfi_def_cfa_offset 9
 355               		.cfi_offset 14, -8
 356 000e FF92      		push r15
 357               	.LCFI21:
 358               		.cfi_def_cfa_offset 10
 359               		.cfi_offset 15, -9
 360 0010 CF93      		push r28
 361               	.LCFI22:
 362               		.cfi_def_cfa_offset 11
 363               		.cfi_offset 28, -10
 364               	/* prologue: function */
 365               	/* frame size = 0 */
 366               	/* stack size = 9 */
 367               	.L__stack_usage = 9
 368 0012 5C01      		movw r10,r24
 369 0014 6B01      		movw r12,r22
 370 0016 7A01      		movw r14,r20
 371               	.LVL29:
  37:../../../../tmk_core/protocol/lufa/LUFA-git/LUFA/Drivers/USB/Core/AVR8/Template/Template_Endpoint_RW.c **** 	uint8_t* DataStream      = ((uint8_t*)Buffer + TEMPLATE_BUFFER_OFFSET(Length));
  38:../../../../tmk_core/protocol/lufa/LUFA-git/LUFA/Drivers/USB/Core/AVR8/Template/Template_Endpoint_RW.c **** 	uint16_t BytesInTransfer = 0;
  39:../../../../tmk_core/protocol/lufa/LUFA-git/LUFA/Drivers/USB/Core/AVR8/Template/Template_Endpoint_RW.c **** 	uint8_t  ErrorCode;
  40:../../../../tmk_core/protocol/lufa/LUFA-git/LUFA/Drivers/USB/Core/AVR8/Template/Template_Endpoint_RW.c **** 
  41:../../../../tmk_core/protocol/lufa/LUFA-git/LUFA/Drivers/USB/Core/AVR8/Template/Template_Endpoint_RW.c **** 	if ((ErrorCode = Endpoint_WaitUntilReady()))
 372               		.loc 3 41 0
 373 0018 0E94 0000 		call Endpoint_WaitUntilReady
 374               	.LVL30:
 375 001c C82F      		mov r28,r24
 376               	.LVL31:
 377 001e 8111      		cpse r24,__zero_reg__
 378 0020 00C0      		rjmp .L28
  42:../../../../tmk_core/protocol/lufa/LUFA-git/LUFA/Drivers/USB/Core/AVR8/Template/Template_Endpoint_RW.c **** 	  return ErrorCode;
  43:../../../../tmk_core/protocol/lufa/LUFA-git/LUFA/Drivers/USB/Core/AVR8/Template/Template_Endpoint_RW.c **** 
  44:../../../../tmk_core/protocol/lufa/LUFA-git/LUFA/Drivers/USB/Core/AVR8/Template/Template_Endpoint_RW.c **** 	if (BytesProcessed != NULL)
 379               		.loc 3 44 0
 380 0022 E114      		cp r14,__zero_reg__
 381 0024 F104      		cpc r15,__zero_reg__
 382 0026 01F0      		breq .L29
  45:../../../../tmk_core/protocol/lufa/LUFA-git/LUFA/Drivers/USB/Core/AVR8/Template/Template_Endpoint_RW.c **** 	{
  46:../../../../tmk_core/protocol/lufa/LUFA-git/LUFA/Drivers/USB/Core/AVR8/Template/Template_Endpoint_RW.c **** 		Length -= *BytesProcessed;
 383               		.loc 3 46 0
 384 0028 F701      		movw r30,r14
 385 002a 2081      		ld r18,Z
 386 002c 3181      		ldd r19,Z+1
 387 002e C21A      		sub r12,r18
 388 0030 D30A      		sbc r13,r19
 389               	.LVL32:
  47:../../../../tmk_core/protocol/lufa/LUFA-git/LUFA/Drivers/USB/Core/AVR8/Template/Template_Endpoint_RW.c **** 		TEMPLATE_BUFFER_MOVE(DataStream, *BytesProcessed);
 390               		.loc 3 47 0
 391 0032 A20E      		add r10,r18
 392 0034 B31E      		adc r11,r19
 393               	.LVL33:
 394               	.L29:
  37:../../../../tmk_core/protocol/lufa/LUFA-git/LUFA/Drivers/USB/Core/AVR8/Template/Template_Endpoint_RW.c **** 	uint8_t* DataStream      = ((uint8_t*)Buffer + TEMPLATE_BUFFER_OFFSET(Length));
 395               		.loc 3 37 0 discriminator 1
 396 0036 812C      		mov r8,__zero_reg__
 397 0038 912C      		mov r9,__zero_reg__
 398 003a 00C0      		rjmp .L37
 399               	.LVL34:
 400               	.L34:
 401               	.LBB280:
 402               	.LBB281:
 360:../../../../tmk_core/protocol/lufa/LUFA-git/LUFA/Drivers/USB/Core/AVR8/../AVR8/../AVR8/Endpoint_AVR8.h **** 				return ((UEINTX & (1 << RWAL)) ? true : false);
 403               		.loc 2 360 0
 404 003c 8091 E800 		lds r24,232
 405               	.LBE281:
 406               	.LBE280:
  48:../../../../tmk_core/protocol/lufa/LUFA-git/LUFA/Drivers/USB/Core/AVR8/Template/Template_Endpoint_RW.c **** 	}
  49:../../../../tmk_core/protocol/lufa/LUFA-git/LUFA/Drivers/USB/Core/AVR8/Template/Template_Endpoint_RW.c **** 
  50:../../../../tmk_core/protocol/lufa/LUFA-git/LUFA/Drivers/USB/Core/AVR8/Template/Template_Endpoint_RW.c **** 	while (Length)
  51:../../../../tmk_core/protocol/lufa/LUFA-git/LUFA/Drivers/USB/Core/AVR8/Template/Template_Endpoint_RW.c **** 	{
  52:../../../../tmk_core/protocol/lufa/LUFA-git/LUFA/Drivers/USB/Core/AVR8/Template/Template_Endpoint_RW.c **** 		if (!(Endpoint_IsReadWriteAllowed()))
 407               		.loc 3 52 0
 408 0040 85FD      		sbrc r24,5
 409 0042 00C0      		rjmp .L31
 410               	.LBB282:
 411               	.LBB283:
 456:../../../../tmk_core/protocol/lufa/LUFA-git/LUFA/Drivers/USB/Core/AVR8/../AVR8/../AVR8/Endpoint_AVR8.h **** 					UEINTX &= ~((1 << TXINI) | (1 << FIFOCON));
 412               		.loc 2 456 0
 413 0044 8091 E800 		lds r24,232
 414 0048 8E77      		andi r24,lo8(126)
 415 004a 8093 E800 		sts 232,r24
 416               	.LBE283:
 417               	.LBE282:
  53:../../../../tmk_core/protocol/lufa/LUFA-git/LUFA/Drivers/USB/Core/AVR8/Template/Template_Endpoint_RW.c **** 		{
  54:../../../../tmk_core/protocol/lufa/LUFA-git/LUFA/Drivers/USB/Core/AVR8/Template/Template_Endpoint_RW.c **** 			TEMPLATE_CLEAR_ENDPOINT();
  55:../../../../tmk_core/protocol/lufa/LUFA-git/LUFA/Drivers/USB/Core/AVR8/Template/Template_Endpoint_RW.c **** 
  56:../../../../tmk_core/protocol/lufa/LUFA-git/LUFA/Drivers/USB/Core/AVR8/Template/Template_Endpoint_RW.c **** 			#if !defined(INTERRUPT_CONTROL_ENDPOINT)
  57:../../../../tmk_core/protocol/lufa/LUFA-git/LUFA/Drivers/USB/Core/AVR8/Template/Template_Endpoint_RW.c **** 			USB_USBTask();
  58:../../../../tmk_core/protocol/lufa/LUFA-git/LUFA/Drivers/USB/Core/AVR8/Template/Template_Endpoint_RW.c **** 			#endif
  59:../../../../tmk_core/protocol/lufa/LUFA-git/LUFA/Drivers/USB/Core/AVR8/Template/Template_Endpoint_RW.c **** 
  60:../../../../tmk_core/protocol/lufa/LUFA-git/LUFA/Drivers/USB/Core/AVR8/Template/Template_Endpoint_RW.c **** 			if (BytesProcessed != NULL)
 418               		.loc 3 60 0
 419 004e E114      		cp r14,__zero_reg__
 420 0050 F104      		cpc r15,__zero_reg__
 421 0052 01F0      		breq .L32
  61:../../../../tmk_core/protocol/lufa/LUFA-git/LUFA/Drivers/USB/Core/AVR8/Template/Template_Endpoint_RW.c **** 			{
  62:../../../../tmk_core/protocol/lufa/LUFA-git/LUFA/Drivers/USB/Core/AVR8/Template/Template_Endpoint_RW.c **** 				*BytesProcessed += BytesInTransfer;
 422               		.loc 3 62 0
 423 0054 F701      		movw r30,r14
 424 0056 8081      		ld r24,Z
 425 0058 9181      		ldd r25,Z+1
 426 005a 880D      		add r24,r8
 427 005c 991D      		adc r25,r9
 428 005e 9183      		std Z+1,r25
 429 0060 8083      		st Z,r24
  63:../../../../tmk_core/protocol/lufa/LUFA-git/LUFA/Drivers/USB/Core/AVR8/Template/Template_Endpoint_RW.c **** 				return ENDPOINT_RWSTREAM_IncompleteTransfer;
 430               		.loc 3 63 0
 431 0062 C5E0      		ldi r28,lo8(5)
 432 0064 00C0      		rjmp .L28
 433               	.L32:
  64:../../../../tmk_core/protocol/lufa/LUFA-git/LUFA/Drivers/USB/Core/AVR8/Template/Template_Endpoint_RW.c **** 			}
  65:../../../../tmk_core/protocol/lufa/LUFA-git/LUFA/Drivers/USB/Core/AVR8/Template/Template_Endpoint_RW.c **** 
  66:../../../../tmk_core/protocol/lufa/LUFA-git/LUFA/Drivers/USB/Core/AVR8/Template/Template_Endpoint_RW.c **** 			if ((ErrorCode = Endpoint_WaitUntilReady()))
 434               		.loc 3 66 0
 435 0066 0E94 0000 		call Endpoint_WaitUntilReady
 436               	.LVL35:
 437 006a 8823      		tst r24
 438 006c 01F0      		breq .L37
 439 006e 00C0      		rjmp .L36
 440               	.LVL36:
 441               	.L31:
  67:../../../../tmk_core/protocol/lufa/LUFA-git/LUFA/Drivers/USB/Core/AVR8/Template/Template_Endpoint_RW.c **** 			  return ErrorCode;
  68:../../../../tmk_core/protocol/lufa/LUFA-git/LUFA/Drivers/USB/Core/AVR8/Template/Template_Endpoint_RW.c **** 		}
  69:../../../../tmk_core/protocol/lufa/LUFA-git/LUFA/Drivers/USB/Core/AVR8/Template/Template_Endpoint_RW.c **** 		else
  70:../../../../tmk_core/protocol/lufa/LUFA-git/LUFA/Drivers/USB/Core/AVR8/Template/Template_Endpoint_RW.c **** 		{
  71:../../../../tmk_core/protocol/lufa/LUFA-git/LUFA/Drivers/USB/Core/AVR8/Template/Template_Endpoint_RW.c **** 			TEMPLATE_TRANSFER_BYTE(DataStream);
 442               		.loc 3 71 0
 443 0070 F501      		movw r30,r10
 444 0072 8191      		ld r24,Z+
 445 0074 5F01      		movw r10,r30
 446               	.LVL37:
 447               	.LBB284:
 448               	.LBB285:
 554:../../../../tmk_core/protocol/lufa/LUFA-git/LUFA/Drivers/USB/Core/AVR8/../AVR8/../AVR8/Endpoint_AVR8.h **** 				UEDATX = Data;
 449               		.loc 2 554 0
 450 0076 8093 F100 		sts 241,r24
 451               	.LVL38:
 452               	.LBE285:
 453               	.LBE284:
  72:../../../../tmk_core/protocol/lufa/LUFA-git/LUFA/Drivers/USB/Core/AVR8/Template/Template_Endpoint_RW.c **** 			TEMPLATE_BUFFER_MOVE(DataStream, 1);
  73:../../../../tmk_core/protocol/lufa/LUFA-git/LUFA/Drivers/USB/Core/AVR8/Template/Template_Endpoint_RW.c **** 			Length--;
 454               		.loc 3 73 0
 455 007a F1E0      		ldi r31,1
 456 007c CF1A      		sub r12,r31
 457 007e D108      		sbc r13,__zero_reg__
 458               	.LVL39:
  74:../../../../tmk_core/protocol/lufa/LUFA-git/LUFA/Drivers/USB/Core/AVR8/Template/Template_Endpoint_RW.c **** 			BytesInTransfer++;
 459               		.loc 3 74 0
 460 0080 8FEF      		ldi r24,-1
 461 0082 881A      		sub r8,r24
 462 0084 980A      		sbc r9,r24
 463               	.LVL40:
 464               	.L37:
  50:../../../../tmk_core/protocol/lufa/LUFA-git/LUFA/Drivers/USB/Core/AVR8/Template/Template_Endpoint_RW.c **** 	while (Length)
 465               		.loc 3 50 0 discriminator 1
 466 0086 C114      		cp r12,__zero_reg__
 467 0088 D104      		cpc r13,__zero_reg__
 468 008a 01F4      		brne .L34
 469 008c 00C0      		rjmp .L28
 470               	.LVL41:
 471               	.L36:
  66:../../../../tmk_core/protocol/lufa/LUFA-git/LUFA/Drivers/USB/Core/AVR8/Template/Template_Endpoint_RW.c **** 			if ((ErrorCode = Endpoint_WaitUntilReady()))
 472               		.loc 3 66 0
 473 008e C82F      		mov r28,r24
 474               	.LVL42:
 475               	.L28:
  75:../../../../tmk_core/protocol/lufa/LUFA-git/LUFA/Drivers/USB/Core/AVR8/Template/Template_Endpoint_RW.c **** 		}
  76:../../../../tmk_core/protocol/lufa/LUFA-git/LUFA/Drivers/USB/Core/AVR8/Template/Template_Endpoint_RW.c **** 	}
  77:../../../../tmk_core/protocol/lufa/LUFA-git/LUFA/Drivers/USB/Core/AVR8/Template/Template_Endpoint_RW.c **** 
  78:../../../../tmk_core/protocol/lufa/LUFA-git/LUFA/Drivers/USB/Core/AVR8/Template/Template_Endpoint_RW.c **** 	return ENDPOINT_RWSTREAM_NoError;
  79:../../../../tmk_core/protocol/lufa/LUFA-git/LUFA/Drivers/USB/Core/AVR8/Template/Template_Endpoint_RW.c **** }
 476               		.loc 3 79 0
 477 0090 8C2F      		mov r24,r28
 478               	/* epilogue start */
 479 0092 CF91      		pop r28
 480 0094 FF90      		pop r15
 481 0096 EF90      		pop r14
 482               	.LVL43:
 483 0098 DF90      		pop r13
 484 009a CF90      		pop r12
 485               	.LVL44:
 486 009c BF90      		pop r11
 487 009e AF90      		pop r10
 488               	.LVL45:
 489 00a0 9F90      		pop r9
 490 00a2 8F90      		pop r8
 491 00a4 0895      		ret
 492               		.cfi_endproc
 493               	.LFE87:
 495               		.section	.text.Endpoint_Write_Stream_BE,"ax",@progbits
 496               	.global	Endpoint_Write_Stream_BE
 498               	Endpoint_Write_Stream_BE:
 499               	.LFB88:
  36:../../../../tmk_core/protocol/lufa/LUFA-git/LUFA/Drivers/USB/Core/AVR8/Template/Template_Endpoint_RW.c **** {
 500               		.loc 3 36 0
 501               		.cfi_startproc
 502               	.LVL46:
 503 0000 8F92      		push r8
 504               	.LCFI23:
 505               		.cfi_def_cfa_offset 3
 506               		.cfi_offset 8, -2
 507 0002 9F92      		push r9
 508               	.LCFI24:
 509               		.cfi_def_cfa_offset 4
 510               		.cfi_offset 9, -3
 511 0004 AF92      		push r10
 512               	.LCFI25:
 513               		.cfi_def_cfa_offset 5
 514               		.cfi_offset 10, -4
 515 0006 BF92      		push r11
 516               	.LCFI26:
 517               		.cfi_def_cfa_offset 6
 518               		.cfi_offset 11, -5
 519 0008 CF92      		push r12
 520               	.LCFI27:
 521               		.cfi_def_cfa_offset 7
 522               		.cfi_offset 12, -6
 523 000a DF92      		push r13
 524               	.LCFI28:
 525               		.cfi_def_cfa_offset 8
 526               		.cfi_offset 13, -7
 527 000c EF92      		push r14
 528               	.LCFI29:
 529               		.cfi_def_cfa_offset 9
 530               		.cfi_offset 14, -8
 531 000e FF92      		push r15
 532               	.LCFI30:
 533               		.cfi_def_cfa_offset 10
 534               		.cfi_offset 15, -9
 535 0010 CF93      		push r28
 536               	.LCFI31:
 537               		.cfi_def_cfa_offset 11
 538               		.cfi_offset 28, -10
 539               	/* prologue: function */
 540               	/* frame size = 0 */
 541               	/* stack size = 9 */
 542               	.L__stack_usage = 9
 543 0012 4C01      		movw r8,r24
 544 0014 6B01      		movw r12,r22
 545 0016 5A01      		movw r10,r20
 546               	.LVL47:
  41:../../../../tmk_core/protocol/lufa/LUFA-git/LUFA/Drivers/USB/Core/AVR8/Template/Template_Endpoint_RW.c **** 	if ((ErrorCode = Endpoint_WaitUntilReady()))
 547               		.loc 3 41 0
 548 0018 0E94 0000 		call Endpoint_WaitUntilReady
 549               	.LVL48:
 550 001c C82F      		mov r28,r24
 551               	.LVL49:
 552 001e 8111      		cpse r24,__zero_reg__
 553 0020 00C0      		rjmp .L39
  37:../../../../tmk_core/protocol/lufa/LUFA-git/LUFA/Drivers/USB/Core/AVR8/Template/Template_Endpoint_RW.c **** 	uint8_t* DataStream      = ((uint8_t*)Buffer + TEMPLATE_BUFFER_OFFSET(Length));
 554               		.loc 3 37 0
 555 0022 7601      		movw r14,r12
 556 0024 81E0      		ldi r24,1
 557 0026 E81A      		sub r14,r24
 558 0028 F108      		sbc r15,__zero_reg__
 559               	.LVL50:
 560 002a E80C      		add r14,r8
 561 002c F91C      		adc r15,r9
 562               	.LVL51:
  44:../../../../tmk_core/protocol/lufa/LUFA-git/LUFA/Drivers/USB/Core/AVR8/Template/Template_Endpoint_RW.c **** 	if (BytesProcessed != NULL)
 563               		.loc 3 44 0
 564 002e A114      		cp r10,__zero_reg__
 565 0030 B104      		cpc r11,__zero_reg__
 566 0032 01F0      		breq .L40
  46:../../../../tmk_core/protocol/lufa/LUFA-git/LUFA/Drivers/USB/Core/AVR8/Template/Template_Endpoint_RW.c **** 		Length -= *BytesProcessed;
 567               		.loc 3 46 0
 568 0034 F501      		movw r30,r10
 569 0036 2081      		ld r18,Z
 570 0038 3181      		ldd r19,Z+1
 571 003a C21A      		sub r12,r18
 572 003c D30A      		sbc r13,r19
 573               	.LVL52:
  47:../../../../tmk_core/protocol/lufa/LUFA-git/LUFA/Drivers/USB/Core/AVR8/Template/Template_Endpoint_RW.c **** 		TEMPLATE_BUFFER_MOVE(DataStream, *BytesProcessed);
 574               		.loc 3 47 0
 575 003e E21A      		sub r14,r18
 576 0040 F30A      		sbc r15,r19
 577               	.LVL53:
 578               	.L40:
  36:../../../../tmk_core/protocol/lufa/LUFA-git/LUFA/Drivers/USB/Core/AVR8/Template/Template_Endpoint_RW.c **** {
 579               		.loc 3 36 0 discriminator 1
 580 0042 812C      		mov r8,__zero_reg__
 581 0044 912C      		mov r9,__zero_reg__
 582               	.LVL54:
 583 0046 00C0      		rjmp .L50
 584               	.LVL55:
 585               	.L45:
 586               	.LBB286:
 587               	.LBB287:
 360:../../../../tmk_core/protocol/lufa/LUFA-git/LUFA/Drivers/USB/Core/AVR8/../AVR8/../AVR8/Endpoint_AVR8.h **** 				return ((UEINTX & (1 << RWAL)) ? true : false);
 588               		.loc 2 360 0
 589 0048 8091 E800 		lds r24,232
 590               	.LBE287:
 591               	.LBE286:
  52:../../../../tmk_core/protocol/lufa/LUFA-git/LUFA/Drivers/USB/Core/AVR8/Template/Template_Endpoint_RW.c **** 		if (!(Endpoint_IsReadWriteAllowed()))
 592               		.loc 3 52 0
 593 004c 85FD      		sbrc r24,5
 594 004e 00C0      		rjmp .L42
 595               	.LBB288:
 596               	.LBB289:
 456:../../../../tmk_core/protocol/lufa/LUFA-git/LUFA/Drivers/USB/Core/AVR8/../AVR8/../AVR8/Endpoint_AVR8.h **** 					UEINTX &= ~((1 << TXINI) | (1 << FIFOCON));
 597               		.loc 2 456 0
 598 0050 8091 E800 		lds r24,232
 599 0054 8E77      		andi r24,lo8(126)
 600 0056 8093 E800 		sts 232,r24
 601               	.LBE289:
 602               	.LBE288:
  60:../../../../tmk_core/protocol/lufa/LUFA-git/LUFA/Drivers/USB/Core/AVR8/Template/Template_Endpoint_RW.c **** 			if (BytesProcessed != NULL)
 603               		.loc 3 60 0
 604 005a A114      		cp r10,__zero_reg__
 605 005c B104      		cpc r11,__zero_reg__
 606 005e 01F0      		breq .L43
  62:../../../../tmk_core/protocol/lufa/LUFA-git/LUFA/Drivers/USB/Core/AVR8/Template/Template_Endpoint_RW.c **** 				*BytesProcessed += BytesInTransfer;
 607               		.loc 3 62 0
 608 0060 F501      		movw r30,r10
 609 0062 8081      		ld r24,Z
 610 0064 9181      		ldd r25,Z+1
 611 0066 880D      		add r24,r8
 612 0068 991D      		adc r25,r9
 613 006a 9183      		std Z+1,r25
 614 006c 8083      		st Z,r24
  63:../../../../tmk_core/protocol/lufa/LUFA-git/LUFA/Drivers/USB/Core/AVR8/Template/Template_Endpoint_RW.c **** 				return ENDPOINT_RWSTREAM_IncompleteTransfer;
 615               		.loc 3 63 0
 616 006e C5E0      		ldi r28,lo8(5)
 617 0070 00C0      		rjmp .L39
 618               	.L43:
  66:../../../../tmk_core/protocol/lufa/LUFA-git/LUFA/Drivers/USB/Core/AVR8/Template/Template_Endpoint_RW.c **** 			if ((ErrorCode = Endpoint_WaitUntilReady()))
 619               		.loc 3 66 0
 620 0072 0E94 0000 		call Endpoint_WaitUntilReady
 621               	.LVL56:
 622 0076 8823      		tst r24
 623 0078 01F0      		breq .L50
 624 007a 00C0      		rjmp .L46
 625               	.LVL57:
 626               	.L42:
  71:../../../../tmk_core/protocol/lufa/LUFA-git/LUFA/Drivers/USB/Core/AVR8/Template/Template_Endpoint_RW.c **** 			TEMPLATE_TRANSFER_BYTE(DataStream);
 627               		.loc 3 71 0
 628 007c F701      		movw r30,r14
 629 007e 8081      		ld r24,Z
 630               	.LVL58:
 631               	.LBB290:
 632               	.LBB291:
 554:../../../../tmk_core/protocol/lufa/LUFA-git/LUFA/Drivers/USB/Core/AVR8/../AVR8/../AVR8/Endpoint_AVR8.h **** 				UEDATX = Data;
 633               		.loc 2 554 0
 634 0080 8093 F100 		sts 241,r24
 635               	.LBE291:
 636               	.LBE290:
  72:../../../../tmk_core/protocol/lufa/LUFA-git/LUFA/Drivers/USB/Core/AVR8/Template/Template_Endpoint_RW.c **** 			TEMPLATE_BUFFER_MOVE(DataStream, 1);
 637               		.loc 3 72 0
 638 0084 F1E0      		ldi r31,1
 639 0086 EF1A      		sub r14,r31
 640 0088 F108      		sbc r15,__zero_reg__
 641               	.LVL59:
  73:../../../../tmk_core/protocol/lufa/LUFA-git/LUFA/Drivers/USB/Core/AVR8/Template/Template_Endpoint_RW.c **** 			Length--;
 642               		.loc 3 73 0
 643 008a 81E0      		ldi r24,1
 644 008c C81A      		sub r12,r24
 645 008e D108      		sbc r13,__zero_reg__
 646               	.LVL60:
  74:../../../../tmk_core/protocol/lufa/LUFA-git/LUFA/Drivers/USB/Core/AVR8/Template/Template_Endpoint_RW.c **** 			BytesInTransfer++;
 647               		.loc 3 74 0
 648 0090 EFEF      		ldi r30,-1
 649 0092 8E1A      		sub r8,r30
 650 0094 9E0A      		sbc r9,r30
 651               	.LVL61:
 652               	.L50:
  50:../../../../tmk_core/protocol/lufa/LUFA-git/LUFA/Drivers/USB/Core/AVR8/Template/Template_Endpoint_RW.c **** 	while (Length)
 653               		.loc 3 50 0 discriminator 1
 654 0096 C114      		cp r12,__zero_reg__
 655 0098 D104      		cpc r13,__zero_reg__
 656 009a 01F4      		brne .L45
 657 009c 00C0      		rjmp .L39
 658               	.LVL62:
 659               	.L46:
  66:../../../../tmk_core/protocol/lufa/LUFA-git/LUFA/Drivers/USB/Core/AVR8/Template/Template_Endpoint_RW.c **** 			if ((ErrorCode = Endpoint_WaitUntilReady()))
 660               		.loc 3 66 0
 661 009e C82F      		mov r28,r24
 662               	.LVL63:
 663               	.L39:
 664               		.loc 3 79 0
 665 00a0 8C2F      		mov r24,r28
 666               	/* epilogue start */
 667 00a2 CF91      		pop r28
 668 00a4 FF90      		pop r15
 669 00a6 EF90      		pop r14
 670 00a8 DF90      		pop r13
 671 00aa CF90      		pop r12
 672               	.LVL64:
 673 00ac BF90      		pop r11
 674 00ae AF90      		pop r10
 675               	.LVL65:
 676 00b0 9F90      		pop r9
 677 00b2 8F90      		pop r8
 678 00b4 0895      		ret
 679               		.cfi_endproc
 680               	.LFE88:
 682               		.section	.text.Endpoint_Read_Stream_LE,"ax",@progbits
 683               	.global	Endpoint_Read_Stream_LE
 685               	Endpoint_Read_Stream_LE:
 686               	.LFB89:
  36:../../../../tmk_core/protocol/lufa/LUFA-git/LUFA/Drivers/USB/Core/AVR8/Template/Template_Endpoint_RW.c **** {
 687               		.loc 3 36 0
 688               		.cfi_startproc
 689               	.LVL66:
 690 0000 8F92      		push r8
 691               	.LCFI32:
 692               		.cfi_def_cfa_offset 3
 693               		.cfi_offset 8, -2
 694 0002 9F92      		push r9
 695               	.LCFI33:
 696               		.cfi_def_cfa_offset 4
 697               		.cfi_offset 9, -3
 698 0004 AF92      		push r10
 699               	.LCFI34:
 700               		.cfi_def_cfa_offset 5
 701               		.cfi_offset 10, -4
 702 0006 BF92      		push r11
 703               	.LCFI35:
 704               		.cfi_def_cfa_offset 6
 705               		.cfi_offset 11, -5
 706 0008 CF92      		push r12
 707               	.LCFI36:
 708               		.cfi_def_cfa_offset 7
 709               		.cfi_offset 12, -6
 710 000a DF92      		push r13
 711               	.LCFI37:
 712               		.cfi_def_cfa_offset 8
 713               		.cfi_offset 13, -7
 714 000c EF92      		push r14
 715               	.LCFI38:
 716               		.cfi_def_cfa_offset 9
 717               		.cfi_offset 14, -8
 718 000e FF92      		push r15
 719               	.LCFI39:
 720               		.cfi_def_cfa_offset 10
 721               		.cfi_offset 15, -9
 722 0010 CF93      		push r28
 723               	.LCFI40:
 724               		.cfi_def_cfa_offset 11
 725               		.cfi_offset 28, -10
 726               	/* prologue: function */
 727               	/* frame size = 0 */
 728               	/* stack size = 9 */
 729               	.L__stack_usage = 9
 730 0012 5C01      		movw r10,r24
 731 0014 6B01      		movw r12,r22
 732 0016 7A01      		movw r14,r20
 733               	.LVL67:
  41:../../../../tmk_core/protocol/lufa/LUFA-git/LUFA/Drivers/USB/Core/AVR8/Template/Template_Endpoint_RW.c **** 	if ((ErrorCode = Endpoint_WaitUntilReady()))
 734               		.loc 3 41 0
 735 0018 0E94 0000 		call Endpoint_WaitUntilReady
 736               	.LVL68:
 737 001c C82F      		mov r28,r24
 738               	.LVL69:
 739 001e 8111      		cpse r24,__zero_reg__
 740 0020 00C0      		rjmp .L52
  44:../../../../tmk_core/protocol/lufa/LUFA-git/LUFA/Drivers/USB/Core/AVR8/Template/Template_Endpoint_RW.c **** 	if (BytesProcessed != NULL)
 741               		.loc 3 44 0
 742 0022 E114      		cp r14,__zero_reg__
 743 0024 F104      		cpc r15,__zero_reg__
 744 0026 01F0      		breq .L53
  46:../../../../tmk_core/protocol/lufa/LUFA-git/LUFA/Drivers/USB/Core/AVR8/Template/Template_Endpoint_RW.c **** 		Length -= *BytesProcessed;
 745               		.loc 3 46 0
 746 0028 F701      		movw r30,r14
 747 002a 2081      		ld r18,Z
 748 002c 3181      		ldd r19,Z+1
 749 002e C21A      		sub r12,r18
 750 0030 D30A      		sbc r13,r19
 751               	.LVL70:
  47:../../../../tmk_core/protocol/lufa/LUFA-git/LUFA/Drivers/USB/Core/AVR8/Template/Template_Endpoint_RW.c **** 		TEMPLATE_BUFFER_MOVE(DataStream, *BytesProcessed);
 752               		.loc 3 47 0
 753 0032 A20E      		add r10,r18
 754 0034 B31E      		adc r11,r19
 755               	.LVL71:
 756               	.L53:
  37:../../../../tmk_core/protocol/lufa/LUFA-git/LUFA/Drivers/USB/Core/AVR8/Template/Template_Endpoint_RW.c **** 	uint8_t* DataStream      = ((uint8_t*)Buffer + TEMPLATE_BUFFER_OFFSET(Length));
 757               		.loc 3 37 0 discriminator 1
 758 0036 812C      		mov r8,__zero_reg__
 759 0038 912C      		mov r9,__zero_reg__
 760 003a 00C0      		rjmp .L61
 761               	.LVL72:
 762               	.L58:
 763               	.LBB292:
 764               	.LBB293:
 360:../../../../tmk_core/protocol/lufa/LUFA-git/LUFA/Drivers/USB/Core/AVR8/../AVR8/../AVR8/Endpoint_AVR8.h **** 				return ((UEINTX & (1 << RWAL)) ? true : false);
 765               		.loc 2 360 0
 766 003c 8091 E800 		lds r24,232
 767               	.LBE293:
 768               	.LBE292:
  52:../../../../tmk_core/protocol/lufa/LUFA-git/LUFA/Drivers/USB/Core/AVR8/Template/Template_Endpoint_RW.c **** 		if (!(Endpoint_IsReadWriteAllowed()))
 769               		.loc 3 52 0
 770 0040 85FD      		sbrc r24,5
 771 0042 00C0      		rjmp .L55
 772               	.LBB294:
 773               	.LBB295:
 471:../../../../tmk_core/protocol/lufa/LUFA-git/LUFA/Drivers/USB/Core/AVR8/../AVR8/../AVR8/Endpoint_AVR8.h **** 					UEINTX &= ~((1 << RXOUTI) | (1 << FIFOCON));
 774               		.loc 2 471 0
 775 0044 8091 E800 		lds r24,232
 776 0048 8B77      		andi r24,lo8(123)
 777 004a 8093 E800 		sts 232,r24
 778               	.LBE295:
 779               	.LBE294:
  60:../../../../tmk_core/protocol/lufa/LUFA-git/LUFA/Drivers/USB/Core/AVR8/Template/Template_Endpoint_RW.c **** 			if (BytesProcessed != NULL)
 780               		.loc 3 60 0
 781 004e E114      		cp r14,__zero_reg__
 782 0050 F104      		cpc r15,__zero_reg__
 783 0052 01F0      		breq .L56
  62:../../../../tmk_core/protocol/lufa/LUFA-git/LUFA/Drivers/USB/Core/AVR8/Template/Template_Endpoint_RW.c **** 				*BytesProcessed += BytesInTransfer;
 784               		.loc 3 62 0
 785 0054 F701      		movw r30,r14
 786 0056 8081      		ld r24,Z
 787 0058 9181      		ldd r25,Z+1
 788 005a 880D      		add r24,r8
 789 005c 991D      		adc r25,r9
 790 005e 9183      		std Z+1,r25
 791 0060 8083      		st Z,r24
  63:../../../../tmk_core/protocol/lufa/LUFA-git/LUFA/Drivers/USB/Core/AVR8/Template/Template_Endpoint_RW.c **** 				return ENDPOINT_RWSTREAM_IncompleteTransfer;
 792               		.loc 3 63 0
 793 0062 C5E0      		ldi r28,lo8(5)
 794 0064 00C0      		rjmp .L52
 795               	.L56:
  66:../../../../tmk_core/protocol/lufa/LUFA-git/LUFA/Drivers/USB/Core/AVR8/Template/Template_Endpoint_RW.c **** 			if ((ErrorCode = Endpoint_WaitUntilReady()))
 796               		.loc 3 66 0
 797 0066 0E94 0000 		call Endpoint_WaitUntilReady
 798               	.LVL73:
 799 006a 8823      		tst r24
 800 006c 01F0      		breq .L61
 801 006e 00C0      		rjmp .L60
 802               	.LVL74:
 803               	.L55:
 804               	.LBB296:
 805               	.LBB297:
 542:../../../../tmk_core/protocol/lufa/LUFA-git/LUFA/Drivers/USB/Core/AVR8/../AVR8/../AVR8/Endpoint_AVR8.h **** 				return UEDATX;
 806               		.loc 2 542 0
 807 0070 8091 F100 		lds r24,241
 808               	.LBE297:
 809               	.LBE296:
  71:../../../../tmk_core/protocol/lufa/LUFA-git/LUFA/Drivers/USB/Core/AVR8/Template/Template_Endpoint_RW.c **** 			TEMPLATE_TRANSFER_BYTE(DataStream);
 810               		.loc 3 71 0
 811 0074 F501      		movw r30,r10
 812 0076 8193      		st Z+,r24
 813 0078 5F01      		movw r10,r30
 814               	.LVL75:
  73:../../../../tmk_core/protocol/lufa/LUFA-git/LUFA/Drivers/USB/Core/AVR8/Template/Template_Endpoint_RW.c **** 			Length--;
 815               		.loc 3 73 0
 816 007a F1E0      		ldi r31,1
 817 007c CF1A      		sub r12,r31
 818 007e D108      		sbc r13,__zero_reg__
 819               	.LVL76:
  74:../../../../tmk_core/protocol/lufa/LUFA-git/LUFA/Drivers/USB/Core/AVR8/Template/Template_Endpoint_RW.c **** 			BytesInTransfer++;
 820               		.loc 3 74 0
 821 0080 8FEF      		ldi r24,-1
 822 0082 881A      		sub r8,r24
 823 0084 980A      		sbc r9,r24
 824               	.LVL77:
 825               	.L61:
  50:../../../../tmk_core/protocol/lufa/LUFA-git/LUFA/Drivers/USB/Core/AVR8/Template/Template_Endpoint_RW.c **** 	while (Length)
 826               		.loc 3 50 0 discriminator 1
 827 0086 C114      		cp r12,__zero_reg__
 828 0088 D104      		cpc r13,__zero_reg__
 829 008a 01F4      		brne .L58
 830 008c 00C0      		rjmp .L52
 831               	.LVL78:
 832               	.L60:
  66:../../../../tmk_core/protocol/lufa/LUFA-git/LUFA/Drivers/USB/Core/AVR8/Template/Template_Endpoint_RW.c **** 			if ((ErrorCode = Endpoint_WaitUntilReady()))
 833               		.loc 3 66 0
 834 008e C82F      		mov r28,r24
 835               	.LVL79:
 836               	.L52:
 837               		.loc 3 79 0
 838 0090 8C2F      		mov r24,r28
 839               	/* epilogue start */
 840 0092 CF91      		pop r28
 841 0094 FF90      		pop r15
 842 0096 EF90      		pop r14
 843               	.LVL80:
 844 0098 DF90      		pop r13
 845 009a CF90      		pop r12
 846               	.LVL81:
 847 009c BF90      		pop r11
 848 009e AF90      		pop r10
 849               	.LVL82:
 850 00a0 9F90      		pop r9
 851 00a2 8F90      		pop r8
 852 00a4 0895      		ret
 853               		.cfi_endproc
 854               	.LFE89:
 856               		.section	.text.Endpoint_Read_Stream_BE,"ax",@progbits
 857               	.global	Endpoint_Read_Stream_BE
 859               	Endpoint_Read_Stream_BE:
 860               	.LFB90:
  36:../../../../tmk_core/protocol/lufa/LUFA-git/LUFA/Drivers/USB/Core/AVR8/Template/Template_Endpoint_RW.c **** {
 861               		.loc 3 36 0
 862               		.cfi_startproc
 863               	.LVL83:
 864 0000 8F92      		push r8
 865               	.LCFI41:
 866               		.cfi_def_cfa_offset 3
 867               		.cfi_offset 8, -2
 868 0002 9F92      		push r9
 869               	.LCFI42:
 870               		.cfi_def_cfa_offset 4
 871               		.cfi_offset 9, -3
 872 0004 AF92      		push r10
 873               	.LCFI43:
 874               		.cfi_def_cfa_offset 5
 875               		.cfi_offset 10, -4
 876 0006 BF92      		push r11
 877               	.LCFI44:
 878               		.cfi_def_cfa_offset 6
 879               		.cfi_offset 11, -5
 880 0008 CF92      		push r12
 881               	.LCFI45:
 882               		.cfi_def_cfa_offset 7
 883               		.cfi_offset 12, -6
 884 000a DF92      		push r13
 885               	.LCFI46:
 886               		.cfi_def_cfa_offset 8
 887               		.cfi_offset 13, -7
 888 000c EF92      		push r14
 889               	.LCFI47:
 890               		.cfi_def_cfa_offset 9
 891               		.cfi_offset 14, -8
 892 000e FF92      		push r15
 893               	.LCFI48:
 894               		.cfi_def_cfa_offset 10
 895               		.cfi_offset 15, -9
 896 0010 CF93      		push r28
 897               	.LCFI49:
 898               		.cfi_def_cfa_offset 11
 899               		.cfi_offset 28, -10
 900               	/* prologue: function */
 901               	/* frame size = 0 */
 902               	/* stack size = 9 */
 903               	.L__stack_usage = 9
 904 0012 4C01      		movw r8,r24
 905 0014 6B01      		movw r12,r22
 906 0016 5A01      		movw r10,r20
 907               	.LVL84:
  41:../../../../tmk_core/protocol/lufa/LUFA-git/LUFA/Drivers/USB/Core/AVR8/Template/Template_Endpoint_RW.c **** 	if ((ErrorCode = Endpoint_WaitUntilReady()))
 908               		.loc 3 41 0
 909 0018 0E94 0000 		call Endpoint_WaitUntilReady
 910               	.LVL85:
 911 001c C82F      		mov r28,r24
 912               	.LVL86:
 913 001e 8111      		cpse r24,__zero_reg__
 914 0020 00C0      		rjmp .L63
  37:../../../../tmk_core/protocol/lufa/LUFA-git/LUFA/Drivers/USB/Core/AVR8/Template/Template_Endpoint_RW.c **** 	uint8_t* DataStream      = ((uint8_t*)Buffer + TEMPLATE_BUFFER_OFFSET(Length));
 915               		.loc 3 37 0
 916 0022 7601      		movw r14,r12
 917 0024 81E0      		ldi r24,1
 918 0026 E81A      		sub r14,r24
 919 0028 F108      		sbc r15,__zero_reg__
 920               	.LVL87:
 921 002a E80C      		add r14,r8
 922 002c F91C      		adc r15,r9
 923               	.LVL88:
  44:../../../../tmk_core/protocol/lufa/LUFA-git/LUFA/Drivers/USB/Core/AVR8/Template/Template_Endpoint_RW.c **** 	if (BytesProcessed != NULL)
 924               		.loc 3 44 0
 925 002e A114      		cp r10,__zero_reg__
 926 0030 B104      		cpc r11,__zero_reg__
 927 0032 01F0      		breq .L64
  46:../../../../tmk_core/protocol/lufa/LUFA-git/LUFA/Drivers/USB/Core/AVR8/Template/Template_Endpoint_RW.c **** 		Length -= *BytesProcessed;
 928               		.loc 3 46 0
 929 0034 F501      		movw r30,r10
 930 0036 2081      		ld r18,Z
 931 0038 3181      		ldd r19,Z+1
 932 003a C21A      		sub r12,r18
 933 003c D30A      		sbc r13,r19
 934               	.LVL89:
  47:../../../../tmk_core/protocol/lufa/LUFA-git/LUFA/Drivers/USB/Core/AVR8/Template/Template_Endpoint_RW.c **** 		TEMPLATE_BUFFER_MOVE(DataStream, *BytesProcessed);
 935               		.loc 3 47 0
 936 003e E21A      		sub r14,r18
 937 0040 F30A      		sbc r15,r19
 938               	.LVL90:
 939               	.L64:
  36:../../../../tmk_core/protocol/lufa/LUFA-git/LUFA/Drivers/USB/Core/AVR8/Template/Template_Endpoint_RW.c **** {
 940               		.loc 3 36 0 discriminator 1
 941 0042 812C      		mov r8,__zero_reg__
 942 0044 912C      		mov r9,__zero_reg__
 943               	.LVL91:
 944 0046 00C0      		rjmp .L74
 945               	.LVL92:
 946               	.L69:
 947               	.LBB298:
 948               	.LBB299:
 360:../../../../tmk_core/protocol/lufa/LUFA-git/LUFA/Drivers/USB/Core/AVR8/../AVR8/../AVR8/Endpoint_AVR8.h **** 				return ((UEINTX & (1 << RWAL)) ? true : false);
 949               		.loc 2 360 0
 950 0048 8091 E800 		lds r24,232
 951               	.LBE299:
 952               	.LBE298:
  52:../../../../tmk_core/protocol/lufa/LUFA-git/LUFA/Drivers/USB/Core/AVR8/Template/Template_Endpoint_RW.c **** 		if (!(Endpoint_IsReadWriteAllowed()))
 953               		.loc 3 52 0
 954 004c 85FD      		sbrc r24,5
 955 004e 00C0      		rjmp .L66
 956               	.LBB300:
 957               	.LBB301:
 471:../../../../tmk_core/protocol/lufa/LUFA-git/LUFA/Drivers/USB/Core/AVR8/../AVR8/../AVR8/Endpoint_AVR8.h **** 					UEINTX &= ~((1 << RXOUTI) | (1 << FIFOCON));
 958               		.loc 2 471 0
 959 0050 8091 E800 		lds r24,232
 960 0054 8B77      		andi r24,lo8(123)
 961 0056 8093 E800 		sts 232,r24
 962               	.LBE301:
 963               	.LBE300:
  60:../../../../tmk_core/protocol/lufa/LUFA-git/LUFA/Drivers/USB/Core/AVR8/Template/Template_Endpoint_RW.c **** 			if (BytesProcessed != NULL)
 964               		.loc 3 60 0
 965 005a A114      		cp r10,__zero_reg__
 966 005c B104      		cpc r11,__zero_reg__
 967 005e 01F0      		breq .L67
  62:../../../../tmk_core/protocol/lufa/LUFA-git/LUFA/Drivers/USB/Core/AVR8/Template/Template_Endpoint_RW.c **** 				*BytesProcessed += BytesInTransfer;
 968               		.loc 3 62 0
 969 0060 F501      		movw r30,r10
 970 0062 8081      		ld r24,Z
 971 0064 9181      		ldd r25,Z+1
 972 0066 880D      		add r24,r8
 973 0068 991D      		adc r25,r9
 974 006a 9183      		std Z+1,r25
 975 006c 8083      		st Z,r24
  63:../../../../tmk_core/protocol/lufa/LUFA-git/LUFA/Drivers/USB/Core/AVR8/Template/Template_Endpoint_RW.c **** 				return ENDPOINT_RWSTREAM_IncompleteTransfer;
 976               		.loc 3 63 0
 977 006e C5E0      		ldi r28,lo8(5)
 978 0070 00C0      		rjmp .L63
 979               	.L67:
  66:../../../../tmk_core/protocol/lufa/LUFA-git/LUFA/Drivers/USB/Core/AVR8/Template/Template_Endpoint_RW.c **** 			if ((ErrorCode = Endpoint_WaitUntilReady()))
 980               		.loc 3 66 0
 981 0072 0E94 0000 		call Endpoint_WaitUntilReady
 982               	.LVL93:
 983 0076 8823      		tst r24
 984 0078 01F0      		breq .L74
 985 007a 00C0      		rjmp .L70
 986               	.LVL94:
 987               	.L66:
 988               	.LBB302:
 989               	.LBB303:
 542:../../../../tmk_core/protocol/lufa/LUFA-git/LUFA/Drivers/USB/Core/AVR8/../AVR8/../AVR8/Endpoint_AVR8.h **** 				return UEDATX;
 990               		.loc 2 542 0
 991 007c 8091 F100 		lds r24,241
 992               	.LBE303:
 993               	.LBE302:
  71:../../../../tmk_core/protocol/lufa/LUFA-git/LUFA/Drivers/USB/Core/AVR8/Template/Template_Endpoint_RW.c **** 			TEMPLATE_TRANSFER_BYTE(DataStream);
 994               		.loc 3 71 0
 995 0080 F701      		movw r30,r14
 996 0082 8083      		st Z,r24
  72:../../../../tmk_core/protocol/lufa/LUFA-git/LUFA/Drivers/USB/Core/AVR8/Template/Template_Endpoint_RW.c **** 			TEMPLATE_BUFFER_MOVE(DataStream, 1);
 997               		.loc 3 72 0
 998 0084 F1E0      		ldi r31,1
 999 0086 EF1A      		sub r14,r31
 1000 0088 F108      		sbc r15,__zero_reg__
 1001               	.LVL95:
  73:../../../../tmk_core/protocol/lufa/LUFA-git/LUFA/Drivers/USB/Core/AVR8/Template/Template_Endpoint_RW.c **** 			Length--;
 1002               		.loc 3 73 0
 1003 008a 81E0      		ldi r24,1
 1004 008c C81A      		sub r12,r24
 1005 008e D108      		sbc r13,__zero_reg__
 1006               	.LVL96:
  74:../../../../tmk_core/protocol/lufa/LUFA-git/LUFA/Drivers/USB/Core/AVR8/Template/Template_Endpoint_RW.c **** 			BytesInTransfer++;
 1007               		.loc 3 74 0
 1008 0090 EFEF      		ldi r30,-1
 1009 0092 8E1A      		sub r8,r30
 1010 0094 9E0A      		sbc r9,r30
 1011               	.LVL97:
 1012               	.L74:
  50:../../../../tmk_core/protocol/lufa/LUFA-git/LUFA/Drivers/USB/Core/AVR8/Template/Template_Endpoint_RW.c **** 	while (Length)
 1013               		.loc 3 50 0 discriminator 1
 1014 0096 C114      		cp r12,__zero_reg__
 1015 0098 D104      		cpc r13,__zero_reg__
 1016 009a 01F4      		brne .L69
 1017 009c 00C0      		rjmp .L63
 1018               	.LVL98:
 1019               	.L70:
  66:../../../../tmk_core/protocol/lufa/LUFA-git/LUFA/Drivers/USB/Core/AVR8/Template/Template_Endpoint_RW.c **** 			if ((ErrorCode = Endpoint_WaitUntilReady()))
 1020               		.loc 3 66 0
 1021 009e C82F      		mov r28,r24
 1022               	.LVL99:
 1023               	.L63:
 1024               		.loc 3 79 0
 1025 00a0 8C2F      		mov r24,r28
 1026               	/* epilogue start */
 1027 00a2 CF91      		pop r28
 1028 00a4 FF90      		pop r15
 1029 00a6 EF90      		pop r14
 1030 00a8 DF90      		pop r13
 1031 00aa CF90      		pop r12
 1032               	.LVL100:
 1033 00ac BF90      		pop r11
 1034 00ae AF90      		pop r10
 1035               	.LVL101:
 1036 00b0 9F90      		pop r9
 1037 00b2 8F90      		pop r8
 1038 00b4 0895      		ret
 1039               		.cfi_endproc
 1040               	.LFE90:
 1042               		.section	.text.Endpoint_Write_PStream_LE,"ax",@progbits
 1043               	.global	Endpoint_Write_PStream_LE
 1045               	Endpoint_Write_PStream_LE:
 1046               	.LFB91:
  36:../../../../tmk_core/protocol/lufa/LUFA-git/LUFA/Drivers/USB/Core/AVR8/Template/Template_Endpoint_RW.c **** {
 1047               		.loc 3 36 0
 1048               		.cfi_startproc
 1049               	.LVL102:
 1050 0000 8F92      		push r8
 1051               	.LCFI50:
 1052               		.cfi_def_cfa_offset 3
 1053               		.cfi_offset 8, -2
 1054 0002 9F92      		push r9
 1055               	.LCFI51:
 1056               		.cfi_def_cfa_offset 4
 1057               		.cfi_offset 9, -3
 1058 0004 AF92      		push r10
 1059               	.LCFI52:
 1060               		.cfi_def_cfa_offset 5
 1061               		.cfi_offset 10, -4
 1062 0006 BF92      		push r11
 1063               	.LCFI53:
 1064               		.cfi_def_cfa_offset 6
 1065               		.cfi_offset 11, -5
 1066 0008 CF92      		push r12
 1067               	.LCFI54:
 1068               		.cfi_def_cfa_offset 7
 1069               		.cfi_offset 12, -6
 1070 000a DF92      		push r13
 1071               	.LCFI55:
 1072               		.cfi_def_cfa_offset 8
 1073               		.cfi_offset 13, -7
 1074 000c EF92      		push r14
 1075               	.LCFI56:
 1076               		.cfi_def_cfa_offset 9
 1077               		.cfi_offset 14, -8
 1078 000e FF92      		push r15
 1079               	.LCFI57:
 1080               		.cfi_def_cfa_offset 10
 1081               		.cfi_offset 15, -9
 1082 0010 CF93      		push r28
 1083               	.LCFI58:
 1084               		.cfi_def_cfa_offset 11
 1085               		.cfi_offset 28, -10
 1086               	/* prologue: function */
 1087               	/* frame size = 0 */
 1088               	/* stack size = 9 */
 1089               	.L__stack_usage = 9
 1090 0012 5C01      		movw r10,r24
 1091 0014 6B01      		movw r12,r22
 1092 0016 7A01      		movw r14,r20
 1093               	.LVL103:
  41:../../../../tmk_core/protocol/lufa/LUFA-git/LUFA/Drivers/USB/Core/AVR8/Template/Template_Endpoint_RW.c **** 	if ((ErrorCode = Endpoint_WaitUntilReady()))
 1094               		.loc 3 41 0
 1095 0018 0E94 0000 		call Endpoint_WaitUntilReady
 1096               	.LVL104:
 1097 001c C82F      		mov r28,r24
 1098               	.LVL105:
 1099 001e 8111      		cpse r24,__zero_reg__
 1100 0020 00C0      		rjmp .L76
  44:../../../../tmk_core/protocol/lufa/LUFA-git/LUFA/Drivers/USB/Core/AVR8/Template/Template_Endpoint_RW.c **** 	if (BytesProcessed != NULL)
 1101               		.loc 3 44 0
 1102 0022 E114      		cp r14,__zero_reg__
 1103 0024 F104      		cpc r15,__zero_reg__
 1104 0026 01F0      		breq .L77
  46:../../../../tmk_core/protocol/lufa/LUFA-git/LUFA/Drivers/USB/Core/AVR8/Template/Template_Endpoint_RW.c **** 		Length -= *BytesProcessed;
 1105               		.loc 3 46 0
 1106 0028 F701      		movw r30,r14
 1107 002a 2081      		ld r18,Z
 1108 002c 3181      		ldd r19,Z+1
 1109 002e C21A      		sub r12,r18
 1110 0030 D30A      		sbc r13,r19
 1111               	.LVL106:
  47:../../../../tmk_core/protocol/lufa/LUFA-git/LUFA/Drivers/USB/Core/AVR8/Template/Template_Endpoint_RW.c **** 		TEMPLATE_BUFFER_MOVE(DataStream, *BytesProcessed);
 1112               		.loc 3 47 0
 1113 0032 A20E      		add r10,r18
 1114 0034 B31E      		adc r11,r19
 1115               	.LVL107:
 1116               	.L77:
  37:../../../../tmk_core/protocol/lufa/LUFA-git/LUFA/Drivers/USB/Core/AVR8/Template/Template_Endpoint_RW.c **** 	uint8_t* DataStream      = ((uint8_t*)Buffer + TEMPLATE_BUFFER_OFFSET(Length));
 1117               		.loc 3 37 0 discriminator 1
 1118 0036 812C      		mov r8,__zero_reg__
 1119 0038 912C      		mov r9,__zero_reg__
 1120 003a 00C0      		rjmp .L85
 1121               	.LVL108:
 1122               	.L82:
 1123               	.LBB304:
 1124               	.LBB305:
 360:../../../../tmk_core/protocol/lufa/LUFA-git/LUFA/Drivers/USB/Core/AVR8/../AVR8/../AVR8/Endpoint_AVR8.h **** 				return ((UEINTX & (1 << RWAL)) ? true : false);
 1125               		.loc 2 360 0
 1126 003c 8091 E800 		lds r24,232
 1127               	.LBE305:
 1128               	.LBE304:
  52:../../../../tmk_core/protocol/lufa/LUFA-git/LUFA/Drivers/USB/Core/AVR8/Template/Template_Endpoint_RW.c **** 		if (!(Endpoint_IsReadWriteAllowed()))
 1129               		.loc 3 52 0
 1130 0040 85FD      		sbrc r24,5
 1131 0042 00C0      		rjmp .L79
 1132               	.LBB306:
 1133               	.LBB307:
 456:../../../../tmk_core/protocol/lufa/LUFA-git/LUFA/Drivers/USB/Core/AVR8/../AVR8/../AVR8/Endpoint_AVR8.h **** 					UEINTX &= ~((1 << TXINI) | (1 << FIFOCON));
 1134               		.loc 2 456 0
 1135 0044 8091 E800 		lds r24,232
 1136 0048 8E77      		andi r24,lo8(126)
 1137 004a 8093 E800 		sts 232,r24
 1138               	.LBE307:
 1139               	.LBE306:
  60:../../../../tmk_core/protocol/lufa/LUFA-git/LUFA/Drivers/USB/Core/AVR8/Template/Template_Endpoint_RW.c **** 			if (BytesProcessed != NULL)
 1140               		.loc 3 60 0
 1141 004e E114      		cp r14,__zero_reg__
 1142 0050 F104      		cpc r15,__zero_reg__
 1143 0052 01F0      		breq .L80
  62:../../../../tmk_core/protocol/lufa/LUFA-git/LUFA/Drivers/USB/Core/AVR8/Template/Template_Endpoint_RW.c **** 				*BytesProcessed += BytesInTransfer;
 1144               		.loc 3 62 0
 1145 0054 F701      		movw r30,r14
 1146 0056 8081      		ld r24,Z
 1147 0058 9181      		ldd r25,Z+1
 1148 005a 880D      		add r24,r8
 1149 005c 991D      		adc r25,r9
 1150 005e 9183      		std Z+1,r25
 1151 0060 8083      		st Z,r24
  63:../../../../tmk_core/protocol/lufa/LUFA-git/LUFA/Drivers/USB/Core/AVR8/Template/Template_Endpoint_RW.c **** 				return ENDPOINT_RWSTREAM_IncompleteTransfer;
 1152               		.loc 3 63 0
 1153 0062 C5E0      		ldi r28,lo8(5)
 1154 0064 00C0      		rjmp .L76
 1155               	.L80:
  66:../../../../tmk_core/protocol/lufa/LUFA-git/LUFA/Drivers/USB/Core/AVR8/Template/Template_Endpoint_RW.c **** 			if ((ErrorCode = Endpoint_WaitUntilReady()))
 1156               		.loc 3 66 0
 1157 0066 0E94 0000 		call Endpoint_WaitUntilReady
 1158               	.LVL109:
 1159 006a 8823      		tst r24
 1160 006c 01F0      		breq .L85
 1161 006e 00C0      		rjmp .L84
 1162               	.LVL110:
 1163               	.L79:
 1164               	.LBB308:
  71:../../../../tmk_core/protocol/lufa/LUFA-git/LUFA/Drivers/USB/Core/AVR8/Template/Template_Endpoint_RW.c **** 			TEMPLATE_TRANSFER_BYTE(DataStream);
 1165               		.loc 3 71 0
 1166 0070 F501      		movw r30,r10
 1167               	/* #APP */
 1168               	 ;  71 "../../../../tmk_core/protocol/lufa/LUFA-git/LUFA/Drivers/USB/Core/AVR8/Template/Template_En
 1169 0072 8491      		lpm r24, Z
 1170               		
 1171               	 ;  0 "" 2
 1172               	.LVL111:
 1173               	/* #NOAPP */
 1174               	.LBE308:
 1175               	.LBB309:
 1176               	.LBB310:
 554:../../../../tmk_core/protocol/lufa/LUFA-git/LUFA/Drivers/USB/Core/AVR8/../AVR8/../AVR8/Endpoint_AVR8.h **** 				UEDATX = Data;
 1177               		.loc 2 554 0
 1178 0074 8093 F100 		sts 241,r24
 1179               	.LBE310:
 1180               	.LBE309:
  72:../../../../tmk_core/protocol/lufa/LUFA-git/LUFA/Drivers/USB/Core/AVR8/Template/Template_Endpoint_RW.c **** 			TEMPLATE_BUFFER_MOVE(DataStream, 1);
 1181               		.loc 3 72 0
 1182 0078 FFEF      		ldi r31,-1
 1183 007a AF1A      		sub r10,r31
 1184 007c BF0A      		sbc r11,r31
 1185               	.LVL112:
  73:../../../../tmk_core/protocol/lufa/LUFA-git/LUFA/Drivers/USB/Core/AVR8/Template/Template_Endpoint_RW.c **** 			Length--;
 1186               		.loc 3 73 0
 1187 007e 81E0      		ldi r24,1
 1188 0080 C81A      		sub r12,r24
 1189 0082 D108      		sbc r13,__zero_reg__
 1190               	.LVL113:
  74:../../../../tmk_core/protocol/lufa/LUFA-git/LUFA/Drivers/USB/Core/AVR8/Template/Template_Endpoint_RW.c **** 			BytesInTransfer++;
 1191               		.loc 3 74 0
 1192 0084 EFEF      		ldi r30,-1
 1193 0086 8E1A      		sub r8,r30
 1194 0088 9E0A      		sbc r9,r30
 1195               	.LVL114:
 1196               	.L85:
  50:../../../../tmk_core/protocol/lufa/LUFA-git/LUFA/Drivers/USB/Core/AVR8/Template/Template_Endpoint_RW.c **** 	while (Length)
 1197               		.loc 3 50 0 discriminator 1
 1198 008a C114      		cp r12,__zero_reg__
 1199 008c D104      		cpc r13,__zero_reg__
 1200 008e 01F4      		brne .L82
 1201 0090 00C0      		rjmp .L76
 1202               	.LVL115:
 1203               	.L84:
  66:../../../../tmk_core/protocol/lufa/LUFA-git/LUFA/Drivers/USB/Core/AVR8/Template/Template_Endpoint_RW.c **** 			if ((ErrorCode = Endpoint_WaitUntilReady()))
 1204               		.loc 3 66 0
 1205 0092 C82F      		mov r28,r24
 1206               	.LVL116:
 1207               	.L76:
 1208               		.loc 3 79 0
 1209 0094 8C2F      		mov r24,r28
 1210               	/* epilogue start */
 1211 0096 CF91      		pop r28
 1212 0098 FF90      		pop r15
 1213 009a EF90      		pop r14
 1214               	.LVL117:
 1215 009c DF90      		pop r13
 1216 009e CF90      		pop r12
 1217               	.LVL118:
 1218 00a0 BF90      		pop r11
 1219 00a2 AF90      		pop r10
 1220               	.LVL119:
 1221 00a4 9F90      		pop r9
 1222 00a6 8F90      		pop r8
 1223 00a8 0895      		ret
 1224               		.cfi_endproc
 1225               	.LFE91:
 1227               		.section	.text.Endpoint_Write_PStream_BE,"ax",@progbits
 1228               	.global	Endpoint_Write_PStream_BE
 1230               	Endpoint_Write_PStream_BE:
 1231               	.LFB92:
  36:../../../../tmk_core/protocol/lufa/LUFA-git/LUFA/Drivers/USB/Core/AVR8/Template/Template_Endpoint_RW.c **** {
 1232               		.loc 3 36 0
 1233               		.cfi_startproc
 1234               	.LVL120:
 1235 0000 8F92      		push r8
 1236               	.LCFI59:
 1237               		.cfi_def_cfa_offset 3
 1238               		.cfi_offset 8, -2
 1239 0002 9F92      		push r9
 1240               	.LCFI60:
 1241               		.cfi_def_cfa_offset 4
 1242               		.cfi_offset 9, -3
 1243 0004 AF92      		push r10
 1244               	.LCFI61:
 1245               		.cfi_def_cfa_offset 5
 1246               		.cfi_offset 10, -4
 1247 0006 BF92      		push r11
 1248               	.LCFI62:
 1249               		.cfi_def_cfa_offset 6
 1250               		.cfi_offset 11, -5
 1251 0008 CF92      		push r12
 1252               	.LCFI63:
 1253               		.cfi_def_cfa_offset 7
 1254               		.cfi_offset 12, -6
 1255 000a DF92      		push r13
 1256               	.LCFI64:
 1257               		.cfi_def_cfa_offset 8
 1258               		.cfi_offset 13, -7
 1259 000c EF92      		push r14
 1260               	.LCFI65:
 1261               		.cfi_def_cfa_offset 9
 1262               		.cfi_offset 14, -8
 1263 000e FF92      		push r15
 1264               	.LCFI66:
 1265               		.cfi_def_cfa_offset 10
 1266               		.cfi_offset 15, -9
 1267 0010 CF93      		push r28
 1268               	.LCFI67:
 1269               		.cfi_def_cfa_offset 11
 1270               		.cfi_offset 28, -10
 1271               	/* prologue: function */
 1272               	/* frame size = 0 */
 1273               	/* stack size = 9 */
 1274               	.L__stack_usage = 9
 1275 0012 4C01      		movw r8,r24
 1276 0014 6B01      		movw r12,r22
 1277 0016 5A01      		movw r10,r20
 1278               	.LVL121:
  41:../../../../tmk_core/protocol/lufa/LUFA-git/LUFA/Drivers/USB/Core/AVR8/Template/Template_Endpoint_RW.c **** 	if ((ErrorCode = Endpoint_WaitUntilReady()))
 1279               		.loc 3 41 0
 1280 0018 0E94 0000 		call Endpoint_WaitUntilReady
 1281               	.LVL122:
 1282 001c C82F      		mov r28,r24
 1283               	.LVL123:
 1284 001e 8111      		cpse r24,__zero_reg__
 1285 0020 00C0      		rjmp .L87
  37:../../../../tmk_core/protocol/lufa/LUFA-git/LUFA/Drivers/USB/Core/AVR8/Template/Template_Endpoint_RW.c **** 	uint8_t* DataStream      = ((uint8_t*)Buffer + TEMPLATE_BUFFER_OFFSET(Length));
 1286               		.loc 3 37 0
 1287 0022 7601      		movw r14,r12
 1288 0024 81E0      		ldi r24,1
 1289 0026 E81A      		sub r14,r24
 1290 0028 F108      		sbc r15,__zero_reg__
 1291               	.LVL124:
 1292 002a E80C      		add r14,r8
 1293 002c F91C      		adc r15,r9
 1294               	.LVL125:
  44:../../../../tmk_core/protocol/lufa/LUFA-git/LUFA/Drivers/USB/Core/AVR8/Template/Template_Endpoint_RW.c **** 	if (BytesProcessed != NULL)
 1295               		.loc 3 44 0
 1296 002e A114      		cp r10,__zero_reg__
 1297 0030 B104      		cpc r11,__zero_reg__
 1298 0032 01F0      		breq .L88
  46:../../../../tmk_core/protocol/lufa/LUFA-git/LUFA/Drivers/USB/Core/AVR8/Template/Template_Endpoint_RW.c **** 		Length -= *BytesProcessed;
 1299               		.loc 3 46 0
 1300 0034 F501      		movw r30,r10
 1301 0036 2081      		ld r18,Z
 1302 0038 3181      		ldd r19,Z+1
 1303 003a C21A      		sub r12,r18
 1304 003c D30A      		sbc r13,r19
 1305               	.LVL126:
  47:../../../../tmk_core/protocol/lufa/LUFA-git/LUFA/Drivers/USB/Core/AVR8/Template/Template_Endpoint_RW.c **** 		TEMPLATE_BUFFER_MOVE(DataStream, *BytesProcessed);
 1306               		.loc 3 47 0
 1307 003e E21A      		sub r14,r18
 1308 0040 F30A      		sbc r15,r19
 1309               	.LVL127:
 1310               	.L88:
  36:../../../../tmk_core/protocol/lufa/LUFA-git/LUFA/Drivers/USB/Core/AVR8/Template/Template_Endpoint_RW.c **** {
 1311               		.loc 3 36 0 discriminator 1
 1312 0042 812C      		mov r8,__zero_reg__
 1313 0044 912C      		mov r9,__zero_reg__
 1314               	.LVL128:
 1315 0046 00C0      		rjmp .L98
 1316               	.LVL129:
 1317               	.L93:
 1318               	.LBB311:
 1319               	.LBB312:
 360:../../../../tmk_core/protocol/lufa/LUFA-git/LUFA/Drivers/USB/Core/AVR8/../AVR8/../AVR8/Endpoint_AVR8.h **** 				return ((UEINTX & (1 << RWAL)) ? true : false);
 1320               		.loc 2 360 0
 1321 0048 8091 E800 		lds r24,232
 1322               	.LBE312:
 1323               	.LBE311:
  52:../../../../tmk_core/protocol/lufa/LUFA-git/LUFA/Drivers/USB/Core/AVR8/Template/Template_Endpoint_RW.c **** 		if (!(Endpoint_IsReadWriteAllowed()))
 1324               		.loc 3 52 0
 1325 004c 85FD      		sbrc r24,5
 1326 004e 00C0      		rjmp .L90
 1327               	.LBB313:
 1328               	.LBB314:
 456:../../../../tmk_core/protocol/lufa/LUFA-git/LUFA/Drivers/USB/Core/AVR8/../AVR8/../AVR8/Endpoint_AVR8.h **** 					UEINTX &= ~((1 << TXINI) | (1 << FIFOCON));
 1329               		.loc 2 456 0
 1330 0050 8091 E800 		lds r24,232
 1331 0054 8E77      		andi r24,lo8(126)
 1332 0056 8093 E800 		sts 232,r24
 1333               	.LBE314:
 1334               	.LBE313:
  60:../../../../tmk_core/protocol/lufa/LUFA-git/LUFA/Drivers/USB/Core/AVR8/Template/Template_Endpoint_RW.c **** 			if (BytesProcessed != NULL)
 1335               		.loc 3 60 0
 1336 005a A114      		cp r10,__zero_reg__
 1337 005c B104      		cpc r11,__zero_reg__
 1338 005e 01F0      		breq .L91
  62:../../../../tmk_core/protocol/lufa/LUFA-git/LUFA/Drivers/USB/Core/AVR8/Template/Template_Endpoint_RW.c **** 				*BytesProcessed += BytesInTransfer;
 1339               		.loc 3 62 0
 1340 0060 F501      		movw r30,r10
 1341 0062 8081      		ld r24,Z
 1342 0064 9181      		ldd r25,Z+1
 1343 0066 880D      		add r24,r8
 1344 0068 991D      		adc r25,r9
 1345 006a 9183      		std Z+1,r25
 1346 006c 8083      		st Z,r24
  63:../../../../tmk_core/protocol/lufa/LUFA-git/LUFA/Drivers/USB/Core/AVR8/Template/Template_Endpoint_RW.c **** 				return ENDPOINT_RWSTREAM_IncompleteTransfer;
 1347               		.loc 3 63 0
 1348 006e C5E0      		ldi r28,lo8(5)
 1349 0070 00C0      		rjmp .L87
 1350               	.L91:
  66:../../../../tmk_core/protocol/lufa/LUFA-git/LUFA/Drivers/USB/Core/AVR8/Template/Template_Endpoint_RW.c **** 			if ((ErrorCode = Endpoint_WaitUntilReady()))
 1351               		.loc 3 66 0
 1352 0072 0E94 0000 		call Endpoint_WaitUntilReady
 1353               	.LVL130:
 1354 0076 8823      		tst r24
 1355 0078 01F0      		breq .L98
 1356 007a 00C0      		rjmp .L94
 1357               	.LVL131:
 1358               	.L90:
 1359               	.LBB315:
  71:../../../../tmk_core/protocol/lufa/LUFA-git/LUFA/Drivers/USB/Core/AVR8/Template/Template_Endpoint_RW.c **** 			TEMPLATE_TRANSFER_BYTE(DataStream);
 1360               		.loc 3 71 0
 1361 007c F701      		movw r30,r14
 1362               	/* #APP */
 1363               	 ;  71 "../../../../tmk_core/protocol/lufa/LUFA-git/LUFA/Drivers/USB/Core/AVR8/Template/Template_En
 1364 007e 8491      		lpm r24, Z
 1365               		
 1366               	 ;  0 "" 2
 1367               	.LVL132:
 1368               	/* #NOAPP */
 1369               	.LBE315:
 1370               	.LBB316:
 1371               	.LBB317:
 554:../../../../tmk_core/protocol/lufa/LUFA-git/LUFA/Drivers/USB/Core/AVR8/../AVR8/../AVR8/Endpoint_AVR8.h **** 				UEDATX = Data;
 1372               		.loc 2 554 0
 1373 0080 8093 F100 		sts 241,r24
 1374               	.LBE317:
 1375               	.LBE316:
  72:../../../../tmk_core/protocol/lufa/LUFA-git/LUFA/Drivers/USB/Core/AVR8/Template/Template_Endpoint_RW.c **** 			TEMPLATE_BUFFER_MOVE(DataStream, 1);
 1376               		.loc 3 72 0
 1377 0084 F1E0      		ldi r31,1
 1378 0086 EF1A      		sub r14,r31
 1379 0088 F108      		sbc r15,__zero_reg__
 1380               	.LVL133:
  73:../../../../tmk_core/protocol/lufa/LUFA-git/LUFA/Drivers/USB/Core/AVR8/Template/Template_Endpoint_RW.c **** 			Length--;
 1381               		.loc 3 73 0
 1382 008a 81E0      		ldi r24,1
 1383 008c C81A      		sub r12,r24
 1384 008e D108      		sbc r13,__zero_reg__
 1385               	.LVL134:
  74:../../../../tmk_core/protocol/lufa/LUFA-git/LUFA/Drivers/USB/Core/AVR8/Template/Template_Endpoint_RW.c **** 			BytesInTransfer++;
 1386               		.loc 3 74 0
 1387 0090 EFEF      		ldi r30,-1
 1388 0092 8E1A      		sub r8,r30
 1389 0094 9E0A      		sbc r9,r30
 1390               	.LVL135:
 1391               	.L98:
  50:../../../../tmk_core/protocol/lufa/LUFA-git/LUFA/Drivers/USB/Core/AVR8/Template/Template_Endpoint_RW.c **** 	while (Length)
 1392               		.loc 3 50 0 discriminator 1
 1393 0096 C114      		cp r12,__zero_reg__
 1394 0098 D104      		cpc r13,__zero_reg__
 1395 009a 01F4      		brne .L93
 1396 009c 00C0      		rjmp .L87
 1397               	.LVL136:
 1398               	.L94:
  66:../../../../tmk_core/protocol/lufa/LUFA-git/LUFA/Drivers/USB/Core/AVR8/Template/Template_Endpoint_RW.c **** 			if ((ErrorCode = Endpoint_WaitUntilReady()))
 1399               		.loc 3 66 0
 1400 009e C82F      		mov r28,r24
 1401               	.LVL137:
 1402               	.L87:
 1403               		.loc 3 79 0
 1404 00a0 8C2F      		mov r24,r28
 1405               	/* epilogue start */
 1406 00a2 CF91      		pop r28
 1407 00a4 FF90      		pop r15
 1408 00a6 EF90      		pop r14
 1409 00a8 DF90      		pop r13
 1410 00aa CF90      		pop r12
 1411               	.LVL138:
 1412 00ac BF90      		pop r11
 1413 00ae AF90      		pop r10
 1414               	.LVL139:
 1415 00b0 9F90      		pop r9
 1416 00b2 8F90      		pop r8
 1417 00b4 0895      		ret
 1418               		.cfi_endproc
 1419               	.LFE92:
 1421               		.section	.text.Endpoint_Write_EStream_LE,"ax",@progbits
 1422               	.global	Endpoint_Write_EStream_LE
 1424               	Endpoint_Write_EStream_LE:
 1425               	.LFB93:
  36:../../../../tmk_core/protocol/lufa/LUFA-git/LUFA/Drivers/USB/Core/AVR8/Template/Template_Endpoint_RW.c **** {
 1426               		.loc 3 36 0
 1427               		.cfi_startproc
 1428               	.LVL140:
 1429 0000 8F92      		push r8
 1430               	.LCFI68:
 1431               		.cfi_def_cfa_offset 3
 1432               		.cfi_offset 8, -2
 1433 0002 9F92      		push r9
 1434               	.LCFI69:
 1435               		.cfi_def_cfa_offset 4
 1436               		.cfi_offset 9, -3
 1437 0004 AF92      		push r10
 1438               	.LCFI70:
 1439               		.cfi_def_cfa_offset 5
 1440               		.cfi_offset 10, -4
 1441 0006 BF92      		push r11
 1442               	.LCFI71:
 1443               		.cfi_def_cfa_offset 6
 1444               		.cfi_offset 11, -5
 1445 0008 CF92      		push r12
 1446               	.LCFI72:
 1447               		.cfi_def_cfa_offset 7
 1448               		.cfi_offset 12, -6
 1449 000a DF92      		push r13
 1450               	.LCFI73:
 1451               		.cfi_def_cfa_offset 8
 1452               		.cfi_offset 13, -7
 1453 000c EF92      		push r14
 1454               	.LCFI74:
 1455               		.cfi_def_cfa_offset 9
 1456               		.cfi_offset 14, -8
 1457 000e FF92      		push r15
 1458               	.LCFI75:
 1459               		.cfi_def_cfa_offset 10
 1460               		.cfi_offset 15, -9
 1461 0010 CF93      		push r28
 1462               	.LCFI76:
 1463               		.cfi_def_cfa_offset 11
 1464               		.cfi_offset 28, -10
 1465               	/* prologue: function */
 1466               	/* frame size = 0 */
 1467               	/* stack size = 9 */
 1468               	.L__stack_usage = 9
 1469 0012 5C01      		movw r10,r24
 1470 0014 6B01      		movw r12,r22
 1471 0016 7A01      		movw r14,r20
 1472               	.LVL141:
  41:../../../../tmk_core/protocol/lufa/LUFA-git/LUFA/Drivers/USB/Core/AVR8/Template/Template_Endpoint_RW.c **** 	if ((ErrorCode = Endpoint_WaitUntilReady()))
 1473               		.loc 3 41 0
 1474 0018 0E94 0000 		call Endpoint_WaitUntilReady
 1475               	.LVL142:
 1476 001c C82F      		mov r28,r24
 1477               	.LVL143:
 1478 001e 8111      		cpse r24,__zero_reg__
 1479 0020 00C0      		rjmp .L100
  44:../../../../tmk_core/protocol/lufa/LUFA-git/LUFA/Drivers/USB/Core/AVR8/Template/Template_Endpoint_RW.c **** 	if (BytesProcessed != NULL)
 1480               		.loc 3 44 0
 1481 0022 E114      		cp r14,__zero_reg__
 1482 0024 F104      		cpc r15,__zero_reg__
 1483 0026 01F0      		breq .L101
  46:../../../../tmk_core/protocol/lufa/LUFA-git/LUFA/Drivers/USB/Core/AVR8/Template/Template_Endpoint_RW.c **** 		Length -= *BytesProcessed;
 1484               		.loc 3 46 0
 1485 0028 F701      		movw r30,r14
 1486 002a 2081      		ld r18,Z
 1487 002c 3181      		ldd r19,Z+1
 1488 002e C21A      		sub r12,r18
 1489 0030 D30A      		sbc r13,r19
 1490               	.LVL144:
  47:../../../../tmk_core/protocol/lufa/LUFA-git/LUFA/Drivers/USB/Core/AVR8/Template/Template_Endpoint_RW.c **** 		TEMPLATE_BUFFER_MOVE(DataStream, *BytesProcessed);
 1491               		.loc 3 47 0
 1492 0032 A20E      		add r10,r18
 1493 0034 B31E      		adc r11,r19
 1494               	.LVL145:
 1495               	.L101:
  37:../../../../tmk_core/protocol/lufa/LUFA-git/LUFA/Drivers/USB/Core/AVR8/Template/Template_Endpoint_RW.c **** 	uint8_t* DataStream      = ((uint8_t*)Buffer + TEMPLATE_BUFFER_OFFSET(Length));
 1496               		.loc 3 37 0 discriminator 1
 1497 0036 812C      		mov r8,__zero_reg__
 1498 0038 912C      		mov r9,__zero_reg__
 1499 003a 00C0      		rjmp .L109
 1500               	.LVL146:
 1501               	.L106:
 1502               	.LBB318:
 1503               	.LBB319:
 360:../../../../tmk_core/protocol/lufa/LUFA-git/LUFA/Drivers/USB/Core/AVR8/../AVR8/../AVR8/Endpoint_AVR8.h **** 				return ((UEINTX & (1 << RWAL)) ? true : false);
 1504               		.loc 2 360 0
 1505 003c 8091 E800 		lds r24,232
 1506               	.LBE319:
 1507               	.LBE318:
  52:../../../../tmk_core/protocol/lufa/LUFA-git/LUFA/Drivers/USB/Core/AVR8/Template/Template_Endpoint_RW.c **** 		if (!(Endpoint_IsReadWriteAllowed()))
 1508               		.loc 3 52 0
 1509 0040 85FD      		sbrc r24,5
 1510 0042 00C0      		rjmp .L103
 1511               	.LBB320:
 1512               	.LBB321:
 456:../../../../tmk_core/protocol/lufa/LUFA-git/LUFA/Drivers/USB/Core/AVR8/../AVR8/../AVR8/Endpoint_AVR8.h **** 					UEINTX &= ~((1 << TXINI) | (1 << FIFOCON));
 1513               		.loc 2 456 0
 1514 0044 8091 E800 		lds r24,232
 1515 0048 8E77      		andi r24,lo8(126)
 1516 004a 8093 E800 		sts 232,r24
 1517               	.LBE321:
 1518               	.LBE320:
  60:../../../../tmk_core/protocol/lufa/LUFA-git/LUFA/Drivers/USB/Core/AVR8/Template/Template_Endpoint_RW.c **** 			if (BytesProcessed != NULL)
 1519               		.loc 3 60 0
 1520 004e E114      		cp r14,__zero_reg__
 1521 0050 F104      		cpc r15,__zero_reg__
 1522 0052 01F0      		breq .L104
  62:../../../../tmk_core/protocol/lufa/LUFA-git/LUFA/Drivers/USB/Core/AVR8/Template/Template_Endpoint_RW.c **** 				*BytesProcessed += BytesInTransfer;
 1523               		.loc 3 62 0
 1524 0054 F701      		movw r30,r14
 1525 0056 8081      		ld r24,Z
 1526 0058 9181      		ldd r25,Z+1
 1527 005a 880D      		add r24,r8
 1528 005c 991D      		adc r25,r9
 1529 005e 9183      		std Z+1,r25
 1530 0060 8083      		st Z,r24
  63:../../../../tmk_core/protocol/lufa/LUFA-git/LUFA/Drivers/USB/Core/AVR8/Template/Template_Endpoint_RW.c **** 				return ENDPOINT_RWSTREAM_IncompleteTransfer;
 1531               		.loc 3 63 0
 1532 0062 C5E0      		ldi r28,lo8(5)
 1533 0064 00C0      		rjmp .L100
 1534               	.L104:
  66:../../../../tmk_core/protocol/lufa/LUFA-git/LUFA/Drivers/USB/Core/AVR8/Template/Template_Endpoint_RW.c **** 			if ((ErrorCode = Endpoint_WaitUntilReady()))
 1535               		.loc 3 66 0
 1536 0066 0E94 0000 		call Endpoint_WaitUntilReady
 1537               	.LVL147:
 1538 006a 8823      		tst r24
 1539 006c 01F0      		breq .L109
 1540 006e 00C0      		rjmp .L108
 1541               	.LVL148:
 1542               	.L103:
  71:../../../../tmk_core/protocol/lufa/LUFA-git/LUFA/Drivers/USB/Core/AVR8/Template/Template_Endpoint_RW.c **** 			TEMPLATE_TRANSFER_BYTE(DataStream);
 1543               		.loc 3 71 0
 1544 0070 C501      		movw r24,r10
 1545 0072 0E94 0000 		call __eerd_byte_usb1286
 1546               	.LVL149:
 1547               	.LBB322:
 1548               	.LBB323:
 554:../../../../tmk_core/protocol/lufa/LUFA-git/LUFA/Drivers/USB/Core/AVR8/../AVR8/../AVR8/Endpoint_AVR8.h **** 				UEDATX = Data;
 1549               		.loc 2 554 0
 1550 0076 8093 F100 		sts 241,r24
 1551               	.LBE323:
 1552               	.LBE322:
  72:../../../../tmk_core/protocol/lufa/LUFA-git/LUFA/Drivers/USB/Core/AVR8/Template/Template_Endpoint_RW.c **** 			TEMPLATE_BUFFER_MOVE(DataStream, 1);
 1553               		.loc 3 72 0
 1554 007a FFEF      		ldi r31,-1
 1555 007c AF1A      		sub r10,r31
 1556 007e BF0A      		sbc r11,r31
 1557               	.LVL150:
  73:../../../../tmk_core/protocol/lufa/LUFA-git/LUFA/Drivers/USB/Core/AVR8/Template/Template_Endpoint_RW.c **** 			Length--;
 1558               		.loc 3 73 0
 1559 0080 81E0      		ldi r24,1
 1560 0082 C81A      		sub r12,r24
 1561 0084 D108      		sbc r13,__zero_reg__
 1562               	.LVL151:
  74:../../../../tmk_core/protocol/lufa/LUFA-git/LUFA/Drivers/USB/Core/AVR8/Template/Template_Endpoint_RW.c **** 			BytesInTransfer++;
 1563               		.loc 3 74 0
 1564 0086 EFEF      		ldi r30,-1
 1565 0088 8E1A      		sub r8,r30
 1566 008a 9E0A      		sbc r9,r30
 1567               	.LVL152:
 1568               	.L109:
  50:../../../../tmk_core/protocol/lufa/LUFA-git/LUFA/Drivers/USB/Core/AVR8/Template/Template_Endpoint_RW.c **** 	while (Length)
 1569               		.loc 3 50 0 discriminator 1
 1570 008c C114      		cp r12,__zero_reg__
 1571 008e D104      		cpc r13,__zero_reg__
 1572 0090 01F4      		brne .L106
 1573 0092 00C0      		rjmp .L100
 1574               	.LVL153:
 1575               	.L108:
  66:../../../../tmk_core/protocol/lufa/LUFA-git/LUFA/Drivers/USB/Core/AVR8/Template/Template_Endpoint_RW.c **** 			if ((ErrorCode = Endpoint_WaitUntilReady()))
 1576               		.loc 3 66 0
 1577 0094 C82F      		mov r28,r24
 1578               	.LVL154:
 1579               	.L100:
 1580               		.loc 3 79 0
 1581 0096 8C2F      		mov r24,r28
 1582               	/* epilogue start */
 1583 0098 CF91      		pop r28
 1584 009a FF90      		pop r15
 1585 009c EF90      		pop r14
 1586               	.LVL155:
 1587 009e DF90      		pop r13
 1588 00a0 CF90      		pop r12
 1589               	.LVL156:
 1590 00a2 BF90      		pop r11
 1591 00a4 AF90      		pop r10
 1592               	.LVL157:
 1593 00a6 9F90      		pop r9
 1594 00a8 8F90      		pop r8
 1595 00aa 0895      		ret
 1596               		.cfi_endproc
 1597               	.LFE93:
 1599               		.section	.text.Endpoint_Write_EStream_BE,"ax",@progbits
 1600               	.global	Endpoint_Write_EStream_BE
 1602               	Endpoint_Write_EStream_BE:
 1603               	.LFB94:
  36:../../../../tmk_core/protocol/lufa/LUFA-git/LUFA/Drivers/USB/Core/AVR8/Template/Template_Endpoint_RW.c **** {
 1604               		.loc 3 36 0
 1605               		.cfi_startproc
 1606               	.LVL158:
 1607 0000 8F92      		push r8
 1608               	.LCFI77:
 1609               		.cfi_def_cfa_offset 3
 1610               		.cfi_offset 8, -2
 1611 0002 9F92      		push r9
 1612               	.LCFI78:
 1613               		.cfi_def_cfa_offset 4
 1614               		.cfi_offset 9, -3
 1615 0004 AF92      		push r10
 1616               	.LCFI79:
 1617               		.cfi_def_cfa_offset 5
 1618               		.cfi_offset 10, -4
 1619 0006 BF92      		push r11
 1620               	.LCFI80:
 1621               		.cfi_def_cfa_offset 6
 1622               		.cfi_offset 11, -5
 1623 0008 CF92      		push r12
 1624               	.LCFI81:
 1625               		.cfi_def_cfa_offset 7
 1626               		.cfi_offset 12, -6
 1627 000a DF92      		push r13
 1628               	.LCFI82:
 1629               		.cfi_def_cfa_offset 8
 1630               		.cfi_offset 13, -7
 1631 000c EF92      		push r14
 1632               	.LCFI83:
 1633               		.cfi_def_cfa_offset 9
 1634               		.cfi_offset 14, -8
 1635 000e FF92      		push r15
 1636               	.LCFI84:
 1637               		.cfi_def_cfa_offset 10
 1638               		.cfi_offset 15, -9
 1639 0010 CF93      		push r28
 1640               	.LCFI85:
 1641               		.cfi_def_cfa_offset 11
 1642               		.cfi_offset 28, -10
 1643               	/* prologue: function */
 1644               	/* frame size = 0 */
 1645               	/* stack size = 9 */
 1646               	.L__stack_usage = 9
 1647 0012 4C01      		movw r8,r24
 1648 0014 6B01      		movw r12,r22
 1649 0016 5A01      		movw r10,r20
 1650               	.LVL159:
  41:../../../../tmk_core/protocol/lufa/LUFA-git/LUFA/Drivers/USB/Core/AVR8/Template/Template_Endpoint_RW.c **** 	if ((ErrorCode = Endpoint_WaitUntilReady()))
 1651               		.loc 3 41 0
 1652 0018 0E94 0000 		call Endpoint_WaitUntilReady
 1653               	.LVL160:
 1654 001c C82F      		mov r28,r24
 1655               	.LVL161:
 1656 001e 8111      		cpse r24,__zero_reg__
 1657 0020 00C0      		rjmp .L111
  37:../../../../tmk_core/protocol/lufa/LUFA-git/LUFA/Drivers/USB/Core/AVR8/Template/Template_Endpoint_RW.c **** 	uint8_t* DataStream      = ((uint8_t*)Buffer + TEMPLATE_BUFFER_OFFSET(Length));
 1658               		.loc 3 37 0
 1659 0022 7601      		movw r14,r12
 1660 0024 81E0      		ldi r24,1
 1661 0026 E81A      		sub r14,r24
 1662 0028 F108      		sbc r15,__zero_reg__
 1663               	.LVL162:
 1664 002a E80C      		add r14,r8
 1665 002c F91C      		adc r15,r9
 1666               	.LVL163:
  44:../../../../tmk_core/protocol/lufa/LUFA-git/LUFA/Drivers/USB/Core/AVR8/Template/Template_Endpoint_RW.c **** 	if (BytesProcessed != NULL)
 1667               		.loc 3 44 0
 1668 002e A114      		cp r10,__zero_reg__
 1669 0030 B104      		cpc r11,__zero_reg__
 1670 0032 01F0      		breq .L112
  46:../../../../tmk_core/protocol/lufa/LUFA-git/LUFA/Drivers/USB/Core/AVR8/Template/Template_Endpoint_RW.c **** 		Length -= *BytesProcessed;
 1671               		.loc 3 46 0
 1672 0034 F501      		movw r30,r10
 1673 0036 2081      		ld r18,Z
 1674 0038 3181      		ldd r19,Z+1
 1675 003a C21A      		sub r12,r18
 1676 003c D30A      		sbc r13,r19
 1677               	.LVL164:
  47:../../../../tmk_core/protocol/lufa/LUFA-git/LUFA/Drivers/USB/Core/AVR8/Template/Template_Endpoint_RW.c **** 		TEMPLATE_BUFFER_MOVE(DataStream, *BytesProcessed);
 1678               		.loc 3 47 0
 1679 003e E21A      		sub r14,r18
 1680 0040 F30A      		sbc r15,r19
 1681               	.LVL165:
 1682               	.L112:
  36:../../../../tmk_core/protocol/lufa/LUFA-git/LUFA/Drivers/USB/Core/AVR8/Template/Template_Endpoint_RW.c **** {
 1683               		.loc 3 36 0 discriminator 1
 1684 0042 812C      		mov r8,__zero_reg__
 1685 0044 912C      		mov r9,__zero_reg__
 1686               	.LVL166:
 1687 0046 00C0      		rjmp .L122
 1688               	.LVL167:
 1689               	.L117:
 1690               	.LBB324:
 1691               	.LBB325:
 360:../../../../tmk_core/protocol/lufa/LUFA-git/LUFA/Drivers/USB/Core/AVR8/../AVR8/../AVR8/Endpoint_AVR8.h **** 				return ((UEINTX & (1 << RWAL)) ? true : false);
 1692               		.loc 2 360 0
 1693 0048 8091 E800 		lds r24,232
 1694               	.LBE325:
 1695               	.LBE324:
  52:../../../../tmk_core/protocol/lufa/LUFA-git/LUFA/Drivers/USB/Core/AVR8/Template/Template_Endpoint_RW.c **** 		if (!(Endpoint_IsReadWriteAllowed()))
 1696               		.loc 3 52 0
 1697 004c 85FD      		sbrc r24,5
 1698 004e 00C0      		rjmp .L114
 1699               	.LBB326:
 1700               	.LBB327:
 456:../../../../tmk_core/protocol/lufa/LUFA-git/LUFA/Drivers/USB/Core/AVR8/../AVR8/../AVR8/Endpoint_AVR8.h **** 					UEINTX &= ~((1 << TXINI) | (1 << FIFOCON));
 1701               		.loc 2 456 0
 1702 0050 8091 E800 		lds r24,232
 1703 0054 8E77      		andi r24,lo8(126)
 1704 0056 8093 E800 		sts 232,r24
 1705               	.LBE327:
 1706               	.LBE326:
  60:../../../../tmk_core/protocol/lufa/LUFA-git/LUFA/Drivers/USB/Core/AVR8/Template/Template_Endpoint_RW.c **** 			if (BytesProcessed != NULL)
 1707               		.loc 3 60 0
 1708 005a A114      		cp r10,__zero_reg__
 1709 005c B104      		cpc r11,__zero_reg__
 1710 005e 01F0      		breq .L115
  62:../../../../tmk_core/protocol/lufa/LUFA-git/LUFA/Drivers/USB/Core/AVR8/Template/Template_Endpoint_RW.c **** 				*BytesProcessed += BytesInTransfer;
 1711               		.loc 3 62 0
 1712 0060 F501      		movw r30,r10
 1713 0062 8081      		ld r24,Z
 1714 0064 9181      		ldd r25,Z+1
 1715 0066 880D      		add r24,r8
 1716 0068 991D      		adc r25,r9
 1717 006a 9183      		std Z+1,r25
 1718 006c 8083      		st Z,r24
  63:../../../../tmk_core/protocol/lufa/LUFA-git/LUFA/Drivers/USB/Core/AVR8/Template/Template_Endpoint_RW.c **** 				return ENDPOINT_RWSTREAM_IncompleteTransfer;
 1719               		.loc 3 63 0
 1720 006e C5E0      		ldi r28,lo8(5)
 1721 0070 00C0      		rjmp .L111
 1722               	.L115:
  66:../../../../tmk_core/protocol/lufa/LUFA-git/LUFA/Drivers/USB/Core/AVR8/Template/Template_Endpoint_RW.c **** 			if ((ErrorCode = Endpoint_WaitUntilReady()))
 1723               		.loc 3 66 0
 1724 0072 0E94 0000 		call Endpoint_WaitUntilReady
 1725               	.LVL168:
 1726 0076 8823      		tst r24
 1727 0078 01F0      		breq .L122
 1728 007a 00C0      		rjmp .L118
 1729               	.LVL169:
 1730               	.L114:
  71:../../../../tmk_core/protocol/lufa/LUFA-git/LUFA/Drivers/USB/Core/AVR8/Template/Template_Endpoint_RW.c **** 			TEMPLATE_TRANSFER_BYTE(DataStream);
 1731               		.loc 3 71 0
 1732 007c C701      		movw r24,r14
 1733 007e 0E94 0000 		call __eerd_byte_usb1286
 1734               	.LVL170:
 1735               	.LBB328:
 1736               	.LBB329:
 554:../../../../tmk_core/protocol/lufa/LUFA-git/LUFA/Drivers/USB/Core/AVR8/../AVR8/../AVR8/Endpoint_AVR8.h **** 				UEDATX = Data;
 1737               		.loc 2 554 0
 1738 0082 8093 F100 		sts 241,r24
 1739               	.LBE329:
 1740               	.LBE328:
  72:../../../../tmk_core/protocol/lufa/LUFA-git/LUFA/Drivers/USB/Core/AVR8/Template/Template_Endpoint_RW.c **** 			TEMPLATE_BUFFER_MOVE(DataStream, 1);
 1741               		.loc 3 72 0
 1742 0086 F1E0      		ldi r31,1
 1743 0088 EF1A      		sub r14,r31
 1744 008a F108      		sbc r15,__zero_reg__
 1745               	.LVL171:
  73:../../../../tmk_core/protocol/lufa/LUFA-git/LUFA/Drivers/USB/Core/AVR8/Template/Template_Endpoint_RW.c **** 			Length--;
 1746               		.loc 3 73 0
 1747 008c 81E0      		ldi r24,1
 1748 008e C81A      		sub r12,r24
 1749 0090 D108      		sbc r13,__zero_reg__
 1750               	.LVL172:
  74:../../../../tmk_core/protocol/lufa/LUFA-git/LUFA/Drivers/USB/Core/AVR8/Template/Template_Endpoint_RW.c **** 			BytesInTransfer++;
 1751               		.loc 3 74 0
 1752 0092 EFEF      		ldi r30,-1
 1753 0094 8E1A      		sub r8,r30
 1754 0096 9E0A      		sbc r9,r30
 1755               	.LVL173:
 1756               	.L122:
  50:../../../../tmk_core/protocol/lufa/LUFA-git/LUFA/Drivers/USB/Core/AVR8/Template/Template_Endpoint_RW.c **** 	while (Length)
 1757               		.loc 3 50 0 discriminator 1
 1758 0098 C114      		cp r12,__zero_reg__
 1759 009a D104      		cpc r13,__zero_reg__
 1760 009c 01F4      		brne .L117
 1761 009e 00C0      		rjmp .L111
 1762               	.LVL174:
 1763               	.L118:
  66:../../../../tmk_core/protocol/lufa/LUFA-git/LUFA/Drivers/USB/Core/AVR8/Template/Template_Endpoint_RW.c **** 			if ((ErrorCode = Endpoint_WaitUntilReady()))
 1764               		.loc 3 66 0
 1765 00a0 C82F      		mov r28,r24
 1766               	.LVL175:
 1767               	.L111:
 1768               		.loc 3 79 0
 1769 00a2 8C2F      		mov r24,r28
 1770               	/* epilogue start */
 1771 00a4 CF91      		pop r28
 1772 00a6 FF90      		pop r15
 1773 00a8 EF90      		pop r14
 1774 00aa DF90      		pop r13
 1775 00ac CF90      		pop r12
 1776               	.LVL176:
 1777 00ae BF90      		pop r11
 1778 00b0 AF90      		pop r10
 1779               	.LVL177:
 1780 00b2 9F90      		pop r9
 1781 00b4 8F90      		pop r8
 1782 00b6 0895      		ret
 1783               		.cfi_endproc
 1784               	.LFE94:
 1786               		.section	.text.Endpoint_Read_EStream_LE,"ax",@progbits
 1787               	.global	Endpoint_Read_EStream_LE
 1789               	Endpoint_Read_EStream_LE:
 1790               	.LFB95:
  36:../../../../tmk_core/protocol/lufa/LUFA-git/LUFA/Drivers/USB/Core/AVR8/Template/Template_Endpoint_RW.c **** {
 1791               		.loc 3 36 0
 1792               		.cfi_startproc
 1793               	.LVL178:
 1794 0000 8F92      		push r8
 1795               	.LCFI86:
 1796               		.cfi_def_cfa_offset 3
 1797               		.cfi_offset 8, -2
 1798 0002 9F92      		push r9
 1799               	.LCFI87:
 1800               		.cfi_def_cfa_offset 4
 1801               		.cfi_offset 9, -3
 1802 0004 AF92      		push r10
 1803               	.LCFI88:
 1804               		.cfi_def_cfa_offset 5
 1805               		.cfi_offset 10, -4
 1806 0006 BF92      		push r11
 1807               	.LCFI89:
 1808               		.cfi_def_cfa_offset 6
 1809               		.cfi_offset 11, -5
 1810 0008 CF92      		push r12
 1811               	.LCFI90:
 1812               		.cfi_def_cfa_offset 7
 1813               		.cfi_offset 12, -6
 1814 000a DF92      		push r13
 1815               	.LCFI91:
 1816               		.cfi_def_cfa_offset 8
 1817               		.cfi_offset 13, -7
 1818 000c EF92      		push r14
 1819               	.LCFI92:
 1820               		.cfi_def_cfa_offset 9
 1821               		.cfi_offset 14, -8
 1822 000e FF92      		push r15
 1823               	.LCFI93:
 1824               		.cfi_def_cfa_offset 10
 1825               		.cfi_offset 15, -9
 1826 0010 CF93      		push r28
 1827               	.LCFI94:
 1828               		.cfi_def_cfa_offset 11
 1829               		.cfi_offset 28, -10
 1830               	/* prologue: function */
 1831               	/* frame size = 0 */
 1832               	/* stack size = 9 */
 1833               	.L__stack_usage = 9
 1834 0012 5C01      		movw r10,r24
 1835 0014 6B01      		movw r12,r22
 1836 0016 7A01      		movw r14,r20
 1837               	.LVL179:
  41:../../../../tmk_core/protocol/lufa/LUFA-git/LUFA/Drivers/USB/Core/AVR8/Template/Template_Endpoint_RW.c **** 	if ((ErrorCode = Endpoint_WaitUntilReady()))
 1838               		.loc 3 41 0
 1839 0018 0E94 0000 		call Endpoint_WaitUntilReady
 1840               	.LVL180:
 1841 001c C82F      		mov r28,r24
 1842               	.LVL181:
 1843 001e 8111      		cpse r24,__zero_reg__
 1844 0020 00C0      		rjmp .L124
  44:../../../../tmk_core/protocol/lufa/LUFA-git/LUFA/Drivers/USB/Core/AVR8/Template/Template_Endpoint_RW.c **** 	if (BytesProcessed != NULL)
 1845               		.loc 3 44 0
 1846 0022 E114      		cp r14,__zero_reg__
 1847 0024 F104      		cpc r15,__zero_reg__
 1848 0026 01F0      		breq .L125
  46:../../../../tmk_core/protocol/lufa/LUFA-git/LUFA/Drivers/USB/Core/AVR8/Template/Template_Endpoint_RW.c **** 		Length -= *BytesProcessed;
 1849               		.loc 3 46 0
 1850 0028 F701      		movw r30,r14
 1851 002a 2081      		ld r18,Z
 1852 002c 3181      		ldd r19,Z+1
 1853 002e C21A      		sub r12,r18
 1854 0030 D30A      		sbc r13,r19
 1855               	.LVL182:
  47:../../../../tmk_core/protocol/lufa/LUFA-git/LUFA/Drivers/USB/Core/AVR8/Template/Template_Endpoint_RW.c **** 		TEMPLATE_BUFFER_MOVE(DataStream, *BytesProcessed);
 1856               		.loc 3 47 0
 1857 0032 A20E      		add r10,r18
 1858 0034 B31E      		adc r11,r19
 1859               	.LVL183:
 1860               	.L125:
  37:../../../../tmk_core/protocol/lufa/LUFA-git/LUFA/Drivers/USB/Core/AVR8/Template/Template_Endpoint_RW.c **** 	uint8_t* DataStream      = ((uint8_t*)Buffer + TEMPLATE_BUFFER_OFFSET(Length));
 1861               		.loc 3 37 0 discriminator 1
 1862 0036 812C      		mov r8,__zero_reg__
 1863 0038 912C      		mov r9,__zero_reg__
 1864 003a 00C0      		rjmp .L133
 1865               	.LVL184:
 1866               	.L130:
 1867               	.LBB330:
 1868               	.LBB331:
 360:../../../../tmk_core/protocol/lufa/LUFA-git/LUFA/Drivers/USB/Core/AVR8/../AVR8/../AVR8/Endpoint_AVR8.h **** 				return ((UEINTX & (1 << RWAL)) ? true : false);
 1869               		.loc 2 360 0
 1870 003c 8091 E800 		lds r24,232
 1871               	.LBE331:
 1872               	.LBE330:
  52:../../../../tmk_core/protocol/lufa/LUFA-git/LUFA/Drivers/USB/Core/AVR8/Template/Template_Endpoint_RW.c **** 		if (!(Endpoint_IsReadWriteAllowed()))
 1873               		.loc 3 52 0
 1874 0040 85FD      		sbrc r24,5
 1875 0042 00C0      		rjmp .L127
 1876               	.LBB332:
 1877               	.LBB333:
 471:../../../../tmk_core/protocol/lufa/LUFA-git/LUFA/Drivers/USB/Core/AVR8/../AVR8/../AVR8/Endpoint_AVR8.h **** 					UEINTX &= ~((1 << RXOUTI) | (1 << FIFOCON));
 1878               		.loc 2 471 0
 1879 0044 8091 E800 		lds r24,232
 1880 0048 8B77      		andi r24,lo8(123)
 1881 004a 8093 E800 		sts 232,r24
 1882               	.LBE333:
 1883               	.LBE332:
  60:../../../../tmk_core/protocol/lufa/LUFA-git/LUFA/Drivers/USB/Core/AVR8/Template/Template_Endpoint_RW.c **** 			if (BytesProcessed != NULL)
 1884               		.loc 3 60 0
 1885 004e E114      		cp r14,__zero_reg__
 1886 0050 F104      		cpc r15,__zero_reg__
 1887 0052 01F0      		breq .L128
  62:../../../../tmk_core/protocol/lufa/LUFA-git/LUFA/Drivers/USB/Core/AVR8/Template/Template_Endpoint_RW.c **** 				*BytesProcessed += BytesInTransfer;
 1888               		.loc 3 62 0
 1889 0054 F701      		movw r30,r14
 1890 0056 8081      		ld r24,Z
 1891 0058 9181      		ldd r25,Z+1
 1892 005a 880D      		add r24,r8
 1893 005c 991D      		adc r25,r9
 1894 005e 9183      		std Z+1,r25
 1895 0060 8083      		st Z,r24
  63:../../../../tmk_core/protocol/lufa/LUFA-git/LUFA/Drivers/USB/Core/AVR8/Template/Template_Endpoint_RW.c **** 				return ENDPOINT_RWSTREAM_IncompleteTransfer;
 1896               		.loc 3 63 0
 1897 0062 C5E0      		ldi r28,lo8(5)
 1898 0064 00C0      		rjmp .L124
 1899               	.L128:
  66:../../../../tmk_core/protocol/lufa/LUFA-git/LUFA/Drivers/USB/Core/AVR8/Template/Template_Endpoint_RW.c **** 			if ((ErrorCode = Endpoint_WaitUntilReady()))
 1900               		.loc 3 66 0
 1901 0066 0E94 0000 		call Endpoint_WaitUntilReady
 1902               	.LVL185:
 1903 006a 8823      		tst r24
 1904 006c 01F0      		breq .L133
 1905 006e 00C0      		rjmp .L132
 1906               	.LVL186:
 1907               	.L127:
 1908               	.LBB334:
 1909               	.LBB335:
 542:../../../../tmk_core/protocol/lufa/LUFA-git/LUFA/Drivers/USB/Core/AVR8/../AVR8/../AVR8/Endpoint_AVR8.h **** 				return UEDATX;
 1910               		.loc 2 542 0
 1911 0070 6091 F100 		lds r22,241
 1912               	.LBE335:
 1913               	.LBE334:
  71:../../../../tmk_core/protocol/lufa/LUFA-git/LUFA/Drivers/USB/Core/AVR8/Template/Template_Endpoint_RW.c **** 			TEMPLATE_TRANSFER_BYTE(DataStream);
 1914               		.loc 3 71 0
 1915 0074 C501      		movw r24,r10
 1916 0076 0E94 0000 		call __eeupd_byte_usb1286
 1917               	.LVL187:
  72:../../../../tmk_core/protocol/lufa/LUFA-git/LUFA/Drivers/USB/Core/AVR8/Template/Template_Endpoint_RW.c **** 			TEMPLATE_BUFFER_MOVE(DataStream, 1);
 1918               		.loc 3 72 0
 1919 007a FFEF      		ldi r31,-1
 1920 007c AF1A      		sub r10,r31
 1921 007e BF0A      		sbc r11,r31
 1922               	.LVL188:
  73:../../../../tmk_core/protocol/lufa/LUFA-git/LUFA/Drivers/USB/Core/AVR8/Template/Template_Endpoint_RW.c **** 			Length--;
 1923               		.loc 3 73 0
 1924 0080 81E0      		ldi r24,1
 1925 0082 C81A      		sub r12,r24
 1926 0084 D108      		sbc r13,__zero_reg__
 1927               	.LVL189:
  74:../../../../tmk_core/protocol/lufa/LUFA-git/LUFA/Drivers/USB/Core/AVR8/Template/Template_Endpoint_RW.c **** 			BytesInTransfer++;
 1928               		.loc 3 74 0
 1929 0086 EFEF      		ldi r30,-1
 1930 0088 8E1A      		sub r8,r30
 1931 008a 9E0A      		sbc r9,r30
 1932               	.LVL190:
 1933               	.L133:
  50:../../../../tmk_core/protocol/lufa/LUFA-git/LUFA/Drivers/USB/Core/AVR8/Template/Template_Endpoint_RW.c **** 	while (Length)
 1934               		.loc 3 50 0 discriminator 1
 1935 008c C114      		cp r12,__zero_reg__
 1936 008e D104      		cpc r13,__zero_reg__
 1937 0090 01F4      		brne .L130
 1938 0092 00C0      		rjmp .L124
 1939               	.LVL191:
 1940               	.L132:
  66:../../../../tmk_core/protocol/lufa/LUFA-git/LUFA/Drivers/USB/Core/AVR8/Template/Template_Endpoint_RW.c **** 			if ((ErrorCode = Endpoint_WaitUntilReady()))
 1941               		.loc 3 66 0
 1942 0094 C82F      		mov r28,r24
 1943               	.LVL192:
 1944               	.L124:
 1945               		.loc 3 79 0
 1946 0096 8C2F      		mov r24,r28
 1947               	/* epilogue start */
 1948 0098 CF91      		pop r28
 1949 009a FF90      		pop r15
 1950 009c EF90      		pop r14
 1951               	.LVL193:
 1952 009e DF90      		pop r13
 1953 00a0 CF90      		pop r12
 1954               	.LVL194:
 1955 00a2 BF90      		pop r11
 1956 00a4 AF90      		pop r10
 1957               	.LVL195:
 1958 00a6 9F90      		pop r9
 1959 00a8 8F90      		pop r8
 1960 00aa 0895      		ret
 1961               		.cfi_endproc
 1962               	.LFE95:
 1964               		.section	.text.Endpoint_Read_EStream_BE,"ax",@progbits
 1965               	.global	Endpoint_Read_EStream_BE
 1967               	Endpoint_Read_EStream_BE:
 1968               	.LFB96:
  36:../../../../tmk_core/protocol/lufa/LUFA-git/LUFA/Drivers/USB/Core/AVR8/Template/Template_Endpoint_RW.c **** {
 1969               		.loc 3 36 0
 1970               		.cfi_startproc
 1971               	.LVL196:
 1972 0000 8F92      		push r8
 1973               	.LCFI95:
 1974               		.cfi_def_cfa_offset 3
 1975               		.cfi_offset 8, -2
 1976 0002 9F92      		push r9
 1977               	.LCFI96:
 1978               		.cfi_def_cfa_offset 4
 1979               		.cfi_offset 9, -3
 1980 0004 AF92      		push r10
 1981               	.LCFI97:
 1982               		.cfi_def_cfa_offset 5
 1983               		.cfi_offset 10, -4
 1984 0006 BF92      		push r11
 1985               	.LCFI98:
 1986               		.cfi_def_cfa_offset 6
 1987               		.cfi_offset 11, -5
 1988 0008 CF92      		push r12
 1989               	.LCFI99:
 1990               		.cfi_def_cfa_offset 7
 1991               		.cfi_offset 12, -6
 1992 000a DF92      		push r13
 1993               	.LCFI100:
 1994               		.cfi_def_cfa_offset 8
 1995               		.cfi_offset 13, -7
 1996 000c EF92      		push r14
 1997               	.LCFI101:
 1998               		.cfi_def_cfa_offset 9
 1999               		.cfi_offset 14, -8
 2000 000e FF92      		push r15
 2001               	.LCFI102:
 2002               		.cfi_def_cfa_offset 10
 2003               		.cfi_offset 15, -9
 2004 0010 CF93      		push r28
 2005               	.LCFI103:
 2006               		.cfi_def_cfa_offset 11
 2007               		.cfi_offset 28, -10
 2008               	/* prologue: function */
 2009               	/* frame size = 0 */
 2010               	/* stack size = 9 */
 2011               	.L__stack_usage = 9
 2012 0012 4C01      		movw r8,r24
 2013 0014 6B01      		movw r12,r22
 2014 0016 5A01      		movw r10,r20
 2015               	.LVL197:
  41:../../../../tmk_core/protocol/lufa/LUFA-git/LUFA/Drivers/USB/Core/AVR8/Template/Template_Endpoint_RW.c **** 	if ((ErrorCode = Endpoint_WaitUntilReady()))
 2016               		.loc 3 41 0
 2017 0018 0E94 0000 		call Endpoint_WaitUntilReady
 2018               	.LVL198:
 2019 001c C82F      		mov r28,r24
 2020               	.LVL199:
 2021 001e 8111      		cpse r24,__zero_reg__
 2022 0020 00C0      		rjmp .L135
  37:../../../../tmk_core/protocol/lufa/LUFA-git/LUFA/Drivers/USB/Core/AVR8/Template/Template_Endpoint_RW.c **** 	uint8_t* DataStream      = ((uint8_t*)Buffer + TEMPLATE_BUFFER_OFFSET(Length));
 2023               		.loc 3 37 0
 2024 0022 7601      		movw r14,r12
 2025 0024 81E0      		ldi r24,1
 2026 0026 E81A      		sub r14,r24
 2027 0028 F108      		sbc r15,__zero_reg__
 2028               	.LVL200:
 2029 002a E80C      		add r14,r8
 2030 002c F91C      		adc r15,r9
 2031               	.LVL201:
  44:../../../../tmk_core/protocol/lufa/LUFA-git/LUFA/Drivers/USB/Core/AVR8/Template/Template_Endpoint_RW.c **** 	if (BytesProcessed != NULL)
 2032               		.loc 3 44 0
 2033 002e A114      		cp r10,__zero_reg__
 2034 0030 B104      		cpc r11,__zero_reg__
 2035 0032 01F0      		breq .L136
  46:../../../../tmk_core/protocol/lufa/LUFA-git/LUFA/Drivers/USB/Core/AVR8/Template/Template_Endpoint_RW.c **** 		Length -= *BytesProcessed;
 2036               		.loc 3 46 0
 2037 0034 F501      		movw r30,r10
 2038 0036 2081      		ld r18,Z
 2039 0038 3181      		ldd r19,Z+1
 2040 003a C21A      		sub r12,r18
 2041 003c D30A      		sbc r13,r19
 2042               	.LVL202:
  47:../../../../tmk_core/protocol/lufa/LUFA-git/LUFA/Drivers/USB/Core/AVR8/Template/Template_Endpoint_RW.c **** 		TEMPLATE_BUFFER_MOVE(DataStream, *BytesProcessed);
 2043               		.loc 3 47 0
 2044 003e E21A      		sub r14,r18
 2045 0040 F30A      		sbc r15,r19
 2046               	.LVL203:
 2047               	.L136:
  36:../../../../tmk_core/protocol/lufa/LUFA-git/LUFA/Drivers/USB/Core/AVR8/Template/Template_Endpoint_RW.c **** {
 2048               		.loc 3 36 0 discriminator 1
 2049 0042 812C      		mov r8,__zero_reg__
 2050 0044 912C      		mov r9,__zero_reg__
 2051               	.LVL204:
 2052 0046 00C0      		rjmp .L146
 2053               	.LVL205:
 2054               	.L141:
 2055               	.LBB336:
 2056               	.LBB337:
 360:../../../../tmk_core/protocol/lufa/LUFA-git/LUFA/Drivers/USB/Core/AVR8/../AVR8/../AVR8/Endpoint_AVR8.h **** 				return ((UEINTX & (1 << RWAL)) ? true : false);
 2057               		.loc 2 360 0
 2058 0048 8091 E800 		lds r24,232
 2059               	.LBE337:
 2060               	.LBE336:
  52:../../../../tmk_core/protocol/lufa/LUFA-git/LUFA/Drivers/USB/Core/AVR8/Template/Template_Endpoint_RW.c **** 		if (!(Endpoint_IsReadWriteAllowed()))
 2061               		.loc 3 52 0
 2062 004c 85FD      		sbrc r24,5
 2063 004e 00C0      		rjmp .L138
 2064               	.LBB338:
 2065               	.LBB339:
 471:../../../../tmk_core/protocol/lufa/LUFA-git/LUFA/Drivers/USB/Core/AVR8/../AVR8/../AVR8/Endpoint_AVR8.h **** 					UEINTX &= ~((1 << RXOUTI) | (1 << FIFOCON));
 2066               		.loc 2 471 0
 2067 0050 8091 E800 		lds r24,232
 2068 0054 8B77      		andi r24,lo8(123)
 2069 0056 8093 E800 		sts 232,r24
 2070               	.LBE339:
 2071               	.LBE338:
  60:../../../../tmk_core/protocol/lufa/LUFA-git/LUFA/Drivers/USB/Core/AVR8/Template/Template_Endpoint_RW.c **** 			if (BytesProcessed != NULL)
 2072               		.loc 3 60 0
 2073 005a A114      		cp r10,__zero_reg__
 2074 005c B104      		cpc r11,__zero_reg__
 2075 005e 01F0      		breq .L139
  62:../../../../tmk_core/protocol/lufa/LUFA-git/LUFA/Drivers/USB/Core/AVR8/Template/Template_Endpoint_RW.c **** 				*BytesProcessed += BytesInTransfer;
 2076               		.loc 3 62 0
 2077 0060 F501      		movw r30,r10
 2078 0062 8081      		ld r24,Z
 2079 0064 9181      		ldd r25,Z+1
 2080 0066 880D      		add r24,r8
 2081 0068 991D      		adc r25,r9
 2082 006a 9183      		std Z+1,r25
 2083 006c 8083      		st Z,r24
  63:../../../../tmk_core/protocol/lufa/LUFA-git/LUFA/Drivers/USB/Core/AVR8/Template/Template_Endpoint_RW.c **** 				return ENDPOINT_RWSTREAM_IncompleteTransfer;
 2084               		.loc 3 63 0
 2085 006e C5E0      		ldi r28,lo8(5)
 2086 0070 00C0      		rjmp .L135
 2087               	.L139:
  66:../../../../tmk_core/protocol/lufa/LUFA-git/LUFA/Drivers/USB/Core/AVR8/Template/Template_Endpoint_RW.c **** 			if ((ErrorCode = Endpoint_WaitUntilReady()))
 2088               		.loc 3 66 0
 2089 0072 0E94 0000 		call Endpoint_WaitUntilReady
 2090               	.LVL206:
 2091 0076 8823      		tst r24
 2092 0078 01F0      		breq .L146
 2093 007a 00C0      		rjmp .L142
 2094               	.LVL207:
 2095               	.L138:
 2096               	.LBB340:
 2097               	.LBB341:
 542:../../../../tmk_core/protocol/lufa/LUFA-git/LUFA/Drivers/USB/Core/AVR8/../AVR8/../AVR8/Endpoint_AVR8.h **** 				return UEDATX;
 2098               		.loc 2 542 0
 2099 007c 6091 F100 		lds r22,241
 2100               	.LBE341:
 2101               	.LBE340:
  71:../../../../tmk_core/protocol/lufa/LUFA-git/LUFA/Drivers/USB/Core/AVR8/Template/Template_Endpoint_RW.c **** 			TEMPLATE_TRANSFER_BYTE(DataStream);
 2102               		.loc 3 71 0
 2103 0080 C701      		movw r24,r14
 2104 0082 0E94 0000 		call __eeupd_byte_usb1286
 2105               	.LVL208:
  72:../../../../tmk_core/protocol/lufa/LUFA-git/LUFA/Drivers/USB/Core/AVR8/Template/Template_Endpoint_RW.c **** 			TEMPLATE_BUFFER_MOVE(DataStream, 1);
 2106               		.loc 3 72 0
 2107 0086 F1E0      		ldi r31,1
 2108 0088 EF1A      		sub r14,r31
 2109 008a F108      		sbc r15,__zero_reg__
 2110               	.LVL209:
  73:../../../../tmk_core/protocol/lufa/LUFA-git/LUFA/Drivers/USB/Core/AVR8/Template/Template_Endpoint_RW.c **** 			Length--;
 2111               		.loc 3 73 0
 2112 008c 81E0      		ldi r24,1
 2113 008e C81A      		sub r12,r24
 2114 0090 D108      		sbc r13,__zero_reg__
 2115               	.LVL210:
  74:../../../../tmk_core/protocol/lufa/LUFA-git/LUFA/Drivers/USB/Core/AVR8/Template/Template_Endpoint_RW.c **** 			BytesInTransfer++;
 2116               		.loc 3 74 0
 2117 0092 EFEF      		ldi r30,-1
 2118 0094 8E1A      		sub r8,r30
 2119 0096 9E0A      		sbc r9,r30
 2120               	.LVL211:
 2121               	.L146:
  50:../../../../tmk_core/protocol/lufa/LUFA-git/LUFA/Drivers/USB/Core/AVR8/Template/Template_Endpoint_RW.c **** 	while (Length)
 2122               		.loc 3 50 0 discriminator 1
 2123 0098 C114      		cp r12,__zero_reg__
 2124 009a D104      		cpc r13,__zero_reg__
 2125 009c 01F4      		brne .L141
 2126 009e 00C0      		rjmp .L135
 2127               	.LVL212:
 2128               	.L142:
  66:../../../../tmk_core/protocol/lufa/LUFA-git/LUFA/Drivers/USB/Core/AVR8/Template/Template_Endpoint_RW.c **** 			if ((ErrorCode = Endpoint_WaitUntilReady()))
 2129               		.loc 3 66 0
 2130 00a0 C82F      		mov r28,r24
 2131               	.LVL213:
 2132               	.L135:
 2133               		.loc 3 79 0
 2134 00a2 8C2F      		mov r24,r28
 2135               	/* epilogue start */
 2136 00a4 CF91      		pop r28
 2137 00a6 FF90      		pop r15
 2138 00a8 EF90      		pop r14
 2139 00aa DF90      		pop r13
 2140 00ac CF90      		pop r12
 2141               	.LVL214:
 2142 00ae BF90      		pop r11
 2143 00b0 AF90      		pop r10
 2144               	.LVL215:
 2145 00b2 9F90      		pop r9
 2146 00b4 8F90      		pop r8
 2147 00b6 0895      		ret
 2148               		.cfi_endproc
 2149               	.LFE96:
 2151               		.section	.text.Endpoint_Write_Control_Stream_LE,"ax",@progbits
 2152               	.global	Endpoint_Write_Control_Stream_LE
 2154               	Endpoint_Write_Control_Stream_LE:
 2155               	.LFB97:
 2156               		.file 4 "../../../../tmk_core/protocol/lufa/LUFA-git/LUFA/Drivers/USB/Core/AVR8/Template/Template_
   1:../../../../tmk_core/protocol/lufa/LUFA-git/LUFA/Drivers/USB/Core/AVR8/Template/Template_Endpoint_Control_W.c **** /*
   2:../../../../tmk_core/protocol/lufa/LUFA-git/LUFA/Drivers/USB/Core/AVR8/Template/Template_Endpoint_Control_W.c ****              LUFA Library
   3:../../../../tmk_core/protocol/lufa/LUFA-git/LUFA/Drivers/USB/Core/AVR8/Template/Template_Endpoint_Control_W.c ****      Copyright (C) Dean Camera, 2014.
   4:../../../../tmk_core/protocol/lufa/LUFA-git/LUFA/Drivers/USB/Core/AVR8/Template/Template_Endpoint_Control_W.c **** 
   5:../../../../tmk_core/protocol/lufa/LUFA-git/LUFA/Drivers/USB/Core/AVR8/Template/Template_Endpoint_Control_W.c ****   dean [at] fourwalledcubicle [dot] com
   6:../../../../tmk_core/protocol/lufa/LUFA-git/LUFA/Drivers/USB/Core/AVR8/Template/Template_Endpoint_Control_W.c ****            www.lufa-lib.org
   7:../../../../tmk_core/protocol/lufa/LUFA-git/LUFA/Drivers/USB/Core/AVR8/Template/Template_Endpoint_Control_W.c **** */
   8:../../../../tmk_core/protocol/lufa/LUFA-git/LUFA/Drivers/USB/Core/AVR8/Template/Template_Endpoint_Control_W.c **** 
   9:../../../../tmk_core/protocol/lufa/LUFA-git/LUFA/Drivers/USB/Core/AVR8/Template/Template_Endpoint_Control_W.c **** /*
  10:../../../../tmk_core/protocol/lufa/LUFA-git/LUFA/Drivers/USB/Core/AVR8/Template/Template_Endpoint_Control_W.c ****   Copyright 2014  Dean Camera (dean [at] fourwalledcubicle [dot] com)
  11:../../../../tmk_core/protocol/lufa/LUFA-git/LUFA/Drivers/USB/Core/AVR8/Template/Template_Endpoint_Control_W.c **** 
  12:../../../../tmk_core/protocol/lufa/LUFA-git/LUFA/Drivers/USB/Core/AVR8/Template/Template_Endpoint_Control_W.c ****   Permission to use, copy, modify, distribute, and sell this
  13:../../../../tmk_core/protocol/lufa/LUFA-git/LUFA/Drivers/USB/Core/AVR8/Template/Template_Endpoint_Control_W.c ****   software and its documentation for any purpose is hereby granted
  14:../../../../tmk_core/protocol/lufa/LUFA-git/LUFA/Drivers/USB/Core/AVR8/Template/Template_Endpoint_Control_W.c ****   without fee, provided that the above copyright notice appear in
  15:../../../../tmk_core/protocol/lufa/LUFA-git/LUFA/Drivers/USB/Core/AVR8/Template/Template_Endpoint_Control_W.c ****   all copies and that both that the copyright notice and this
  16:../../../../tmk_core/protocol/lufa/LUFA-git/LUFA/Drivers/USB/Core/AVR8/Template/Template_Endpoint_Control_W.c ****   permission notice and warranty disclaimer appear in supporting
  17:../../../../tmk_core/protocol/lufa/LUFA-git/LUFA/Drivers/USB/Core/AVR8/Template/Template_Endpoint_Control_W.c ****   documentation, and that the name of the author not be used in
  18:../../../../tmk_core/protocol/lufa/LUFA-git/LUFA/Drivers/USB/Core/AVR8/Template/Template_Endpoint_Control_W.c ****   advertising or publicity pertaining to distribution of the
  19:../../../../tmk_core/protocol/lufa/LUFA-git/LUFA/Drivers/USB/Core/AVR8/Template/Template_Endpoint_Control_W.c ****   software without specific, written prior permission.
  20:../../../../tmk_core/protocol/lufa/LUFA-git/LUFA/Drivers/USB/Core/AVR8/Template/Template_Endpoint_Control_W.c **** 
  21:../../../../tmk_core/protocol/lufa/LUFA-git/LUFA/Drivers/USB/Core/AVR8/Template/Template_Endpoint_Control_W.c ****   The author disclaims all warranties with regard to this
  22:../../../../tmk_core/protocol/lufa/LUFA-git/LUFA/Drivers/USB/Core/AVR8/Template/Template_Endpoint_Control_W.c ****   software, including all implied warranties of merchantability
  23:../../../../tmk_core/protocol/lufa/LUFA-git/LUFA/Drivers/USB/Core/AVR8/Template/Template_Endpoint_Control_W.c ****   and fitness.  In no event shall the author be liable for any
  24:../../../../tmk_core/protocol/lufa/LUFA-git/LUFA/Drivers/USB/Core/AVR8/Template/Template_Endpoint_Control_W.c ****   special, indirect or consequential damages or any damages
  25:../../../../tmk_core/protocol/lufa/LUFA-git/LUFA/Drivers/USB/Core/AVR8/Template/Template_Endpoint_Control_W.c ****   whatsoever resulting from loss of use, data or profits, whether
  26:../../../../tmk_core/protocol/lufa/LUFA-git/LUFA/Drivers/USB/Core/AVR8/Template/Template_Endpoint_Control_W.c ****   in an action of contract, negligence or other tortious action,
  27:../../../../tmk_core/protocol/lufa/LUFA-git/LUFA/Drivers/USB/Core/AVR8/Template/Template_Endpoint_Control_W.c ****   arising out of or in connection with the use or performance of
  28:../../../../tmk_core/protocol/lufa/LUFA-git/LUFA/Drivers/USB/Core/AVR8/Template/Template_Endpoint_Control_W.c ****   this software.
  29:../../../../tmk_core/protocol/lufa/LUFA-git/LUFA/Drivers/USB/Core/AVR8/Template/Template_Endpoint_Control_W.c **** */
  30:../../../../tmk_core/protocol/lufa/LUFA-git/LUFA/Drivers/USB/Core/AVR8/Template/Template_Endpoint_Control_W.c **** 
  31:../../../../tmk_core/protocol/lufa/LUFA-git/LUFA/Drivers/USB/Core/AVR8/Template/Template_Endpoint_Control_W.c **** #if defined(TEMPLATE_FUNC_NAME)
  32:../../../../tmk_core/protocol/lufa/LUFA-git/LUFA/Drivers/USB/Core/AVR8/Template/Template_Endpoint_Control_W.c **** 
  33:../../../../tmk_core/protocol/lufa/LUFA-git/LUFA/Drivers/USB/Core/AVR8/Template/Template_Endpoint_Control_W.c **** uint8_t TEMPLATE_FUNC_NAME (const void* const Buffer,
  34:../../../../tmk_core/protocol/lufa/LUFA-git/LUFA/Drivers/USB/Core/AVR8/Template/Template_Endpoint_Control_W.c ****                             uint16_t Length)
  35:../../../../tmk_core/protocol/lufa/LUFA-git/LUFA/Drivers/USB/Core/AVR8/Template/Template_Endpoint_Control_W.c **** {
 2157               		.loc 4 35 0
 2158               		.cfi_startproc
 2159               	.LVL216:
 2160               	/* prologue: function */
 2161               	/* frame size = 0 */
 2162               	/* stack size = 0 */
 2163               	.L__stack_usage = 0
  36:../../../../tmk_core/protocol/lufa/LUFA-git/LUFA/Drivers/USB/Core/AVR8/Template/Template_Endpoint_Control_W.c **** 	uint8_t* DataStream     = ((uint8_t*)Buffer + TEMPLATE_BUFFER_OFFSET(Length));
  37:../../../../tmk_core/protocol/lufa/LUFA-git/LUFA/Drivers/USB/Core/AVR8/Template/Template_Endpoint_Control_W.c **** 	bool     LastPacketFull = false;
  38:../../../../tmk_core/protocol/lufa/LUFA-git/LUFA/Drivers/USB/Core/AVR8/Template/Template_Endpoint_Control_W.c **** 
  39:../../../../tmk_core/protocol/lufa/LUFA-git/LUFA/Drivers/USB/Core/AVR8/Template/Template_Endpoint_Control_W.c **** 	if (Length > USB_ControlRequest.wLength)
 2164               		.loc 4 39 0
 2165 0000 2091 0000 		lds r18,USB_ControlRequest+6
 2166 0004 3091 0000 		lds r19,USB_ControlRequest+6+1
 2167 0008 2617      		cp r18,r22
 2168 000a 3707      		cpc r19,r23
 2169 000c 00F0      		brlo .L159
  40:../../../../tmk_core/protocol/lufa/LUFA-git/LUFA/Drivers/USB/Core/AVR8/Template/Template_Endpoint_Control_W.c **** 	  Length = USB_ControlRequest.wLength;
  41:../../../../tmk_core/protocol/lufa/LUFA-git/LUFA/Drivers/USB/Core/AVR8/Template/Template_Endpoint_Control_W.c **** 	else if (!(Length))
 2170               		.loc 4 41 0
 2171 000e 6115      		cp r22,__zero_reg__
 2172 0010 7105      		cpc r23,__zero_reg__
 2173 0012 01F4      		brne .L148
 2174               	.LBB342:
 2175               	.LBB343:
 456:../../../../tmk_core/protocol/lufa/LUFA-git/LUFA/Drivers/USB/Core/AVR8/../AVR8/../AVR8/Endpoint_AVR8.h **** 					UEINTX &= ~((1 << TXINI) | (1 << FIFOCON));
 2176               		.loc 2 456 0
 2177 0014 2091 E800 		lds r18,232
 2178 0018 2E77      		andi r18,lo8(126)
 2179 001a 2093 E800 		sts 232,r18
 2180 001e 00C0      		rjmp .L148
 2181               	.L159:
 2182               	.LBE343:
 2183               	.LBE342:
  39:../../../../tmk_core/protocol/lufa/LUFA-git/LUFA/Drivers/USB/Core/AVR8/Template/Template_Endpoint_Control_W.c **** 	if (Length > USB_ControlRequest.wLength)
 2184               		.loc 4 39 0
 2185 0020 B901      		movw r22,r18
 2186               	.LVL217:
 2187               	.L148:
  39:../../../../tmk_core/protocol/lufa/LUFA-git/LUFA/Drivers/USB/Core/AVR8/Template/Template_Endpoint_Control_W.c **** 	if (Length > USB_ControlRequest.wLength)
 2188               		.loc 4 39 0 is_stmt 0 discriminator 1
 2189 0022 FC01      		movw r30,r24
 2190 0024 20E0      		ldi r18,0
 2191 0026 00C0      		rjmp .L178
 2192               	.LVL218:
 2193               	.L157:
 2194               	.LBB344:
  42:../../../../tmk_core/protocol/lufa/LUFA-git/LUFA/Drivers/USB/Core/AVR8/Template/Template_Endpoint_Control_W.c **** 	  Endpoint_ClearIN();
  43:../../../../tmk_core/protocol/lufa/LUFA-git/LUFA/Drivers/USB/Core/AVR8/Template/Template_Endpoint_Control_W.c **** 
  44:../../../../tmk_core/protocol/lufa/LUFA-git/LUFA/Drivers/USB/Core/AVR8/Template/Template_Endpoint_Control_W.c **** 	while (Length || LastPacketFull)
  45:../../../../tmk_core/protocol/lufa/LUFA-git/LUFA/Drivers/USB/Core/AVR8/Template/Template_Endpoint_Control_W.c **** 	{
  46:../../../../tmk_core/protocol/lufa/LUFA-git/LUFA/Drivers/USB/Core/AVR8/Template/Template_Endpoint_Control_W.c **** 		uint8_t USB_DeviceState_LCL = USB_DeviceState;
 2195               		.loc 4 46 0 is_stmt 1
 2196 0028 8091 0000 		lds r24,USB_DeviceState
 2197               	.LVL219:
  47:../../../../tmk_core/protocol/lufa/LUFA-git/LUFA/Drivers/USB/Core/AVR8/Template/Template_Endpoint_Control_W.c **** 
  48:../../../../tmk_core/protocol/lufa/LUFA-git/LUFA/Drivers/USB/Core/AVR8/Template/Template_Endpoint_Control_W.c **** 		if (USB_DeviceState_LCL == DEVICE_STATE_Unattached)
 2198               		.loc 4 48 0
 2199 002c 8823      		tst r24
 2200 002e 01F0      		breq .L163
  49:../../../../tmk_core/protocol/lufa/LUFA-git/LUFA/Drivers/USB/Core/AVR8/Template/Template_Endpoint_Control_W.c **** 		  return ENDPOINT_RWCSTREAM_DeviceDisconnected;
  50:../../../../tmk_core/protocol/lufa/LUFA-git/LUFA/Drivers/USB/Core/AVR8/Template/Template_Endpoint_Control_W.c **** 		else if (USB_DeviceState_LCL == DEVICE_STATE_Suspended)
 2201               		.loc 4 50 0
 2202 0030 8530      		cpi r24,lo8(5)
 2203 0032 01F0      		breq .L164
 2204               	.LBB345:
 2205               	.LBB346:
 431:../../../../tmk_core/protocol/lufa/LUFA-git/LUFA/Drivers/USB/Core/AVR8/../AVR8/../AVR8/Endpoint_AVR8.h **** 				return ((UEINTX & (1 << RXSTPI)) ? true : false);
 2206               		.loc 2 431 0
 2207 0034 8091 E800 		lds r24,232
 2208               	.LVL220:
 2209               	.LBE346:
 2210               	.LBE345:
  51:../../../../tmk_core/protocol/lufa/LUFA-git/LUFA/Drivers/USB/Core/AVR8/Template/Template_Endpoint_Control_W.c **** 		  return ENDPOINT_RWCSTREAM_BusSuspended;
  52:../../../../tmk_core/protocol/lufa/LUFA-git/LUFA/Drivers/USB/Core/AVR8/Template/Template_Endpoint_Control_W.c **** 		else if (Endpoint_IsSETUPReceived())
 2211               		.loc 4 52 0
 2212 0038 83FD      		sbrc r24,3
 2213 003a 00C0      		rjmp .L165
 2214               	.LBB347:
 2215               	.LBB348:
 419:../../../../tmk_core/protocol/lufa/LUFA-git/LUFA/Drivers/USB/Core/AVR8/../AVR8/../AVR8/Endpoint_AVR8.h **** 				return ((UEINTX & (1 << RXOUTI)) ? true : false);
 2216               		.loc 2 419 0
 2217 003c 8091 E800 		lds r24,232
 2218               	.LBE348:
 2219               	.LBE347:
  53:../../../../tmk_core/protocol/lufa/LUFA-git/LUFA/Drivers/USB/Core/AVR8/Template/Template_Endpoint_Control_W.c **** 		  return ENDPOINT_RWCSTREAM_HostAborted;
  54:../../../../tmk_core/protocol/lufa/LUFA-git/LUFA/Drivers/USB/Core/AVR8/Template/Template_Endpoint_Control_W.c **** 		else if (Endpoint_IsOUTReceived())
 2220               		.loc 4 54 0
 2221 0040 82FD      		sbrc r24,2
 2222 0042 00C0      		rjmp .L173
 2223               	.LBB349:
 2224               	.LBB350:
 407:../../../../tmk_core/protocol/lufa/LUFA-git/LUFA/Drivers/USB/Core/AVR8/../AVR8/../AVR8/Endpoint_AVR8.h **** 				return ((UEINTX & (1 << TXINI)) ? true : false);
 2225               		.loc 2 407 0
 2226 0044 8091 E800 		lds r24,232
 2227               	.LBE350:
 2228               	.LBE349:
  55:../../../../tmk_core/protocol/lufa/LUFA-git/LUFA/Drivers/USB/Core/AVR8/Template/Template_Endpoint_Control_W.c **** 		  break;
  56:../../../../tmk_core/protocol/lufa/LUFA-git/LUFA/Drivers/USB/Core/AVR8/Template/Template_Endpoint_Control_W.c **** 
  57:../../../../tmk_core/protocol/lufa/LUFA-git/LUFA/Drivers/USB/Core/AVR8/Template/Template_Endpoint_Control_W.c **** 		if (Endpoint_IsINReady())
 2229               		.loc 4 57 0
 2230 0048 80FF      		sbrs r24,0
 2231 004a 00C0      		rjmp .L178
 2232               	.LBB351:
 2233               	.LBB352:
 2234               	.LBB353:
 225:../../../../tmk_core/protocol/lufa/LUFA-git/LUFA/Drivers/USB/Core/AVR8/../AVR8/../AVR8/Endpoint_AVR8.h **** 					return UEBCX;
 2235               		.loc 2 225 0
 2236 004c 8091 F200 		lds r24,242
 2237 0050 9091 F300 		lds r25,242+1
 2238               	.LBE353:
 2239               	.LBE352:
  58:../../../../tmk_core/protocol/lufa/LUFA-git/LUFA/Drivers/USB/Core/AVR8/Template/Template_Endpoint_Control_W.c **** 		{
  59:../../../../tmk_core/protocol/lufa/LUFA-git/LUFA/Drivers/USB/Core/AVR8/Template/Template_Endpoint_Control_W.c **** 			uint16_t BytesInEndpoint = Endpoint_BytesInEndpoint();
  60:../../../../tmk_core/protocol/lufa/LUFA-git/LUFA/Drivers/USB/Core/AVR8/Template/Template_Endpoint_Control_W.c **** 
  61:../../../../tmk_core/protocol/lufa/LUFA-git/LUFA/Drivers/USB/Core/AVR8/Template/Template_Endpoint_Control_W.c **** 			while (Length && (BytesInEndpoint < USB_Device_ControlEndpointSize))
 2240               		.loc 4 61 0
 2241 0054 00C0      		rjmp .L153
 2242               	.LVL221:
 2243               	.L155:
  62:../../../../tmk_core/protocol/lufa/LUFA-git/LUFA/Drivers/USB/Core/AVR8/Template/Template_Endpoint_Control_W.c **** 			{
  63:../../../../tmk_core/protocol/lufa/LUFA-git/LUFA/Drivers/USB/Core/AVR8/Template/Template_Endpoint_Control_W.c **** 				TEMPLATE_TRANSFER_BYTE(DataStream);
 2244               		.loc 4 63 0
 2245 0056 2191      		ld r18,Z+
 2246               	.LVL222:
 2247               	.LBB354:
 2248               	.LBB355:
 554:../../../../tmk_core/protocol/lufa/LUFA-git/LUFA/Drivers/USB/Core/AVR8/../AVR8/../AVR8/Endpoint_AVR8.h **** 				UEDATX = Data;
 2249               		.loc 2 554 0
 2250 0058 2093 F100 		sts 241,r18
 2251               	.LVL223:
 2252               	.LBE355:
 2253               	.LBE354:
  64:../../../../tmk_core/protocol/lufa/LUFA-git/LUFA/Drivers/USB/Core/AVR8/Template/Template_Endpoint_Control_W.c **** 				TEMPLATE_BUFFER_MOVE(DataStream, 1);
  65:../../../../tmk_core/protocol/lufa/LUFA-git/LUFA/Drivers/USB/Core/AVR8/Template/Template_Endpoint_Control_W.c **** 				Length--;
 2254               		.loc 4 65 0
 2255 005c 6150      		subi r22,1
 2256 005e 7109      		sbc r23,__zero_reg__
 2257               	.LVL224:
  66:../../../../tmk_core/protocol/lufa/LUFA-git/LUFA/Drivers/USB/Core/AVR8/Template/Template_Endpoint_Control_W.c **** 				BytesInEndpoint++;
 2258               		.loc 4 66 0
 2259 0060 0196      		adiw r24,1
 2260               	.LVL225:
 2261               	.L153:
  61:../../../../tmk_core/protocol/lufa/LUFA-git/LUFA/Drivers/USB/Core/AVR8/Template/Template_Endpoint_Control_W.c **** 			while (Length && (BytesInEndpoint < USB_Device_ControlEndpointSize))
 2262               		.loc 4 61 0 discriminator 1
 2263 0062 6115      		cp r22,__zero_reg__
 2264 0064 7105      		cpc r23,__zero_reg__
 2265 0066 01F0      		breq .L154
  61:../../../../tmk_core/protocol/lufa/LUFA-git/LUFA/Drivers/USB/Core/AVR8/Template/Template_Endpoint_Control_W.c **** 			while (Length && (BytesInEndpoint < USB_Device_ControlEndpointSize))
 2266               		.loc 4 61 0 is_stmt 0 discriminator 2
 2267 0068 8830      		cpi r24,8
 2268 006a 9105      		cpc r25,__zero_reg__
 2269 006c 00F0      		brlo .L155
 2270               	.L154:
  67:../../../../tmk_core/protocol/lufa/LUFA-git/LUFA/Drivers/USB/Core/AVR8/Template/Template_Endpoint_Control_W.c **** 			}
  68:../../../../tmk_core/protocol/lufa/LUFA-git/LUFA/Drivers/USB/Core/AVR8/Template/Template_Endpoint_Control_W.c **** 
  69:../../../../tmk_core/protocol/lufa/LUFA-git/LUFA/Drivers/USB/Core/AVR8/Template/Template_Endpoint_Control_W.c **** 			LastPacketFull = (BytesInEndpoint == USB_Device_ControlEndpointSize);
 2271               		.loc 4 69 0 is_stmt 1
 2272 006e 21E0      		ldi r18,lo8(1)
 2273 0070 0897      		sbiw r24,8
 2274 0072 01F0      		breq .L156
 2275 0074 20E0      		ldi r18,0
 2276               	.L156:
 2277               	.LVL226:
 2278               	.LBB356:
 2279               	.LBB357:
 456:../../../../tmk_core/protocol/lufa/LUFA-git/LUFA/Drivers/USB/Core/AVR8/../AVR8/../AVR8/Endpoint_AVR8.h **** 					UEINTX &= ~((1 << TXINI) | (1 << FIFOCON));
 2280               		.loc 2 456 0
 2281 0076 8091 E800 		lds r24,232
 2282               	.LVL227:
 2283 007a 8E77      		andi r24,lo8(126)
 2284 007c 8093 E800 		sts 232,r24
 2285               	.LVL228:
 2286               	.L178:
 2287               	.LBE357:
 2288               	.LBE356:
 2289               	.LBE351:
 2290               	.LBE344:
  44:../../../../tmk_core/protocol/lufa/LUFA-git/LUFA/Drivers/USB/Core/AVR8/Template/Template_Endpoint_Control_W.c **** 	while (Length || LastPacketFull)
 2291               		.loc 4 44 0 discriminator 1
 2292 0080 6115      		cp r22,__zero_reg__
 2293 0082 7105      		cpc r23,__zero_reg__
 2294 0084 01F4      		brne .L157
  44:../../../../tmk_core/protocol/lufa/LUFA-git/LUFA/Drivers/USB/Core/AVR8/Template/Template_Endpoint_Control_W.c **** 	while (Length || LastPacketFull)
 2295               		.loc 4 44 0 is_stmt 0 discriminator 2
 2296 0086 2111      		cpse r18,__zero_reg__
 2297 0088 00C0      		rjmp .L157
 2298 008a 00C0      		rjmp .L173
 2299               	.L158:
 2300               	.LBB358:
  70:../../../../tmk_core/protocol/lufa/LUFA-git/LUFA/Drivers/USB/Core/AVR8/Template/Template_Endpoint_Control_W.c **** 			Endpoint_ClearIN();
  71:../../../../tmk_core/protocol/lufa/LUFA-git/LUFA/Drivers/USB/Core/AVR8/Template/Template_Endpoint_Control_W.c **** 		}
  72:../../../../tmk_core/protocol/lufa/LUFA-git/LUFA/Drivers/USB/Core/AVR8/Template/Template_Endpoint_Control_W.c **** 	}
  73:../../../../tmk_core/protocol/lufa/LUFA-git/LUFA/Drivers/USB/Core/AVR8/Template/Template_Endpoint_Control_W.c **** 
  74:../../../../tmk_core/protocol/lufa/LUFA-git/LUFA/Drivers/USB/Core/AVR8/Template/Template_Endpoint_Control_W.c **** 	while (!(Endpoint_IsOUTReceived()))
  75:../../../../tmk_core/protocol/lufa/LUFA-git/LUFA/Drivers/USB/Core/AVR8/Template/Template_Endpoint_Control_W.c **** 	{
  76:../../../../tmk_core/protocol/lufa/LUFA-git/LUFA/Drivers/USB/Core/AVR8/Template/Template_Endpoint_Control_W.c **** 		uint8_t USB_DeviceState_LCL = USB_DeviceState;
 2301               		.loc 4 76 0 is_stmt 1
 2302 008c 8091 0000 		lds r24,USB_DeviceState
 2303               	.LVL229:
  77:../../../../tmk_core/protocol/lufa/LUFA-git/LUFA/Drivers/USB/Core/AVR8/Template/Template_Endpoint_Control_W.c **** 
  78:../../../../tmk_core/protocol/lufa/LUFA-git/LUFA/Drivers/USB/Core/AVR8/Template/Template_Endpoint_Control_W.c **** 		if (USB_DeviceState_LCL == DEVICE_STATE_Unattached)
 2304               		.loc 4 78 0
 2305 0090 8823      		tst r24
 2306 0092 01F0      		breq .L163
  79:../../../../tmk_core/protocol/lufa/LUFA-git/LUFA/Drivers/USB/Core/AVR8/Template/Template_Endpoint_Control_W.c **** 		  return ENDPOINT_RWCSTREAM_DeviceDisconnected;
  80:../../../../tmk_core/protocol/lufa/LUFA-git/LUFA/Drivers/USB/Core/AVR8/Template/Template_Endpoint_Control_W.c **** 		else if (USB_DeviceState_LCL == DEVICE_STATE_Suspended)
 2307               		.loc 4 80 0
 2308 0094 8530      		cpi r24,lo8(5)
 2309 0096 01F0      		breq .L164
 2310               	.LBB359:
 2311               	.LBB360:
 431:../../../../tmk_core/protocol/lufa/LUFA-git/LUFA/Drivers/USB/Core/AVR8/../AVR8/../AVR8/Endpoint_AVR8.h **** 				return ((UEINTX & (1 << RXSTPI)) ? true : false);
 2312               		.loc 2 431 0
 2313 0098 8091 E800 		lds r24,232
 2314               	.LVL230:
 2315               	.LBE360:
 2316               	.LBE359:
  81:../../../../tmk_core/protocol/lufa/LUFA-git/LUFA/Drivers/USB/Core/AVR8/Template/Template_Endpoint_Control_W.c **** 		  return ENDPOINT_RWCSTREAM_BusSuspended;
  82:../../../../tmk_core/protocol/lufa/LUFA-git/LUFA/Drivers/USB/Core/AVR8/Template/Template_Endpoint_Control_W.c **** 		else if (Endpoint_IsSETUPReceived())
 2317               		.loc 4 82 0
 2318 009c 83FD      		sbrc r24,3
 2319 009e 00C0      		rjmp .L165
 2320               	.L173:
 2321               	.LBE358:
 2322               	.LBB361:
 2323               	.LBB362:
 419:../../../../tmk_core/protocol/lufa/LUFA-git/LUFA/Drivers/USB/Core/AVR8/../AVR8/../AVR8/Endpoint_AVR8.h **** 				return ((UEINTX & (1 << RXOUTI)) ? true : false);
 2324               		.loc 2 419 0 discriminator 1
 2325 00a0 8091 E800 		lds r24,232
 2326               	.LBE362:
 2327               	.LBE361:
  74:../../../../tmk_core/protocol/lufa/LUFA-git/LUFA/Drivers/USB/Core/AVR8/Template/Template_Endpoint_Control_W.c **** 	while (!(Endpoint_IsOUTReceived()))
 2328               		.loc 4 74 0 discriminator 1
 2329 00a4 82FF      		sbrs r24,2
 2330 00a6 00C0      		rjmp .L158
  83:../../../../tmk_core/protocol/lufa/LUFA-git/LUFA/Drivers/USB/Core/AVR8/Template/Template_Endpoint_Control_W.c **** 		  return ENDPOINT_RWCSTREAM_HostAborted;
  84:../../../../tmk_core/protocol/lufa/LUFA-git/LUFA/Drivers/USB/Core/AVR8/Template/Template_Endpoint_Control_W.c **** 	}
  85:../../../../tmk_core/protocol/lufa/LUFA-git/LUFA/Drivers/USB/Core/AVR8/Template/Template_Endpoint_Control_W.c **** 
  86:../../../../tmk_core/protocol/lufa/LUFA-git/LUFA/Drivers/USB/Core/AVR8/Template/Template_Endpoint_Control_W.c **** 	return ENDPOINT_RWCSTREAM_NoError;
 2331               		.loc 4 86 0
 2332 00a8 80E0      		ldi r24,0
 2333 00aa 0895      		ret
 2334               	.L163:
 2335               	.LBB363:
  49:../../../../tmk_core/protocol/lufa/LUFA-git/LUFA/Drivers/USB/Core/AVR8/Template/Template_Endpoint_Control_W.c **** 		  return ENDPOINT_RWCSTREAM_DeviceDisconnected;
 2336               		.loc 4 49 0
 2337 00ac 82E0      		ldi r24,lo8(2)
 2338 00ae 0895      		ret
 2339               	.L164:
  51:../../../../tmk_core/protocol/lufa/LUFA-git/LUFA/Drivers/USB/Core/AVR8/Template/Template_Endpoint_Control_W.c **** 		  return ENDPOINT_RWCSTREAM_BusSuspended;
 2340               		.loc 4 51 0
 2341 00b0 83E0      		ldi r24,lo8(3)
 2342 00b2 0895      		ret
 2343               	.L165:
  53:../../../../tmk_core/protocol/lufa/LUFA-git/LUFA/Drivers/USB/Core/AVR8/Template/Template_Endpoint_Control_W.c **** 		  return ENDPOINT_RWCSTREAM_HostAborted;
 2344               		.loc 4 53 0
 2345 00b4 81E0      		ldi r24,lo8(1)
 2346               	.LBE363:
  87:../../../../tmk_core/protocol/lufa/LUFA-git/LUFA/Drivers/USB/Core/AVR8/Template/Template_Endpoint_Control_W.c **** }
 2347               		.loc 4 87 0
 2348 00b6 0895      		ret
 2349               		.cfi_endproc
 2350               	.LFE97:
 2352               		.section	.text.Endpoint_Write_Control_Stream_BE,"ax",@progbits
 2353               	.global	Endpoint_Write_Control_Stream_BE
 2355               	Endpoint_Write_Control_Stream_BE:
 2356               	.LFB98:
  35:../../../../tmk_core/protocol/lufa/LUFA-git/LUFA/Drivers/USB/Core/AVR8/Template/Template_Endpoint_Control_W.c **** {
 2357               		.loc 4 35 0
 2358               		.cfi_startproc
 2359               	.LVL231:
 2360               	/* prologue: function */
 2361               	/* frame size = 0 */
 2362               	/* stack size = 0 */
 2363               	.L__stack_usage = 0
  36:../../../../tmk_core/protocol/lufa/LUFA-git/LUFA/Drivers/USB/Core/AVR8/Template/Template_Endpoint_Control_W.c **** 	uint8_t* DataStream     = ((uint8_t*)Buffer + TEMPLATE_BUFFER_OFFSET(Length));
 2364               		.loc 4 36 0
 2365 0000 FB01      		movw r30,r22
 2366 0002 3197      		sbiw r30,1
 2367 0004 E80F      		add r30,r24
 2368 0006 F91F      		adc r31,r25
 2369               	.LVL232:
  39:../../../../tmk_core/protocol/lufa/LUFA-git/LUFA/Drivers/USB/Core/AVR8/Template/Template_Endpoint_Control_W.c **** 	if (Length > USB_ControlRequest.wLength)
 2370               		.loc 4 39 0
 2371 0008 8091 0000 		lds r24,USB_ControlRequest+6
 2372 000c 9091 0000 		lds r25,USB_ControlRequest+6+1
 2373               	.LVL233:
 2374 0010 8617      		cp r24,r22
 2375 0012 9707      		cpc r25,r23
 2376 0014 00F0      		brlo .L191
  41:../../../../tmk_core/protocol/lufa/LUFA-git/LUFA/Drivers/USB/Core/AVR8/Template/Template_Endpoint_Control_W.c **** 	else if (!(Length))
 2377               		.loc 4 41 0
 2378 0016 6115      		cp r22,__zero_reg__
 2379 0018 7105      		cpc r23,__zero_reg__
 2380 001a 01F4      		brne .L180
 2381               	.LBB364:
 2382               	.LBB365:
 456:../../../../tmk_core/protocol/lufa/LUFA-git/LUFA/Drivers/USB/Core/AVR8/../AVR8/../AVR8/Endpoint_AVR8.h **** 					UEINTX &= ~((1 << TXINI) | (1 << FIFOCON));
 2383               		.loc 2 456 0
 2384 001c 8091 E800 		lds r24,232
 2385 0020 8E77      		andi r24,lo8(126)
 2386 0022 8093 E800 		sts 232,r24
 2387 0026 00C0      		rjmp .L180
 2388               	.L191:
 2389               	.LBE365:
 2390               	.LBE364:
  39:../../../../tmk_core/protocol/lufa/LUFA-git/LUFA/Drivers/USB/Core/AVR8/Template/Template_Endpoint_Control_W.c **** 	if (Length > USB_ControlRequest.wLength)
 2391               		.loc 4 39 0
 2392 0028 BC01      		movw r22,r24
 2393               	.LVL234:
 2394               	.L180:
  39:../../../../tmk_core/protocol/lufa/LUFA-git/LUFA/Drivers/USB/Core/AVR8/Template/Template_Endpoint_Control_W.c **** 	if (Length > USB_ControlRequest.wLength)
 2395               		.loc 4 39 0 is_stmt 0 discriminator 1
 2396 002a 20E0      		ldi r18,0
 2397 002c 00C0      		rjmp .L210
 2398               	.LVL235:
 2399               	.L189:
 2400               	.LBB366:
  46:../../../../tmk_core/protocol/lufa/LUFA-git/LUFA/Drivers/USB/Core/AVR8/Template/Template_Endpoint_Control_W.c **** 		uint8_t USB_DeviceState_LCL = USB_DeviceState;
 2401               		.loc 4 46 0 is_stmt 1
 2402 002e 8091 0000 		lds r24,USB_DeviceState
 2403               	.LVL236:
  48:../../../../tmk_core/protocol/lufa/LUFA-git/LUFA/Drivers/USB/Core/AVR8/Template/Template_Endpoint_Control_W.c **** 		if (USB_DeviceState_LCL == DEVICE_STATE_Unattached)
 2404               		.loc 4 48 0
 2405 0032 8823      		tst r24
 2406 0034 01F4      		brne .+2
 2407 0036 00C0      		rjmp .L195
  50:../../../../tmk_core/protocol/lufa/LUFA-git/LUFA/Drivers/USB/Core/AVR8/Template/Template_Endpoint_Control_W.c **** 		else if (USB_DeviceState_LCL == DEVICE_STATE_Suspended)
 2408               		.loc 4 50 0
 2409 0038 8530      		cpi r24,lo8(5)
 2410 003a 01F4      		brne .+2
 2411 003c 00C0      		rjmp .L196
 2412               	.LBB367:
 2413               	.LBB368:
 431:../../../../tmk_core/protocol/lufa/LUFA-git/LUFA/Drivers/USB/Core/AVR8/../AVR8/../AVR8/Endpoint_AVR8.h **** 				return ((UEINTX & (1 << RXSTPI)) ? true : false);
 2414               		.loc 2 431 0
 2415 003e 8091 E800 		lds r24,232
 2416               	.LVL237:
 2417               	.LBE368:
 2418               	.LBE367:
  52:../../../../tmk_core/protocol/lufa/LUFA-git/LUFA/Drivers/USB/Core/AVR8/Template/Template_Endpoint_Control_W.c **** 		else if (Endpoint_IsSETUPReceived())
 2419               		.loc 4 52 0
 2420 0042 83FD      		sbrc r24,3
 2421 0044 00C0      		rjmp .L197
 2422               	.LBB369:
 2423               	.LBB370:
 419:../../../../tmk_core/protocol/lufa/LUFA-git/LUFA/Drivers/USB/Core/AVR8/../AVR8/../AVR8/Endpoint_AVR8.h **** 				return ((UEINTX & (1 << RXOUTI)) ? true : false);
 2424               		.loc 2 419 0
 2425 0046 8091 E800 		lds r24,232
 2426               	.LBE370:
 2427               	.LBE369:
  54:../../../../tmk_core/protocol/lufa/LUFA-git/LUFA/Drivers/USB/Core/AVR8/Template/Template_Endpoint_Control_W.c **** 		else if (Endpoint_IsOUTReceived())
 2428               		.loc 4 54 0
 2429 004a 82FD      		sbrc r24,2
 2430 004c 00C0      		rjmp .L205
 2431               	.LBB371:
 2432               	.LBB372:
 407:../../../../tmk_core/protocol/lufa/LUFA-git/LUFA/Drivers/USB/Core/AVR8/../AVR8/../AVR8/Endpoint_AVR8.h **** 				return ((UEINTX & (1 << TXINI)) ? true : false);
 2433               		.loc 2 407 0
 2434 004e 8091 E800 		lds r24,232
 2435               	.LBE372:
 2436               	.LBE371:
  57:../../../../tmk_core/protocol/lufa/LUFA-git/LUFA/Drivers/USB/Core/AVR8/Template/Template_Endpoint_Control_W.c **** 		if (Endpoint_IsINReady())
 2437               		.loc 4 57 0
 2438 0052 80FF      		sbrs r24,0
 2439 0054 00C0      		rjmp .L210
 2440               	.LBB373:
 2441               	.LBB374:
 2442               	.LBB375:
 225:../../../../tmk_core/protocol/lufa/LUFA-git/LUFA/Drivers/USB/Core/AVR8/../AVR8/../AVR8/Endpoint_AVR8.h **** 					return UEBCX;
 2443               		.loc 2 225 0
 2444 0056 8091 F200 		lds r24,242
 2445 005a 9091 F300 		lds r25,242+1
 2446               	.LBE375:
 2447               	.LBE374:
  61:../../../../tmk_core/protocol/lufa/LUFA-git/LUFA/Drivers/USB/Core/AVR8/Template/Template_Endpoint_Control_W.c **** 			while (Length && (BytesInEndpoint < USB_Device_ControlEndpointSize))
 2448               		.loc 4 61 0
 2449 005e 00C0      		rjmp .L185
 2450               	.LVL238:
 2451               	.L187:
  63:../../../../tmk_core/protocol/lufa/LUFA-git/LUFA/Drivers/USB/Core/AVR8/Template/Template_Endpoint_Control_W.c **** 				TEMPLATE_TRANSFER_BYTE(DataStream);
 2452               		.loc 4 63 0
 2453 0060 2081      		ld r18,Z
 2454               	.LVL239:
 2455               	.LBB376:
 2456               	.LBB377:
 554:../../../../tmk_core/protocol/lufa/LUFA-git/LUFA/Drivers/USB/Core/AVR8/../AVR8/../AVR8/Endpoint_AVR8.h **** 				UEDATX = Data;
 2457               		.loc 2 554 0
 2458 0062 2093 F100 		sts 241,r18
 2459               	.LBE377:
 2460               	.LBE376:
  64:../../../../tmk_core/protocol/lufa/LUFA-git/LUFA/Drivers/USB/Core/AVR8/Template/Template_Endpoint_Control_W.c **** 				TEMPLATE_BUFFER_MOVE(DataStream, 1);
 2461               		.loc 4 64 0
 2462 0066 3197      		sbiw r30,1
 2463               	.LVL240:
  65:../../../../tmk_core/protocol/lufa/LUFA-git/LUFA/Drivers/USB/Core/AVR8/Template/Template_Endpoint_Control_W.c **** 				Length--;
 2464               		.loc 4 65 0
 2465 0068 6150      		subi r22,1
 2466 006a 7109      		sbc r23,__zero_reg__
 2467               	.LVL241:
  66:../../../../tmk_core/protocol/lufa/LUFA-git/LUFA/Drivers/USB/Core/AVR8/Template/Template_Endpoint_Control_W.c **** 				BytesInEndpoint++;
 2468               		.loc 4 66 0
 2469 006c 0196      		adiw r24,1
 2470               	.LVL242:
 2471               	.L185:
  61:../../../../tmk_core/protocol/lufa/LUFA-git/LUFA/Drivers/USB/Core/AVR8/Template/Template_Endpoint_Control_W.c **** 			while (Length && (BytesInEndpoint < USB_Device_ControlEndpointSize))
 2472               		.loc 4 61 0 discriminator 1
 2473 006e 6115      		cp r22,__zero_reg__
 2474 0070 7105      		cpc r23,__zero_reg__
 2475 0072 01F0      		breq .L186
  61:../../../../tmk_core/protocol/lufa/LUFA-git/LUFA/Drivers/USB/Core/AVR8/Template/Template_Endpoint_Control_W.c **** 			while (Length && (BytesInEndpoint < USB_Device_ControlEndpointSize))
 2476               		.loc 4 61 0 is_stmt 0 discriminator 2
 2477 0074 8830      		cpi r24,8
 2478 0076 9105      		cpc r25,__zero_reg__
 2479 0078 00F0      		brlo .L187
 2480               	.L186:
  69:../../../../tmk_core/protocol/lufa/LUFA-git/LUFA/Drivers/USB/Core/AVR8/Template/Template_Endpoint_Control_W.c **** 			LastPacketFull = (BytesInEndpoint == USB_Device_ControlEndpointSize);
 2481               		.loc 4 69 0 is_stmt 1
 2482 007a 21E0      		ldi r18,lo8(1)
 2483 007c 0897      		sbiw r24,8
 2484 007e 01F0      		breq .L188
 2485 0080 20E0      		ldi r18,0
 2486               	.L188:
 2487               	.LVL243:
 2488               	.LBB378:
 2489               	.LBB379:
 456:../../../../tmk_core/protocol/lufa/LUFA-git/LUFA/Drivers/USB/Core/AVR8/../AVR8/../AVR8/Endpoint_AVR8.h **** 					UEINTX &= ~((1 << TXINI) | (1 << FIFOCON));
 2490               		.loc 2 456 0
 2491 0082 8091 E800 		lds r24,232
 2492               	.LVL244:
 2493 0086 8E77      		andi r24,lo8(126)
 2494 0088 8093 E800 		sts 232,r24
 2495               	.LVL245:
 2496               	.L210:
 2497               	.LBE379:
 2498               	.LBE378:
 2499               	.LBE373:
 2500               	.LBE366:
  44:../../../../tmk_core/protocol/lufa/LUFA-git/LUFA/Drivers/USB/Core/AVR8/Template/Template_Endpoint_Control_W.c **** 	while (Length || LastPacketFull)
 2501               		.loc 4 44 0 discriminator 1
 2502 008c 6115      		cp r22,__zero_reg__
 2503 008e 7105      		cpc r23,__zero_reg__
 2504 0090 01F4      		brne .L189
  44:../../../../tmk_core/protocol/lufa/LUFA-git/LUFA/Drivers/USB/Core/AVR8/Template/Template_Endpoint_Control_W.c **** 	while (Length || LastPacketFull)
 2505               		.loc 4 44 0 is_stmt 0 discriminator 2
 2506 0092 2111      		cpse r18,__zero_reg__
 2507 0094 00C0      		rjmp .L189
 2508 0096 00C0      		rjmp .L205
 2509               	.L190:
 2510               	.LBB380:
  76:../../../../tmk_core/protocol/lufa/LUFA-git/LUFA/Drivers/USB/Core/AVR8/Template/Template_Endpoint_Control_W.c **** 		uint8_t USB_DeviceState_LCL = USB_DeviceState;
 2511               		.loc 4 76 0 is_stmt 1
 2512 0098 8091 0000 		lds r24,USB_DeviceState
 2513               	.LVL246:
  78:../../../../tmk_core/protocol/lufa/LUFA-git/LUFA/Drivers/USB/Core/AVR8/Template/Template_Endpoint_Control_W.c **** 		if (USB_DeviceState_LCL == DEVICE_STATE_Unattached)
 2514               		.loc 4 78 0
 2515 009c 8823      		tst r24
 2516 009e 01F0      		breq .L195
  80:../../../../tmk_core/protocol/lufa/LUFA-git/LUFA/Drivers/USB/Core/AVR8/Template/Template_Endpoint_Control_W.c **** 		else if (USB_DeviceState_LCL == DEVICE_STATE_Suspended)
 2517               		.loc 4 80 0
 2518 00a0 8530      		cpi r24,lo8(5)
 2519 00a2 01F0      		breq .L196
 2520               	.LBB381:
 2521               	.LBB382:
 431:../../../../tmk_core/protocol/lufa/LUFA-git/LUFA/Drivers/USB/Core/AVR8/../AVR8/../AVR8/Endpoint_AVR8.h **** 				return ((UEINTX & (1 << RXSTPI)) ? true : false);
 2522               		.loc 2 431 0
 2523 00a4 8091 E800 		lds r24,232
 2524               	.LVL247:
 2525               	.LBE382:
 2526               	.LBE381:
  82:../../../../tmk_core/protocol/lufa/LUFA-git/LUFA/Drivers/USB/Core/AVR8/Template/Template_Endpoint_Control_W.c **** 		else if (Endpoint_IsSETUPReceived())
 2527               		.loc 4 82 0
 2528 00a8 83FD      		sbrc r24,3
 2529 00aa 00C0      		rjmp .L197
 2530               	.L205:
 2531               	.LBE380:
 2532               	.LBB383:
 2533               	.LBB384:
 419:../../../../tmk_core/protocol/lufa/LUFA-git/LUFA/Drivers/USB/Core/AVR8/../AVR8/../AVR8/Endpoint_AVR8.h **** 				return ((UEINTX & (1 << RXOUTI)) ? true : false);
 2534               		.loc 2 419 0 discriminator 1
 2535 00ac 8091 E800 		lds r24,232
 2536               	.LBE384:
 2537               	.LBE383:
  74:../../../../tmk_core/protocol/lufa/LUFA-git/LUFA/Drivers/USB/Core/AVR8/Template/Template_Endpoint_Control_W.c **** 	while (!(Endpoint_IsOUTReceived()))
 2538               		.loc 4 74 0 discriminator 1
 2539 00b0 82FF      		sbrs r24,2
 2540 00b2 00C0      		rjmp .L190
  86:../../../../tmk_core/protocol/lufa/LUFA-git/LUFA/Drivers/USB/Core/AVR8/Template/Template_Endpoint_Control_W.c **** 	return ENDPOINT_RWCSTREAM_NoError;
 2541               		.loc 4 86 0
 2542 00b4 80E0      		ldi r24,0
 2543 00b6 0895      		ret
 2544               	.L195:
 2545               	.LBB385:
  49:../../../../tmk_core/protocol/lufa/LUFA-git/LUFA/Drivers/USB/Core/AVR8/Template/Template_Endpoint_Control_W.c **** 		  return ENDPOINT_RWCSTREAM_DeviceDisconnected;
 2546               		.loc 4 49 0
 2547 00b8 82E0      		ldi r24,lo8(2)
 2548 00ba 0895      		ret
 2549               	.L196:
  51:../../../../tmk_core/protocol/lufa/LUFA-git/LUFA/Drivers/USB/Core/AVR8/Template/Template_Endpoint_Control_W.c **** 		  return ENDPOINT_RWCSTREAM_BusSuspended;
 2550               		.loc 4 51 0
 2551 00bc 83E0      		ldi r24,lo8(3)
 2552 00be 0895      		ret
 2553               	.L197:
  53:../../../../tmk_core/protocol/lufa/LUFA-git/LUFA/Drivers/USB/Core/AVR8/Template/Template_Endpoint_Control_W.c **** 		  return ENDPOINT_RWCSTREAM_HostAborted;
 2554               		.loc 4 53 0
 2555 00c0 81E0      		ldi r24,lo8(1)
 2556               	.LBE385:
 2557               		.loc 4 87 0
 2558 00c2 0895      		ret
 2559               		.cfi_endproc
 2560               	.LFE98:
 2562               		.section	.text.Endpoint_Read_Control_Stream_LE,"ax",@progbits
 2563               	.global	Endpoint_Read_Control_Stream_LE
 2565               	Endpoint_Read_Control_Stream_LE:
 2566               	.LFB99:
 2567               		.file 5 "../../../../tmk_core/protocol/lufa/LUFA-git/LUFA/Drivers/USB/Core/AVR8/Template/Template_
   1:../../../../tmk_core/protocol/lufa/LUFA-git/LUFA/Drivers/USB/Core/AVR8/Template/Template_Endpoint_Control_R.c **** /*
   2:../../../../tmk_core/protocol/lufa/LUFA-git/LUFA/Drivers/USB/Core/AVR8/Template/Template_Endpoint_Control_R.c ****              LUFA Library
   3:../../../../tmk_core/protocol/lufa/LUFA-git/LUFA/Drivers/USB/Core/AVR8/Template/Template_Endpoint_Control_R.c ****      Copyright (C) Dean Camera, 2014.
   4:../../../../tmk_core/protocol/lufa/LUFA-git/LUFA/Drivers/USB/Core/AVR8/Template/Template_Endpoint_Control_R.c **** 
   5:../../../../tmk_core/protocol/lufa/LUFA-git/LUFA/Drivers/USB/Core/AVR8/Template/Template_Endpoint_Control_R.c ****   dean [at] fourwalledcubicle [dot] com
   6:../../../../tmk_core/protocol/lufa/LUFA-git/LUFA/Drivers/USB/Core/AVR8/Template/Template_Endpoint_Control_R.c ****            www.lufa-lib.org
   7:../../../../tmk_core/protocol/lufa/LUFA-git/LUFA/Drivers/USB/Core/AVR8/Template/Template_Endpoint_Control_R.c **** */
   8:../../../../tmk_core/protocol/lufa/LUFA-git/LUFA/Drivers/USB/Core/AVR8/Template/Template_Endpoint_Control_R.c **** 
   9:../../../../tmk_core/protocol/lufa/LUFA-git/LUFA/Drivers/USB/Core/AVR8/Template/Template_Endpoint_Control_R.c **** /*
  10:../../../../tmk_core/protocol/lufa/LUFA-git/LUFA/Drivers/USB/Core/AVR8/Template/Template_Endpoint_Control_R.c ****   Copyright 2014  Dean Camera (dean [at] fourwalledcubicle [dot] com)
  11:../../../../tmk_core/protocol/lufa/LUFA-git/LUFA/Drivers/USB/Core/AVR8/Template/Template_Endpoint_Control_R.c **** 
  12:../../../../tmk_core/protocol/lufa/LUFA-git/LUFA/Drivers/USB/Core/AVR8/Template/Template_Endpoint_Control_R.c ****   Permission to use, copy, modify, distribute, and sell this
  13:../../../../tmk_core/protocol/lufa/LUFA-git/LUFA/Drivers/USB/Core/AVR8/Template/Template_Endpoint_Control_R.c ****   software and its documentation for any purpose is hereby granted
  14:../../../../tmk_core/protocol/lufa/LUFA-git/LUFA/Drivers/USB/Core/AVR8/Template/Template_Endpoint_Control_R.c ****   without fee, provided that the above copyright notice appear in
  15:../../../../tmk_core/protocol/lufa/LUFA-git/LUFA/Drivers/USB/Core/AVR8/Template/Template_Endpoint_Control_R.c ****   all copies and that both that the copyright notice and this
  16:../../../../tmk_core/protocol/lufa/LUFA-git/LUFA/Drivers/USB/Core/AVR8/Template/Template_Endpoint_Control_R.c ****   permission notice and warranty disclaimer appear in supporting
  17:../../../../tmk_core/protocol/lufa/LUFA-git/LUFA/Drivers/USB/Core/AVR8/Template/Template_Endpoint_Control_R.c ****   documentation, and that the name of the author not be used in
  18:../../../../tmk_core/protocol/lufa/LUFA-git/LUFA/Drivers/USB/Core/AVR8/Template/Template_Endpoint_Control_R.c ****   advertising or publicity pertaining to distribution of the
  19:../../../../tmk_core/protocol/lufa/LUFA-git/LUFA/Drivers/USB/Core/AVR8/Template/Template_Endpoint_Control_R.c ****   software without specific, written prior permission.
  20:../../../../tmk_core/protocol/lufa/LUFA-git/LUFA/Drivers/USB/Core/AVR8/Template/Template_Endpoint_Control_R.c **** 
  21:../../../../tmk_core/protocol/lufa/LUFA-git/LUFA/Drivers/USB/Core/AVR8/Template/Template_Endpoint_Control_R.c ****   The author disclaims all warranties with regard to this
  22:../../../../tmk_core/protocol/lufa/LUFA-git/LUFA/Drivers/USB/Core/AVR8/Template/Template_Endpoint_Control_R.c ****   software, including all implied warranties of merchantability
  23:../../../../tmk_core/protocol/lufa/LUFA-git/LUFA/Drivers/USB/Core/AVR8/Template/Template_Endpoint_Control_R.c ****   and fitness.  In no event shall the author be liable for any
  24:../../../../tmk_core/protocol/lufa/LUFA-git/LUFA/Drivers/USB/Core/AVR8/Template/Template_Endpoint_Control_R.c ****   special, indirect or consequential damages or any damages
  25:../../../../tmk_core/protocol/lufa/LUFA-git/LUFA/Drivers/USB/Core/AVR8/Template/Template_Endpoint_Control_R.c ****   whatsoever resulting from loss of use, data or profits, whether
  26:../../../../tmk_core/protocol/lufa/LUFA-git/LUFA/Drivers/USB/Core/AVR8/Template/Template_Endpoint_Control_R.c ****   in an action of contract, negligence or other tortious action,
  27:../../../../tmk_core/protocol/lufa/LUFA-git/LUFA/Drivers/USB/Core/AVR8/Template/Template_Endpoint_Control_R.c ****   arising out of or in connection with the use or performance of
  28:../../../../tmk_core/protocol/lufa/LUFA-git/LUFA/Drivers/USB/Core/AVR8/Template/Template_Endpoint_Control_R.c ****   this software.
  29:../../../../tmk_core/protocol/lufa/LUFA-git/LUFA/Drivers/USB/Core/AVR8/Template/Template_Endpoint_Control_R.c **** */
  30:../../../../tmk_core/protocol/lufa/LUFA-git/LUFA/Drivers/USB/Core/AVR8/Template/Template_Endpoint_Control_R.c **** 
  31:../../../../tmk_core/protocol/lufa/LUFA-git/LUFA/Drivers/USB/Core/AVR8/Template/Template_Endpoint_Control_R.c **** #if defined(TEMPLATE_FUNC_NAME)
  32:../../../../tmk_core/protocol/lufa/LUFA-git/LUFA/Drivers/USB/Core/AVR8/Template/Template_Endpoint_Control_R.c **** 
  33:../../../../tmk_core/protocol/lufa/LUFA-git/LUFA/Drivers/USB/Core/AVR8/Template/Template_Endpoint_Control_R.c **** uint8_t TEMPLATE_FUNC_NAME (void* const Buffer,
  34:../../../../tmk_core/protocol/lufa/LUFA-git/LUFA/Drivers/USB/Core/AVR8/Template/Template_Endpoint_Control_R.c ****                             uint16_t Length)
  35:../../../../tmk_core/protocol/lufa/LUFA-git/LUFA/Drivers/USB/Core/AVR8/Template/Template_Endpoint_Control_R.c **** {
 2568               		.loc 5 35 0
 2569               		.cfi_startproc
 2570               	.LVL248:
 2571               	/* prologue: function */
 2572               	/* frame size = 0 */
 2573               	/* stack size = 0 */
 2574               	.L__stack_usage = 0
  36:../../../../tmk_core/protocol/lufa/LUFA-git/LUFA/Drivers/USB/Core/AVR8/Template/Template_Endpoint_Control_R.c **** 	uint8_t* DataStream = ((uint8_t*)Buffer + TEMPLATE_BUFFER_OFFSET(Length));
  37:../../../../tmk_core/protocol/lufa/LUFA-git/LUFA/Drivers/USB/Core/AVR8/Template/Template_Endpoint_Control_R.c **** 
  38:../../../../tmk_core/protocol/lufa/LUFA-git/LUFA/Drivers/USB/Core/AVR8/Template/Template_Endpoint_Control_R.c **** 	if (!(Length))
 2575               		.loc 5 38 0
 2576 0000 6115      		cp r22,__zero_reg__
 2577 0002 7105      		cpc r23,__zero_reg__
 2578 0004 01F4      		brne .L212
 2579               	.LBB386:
 2580               	.LBB387:
 471:../../../../tmk_core/protocol/lufa/LUFA-git/LUFA/Drivers/USB/Core/AVR8/../AVR8/../AVR8/Endpoint_AVR8.h **** 					UEINTX &= ~((1 << RXOUTI) | (1 << FIFOCON));
 2581               		.loc 2 471 0
 2582 0006 2091 E800 		lds r18,232
 2583 000a 2B77      		andi r18,lo8(123)
 2584 000c 2093 E800 		sts 232,r18
 2585               	.L212:
 2586               	.LBE387:
 2587               	.LBE386:
  35:../../../../tmk_core/protocol/lufa/LUFA-git/LUFA/Drivers/USB/Core/AVR8/Template/Template_Endpoint_Control_R.c **** {
 2588               		.loc 5 35 0 discriminator 1
 2589 0010 9C01      		movw r18,r24
 2590 0012 00C0      		rjmp .L213
 2591               	.LVL249:
 2592               	.L230:
 2593               	.LBB388:
  39:../../../../tmk_core/protocol/lufa/LUFA-git/LUFA/Drivers/USB/Core/AVR8/Template/Template_Endpoint_Control_R.c **** 	  Endpoint_ClearOUT();
  40:../../../../tmk_core/protocol/lufa/LUFA-git/LUFA/Drivers/USB/Core/AVR8/Template/Template_Endpoint_Control_R.c **** 
  41:../../../../tmk_core/protocol/lufa/LUFA-git/LUFA/Drivers/USB/Core/AVR8/Template/Template_Endpoint_Control_R.c **** 	while (Length)
  42:../../../../tmk_core/protocol/lufa/LUFA-git/LUFA/Drivers/USB/Core/AVR8/Template/Template_Endpoint_Control_R.c **** 	{
  43:../../../../tmk_core/protocol/lufa/LUFA-git/LUFA/Drivers/USB/Core/AVR8/Template/Template_Endpoint_Control_R.c **** 		uint8_t USB_DeviceState_LCL = USB_DeviceState;
 2594               		.loc 5 43 0
 2595 0014 8091 0000 		lds r24,USB_DeviceState
 2596               	.LVL250:
  44:../../../../tmk_core/protocol/lufa/LUFA-git/LUFA/Drivers/USB/Core/AVR8/Template/Template_Endpoint_Control_R.c **** 
  45:../../../../tmk_core/protocol/lufa/LUFA-git/LUFA/Drivers/USB/Core/AVR8/Template/Template_Endpoint_Control_R.c **** 		if (USB_DeviceState_LCL == DEVICE_STATE_Unattached)
 2597               		.loc 5 45 0
 2598 0018 8823      		tst r24
 2599 001a 01F0      		breq .L224
  46:../../../../tmk_core/protocol/lufa/LUFA-git/LUFA/Drivers/USB/Core/AVR8/Template/Template_Endpoint_Control_R.c **** 		  return ENDPOINT_RWCSTREAM_DeviceDisconnected;
  47:../../../../tmk_core/protocol/lufa/LUFA-git/LUFA/Drivers/USB/Core/AVR8/Template/Template_Endpoint_Control_R.c **** 		else if (USB_DeviceState_LCL == DEVICE_STATE_Suspended)
 2600               		.loc 5 47 0
 2601 001c 8530      		cpi r24,lo8(5)
 2602 001e 01F0      		breq .L221
 2603               	.LBB389:
 2604               	.LBB390:
 431:../../../../tmk_core/protocol/lufa/LUFA-git/LUFA/Drivers/USB/Core/AVR8/../AVR8/../AVR8/Endpoint_AVR8.h **** 				return ((UEINTX & (1 << RXSTPI)) ? true : false);
 2605               		.loc 2 431 0
 2606 0020 8091 E800 		lds r24,232
 2607               	.LVL251:
 2608               	.LBE390:
 2609               	.LBE389:
  48:../../../../tmk_core/protocol/lufa/LUFA-git/LUFA/Drivers/USB/Core/AVR8/Template/Template_Endpoint_Control_R.c **** 		  return ENDPOINT_RWCSTREAM_BusSuspended;
  49:../../../../tmk_core/protocol/lufa/LUFA-git/LUFA/Drivers/USB/Core/AVR8/Template/Template_Endpoint_Control_R.c **** 		else if (Endpoint_IsSETUPReceived())
 2610               		.loc 5 49 0
 2611 0024 83FD      		sbrc r24,3
 2612 0026 00C0      		rjmp .L222
 2613               	.LBB391:
 2614               	.LBB392:
 419:../../../../tmk_core/protocol/lufa/LUFA-git/LUFA/Drivers/USB/Core/AVR8/../AVR8/../AVR8/Endpoint_AVR8.h **** 				return ((UEINTX & (1 << RXOUTI)) ? true : false);
 2615               		.loc 2 419 0
 2616 0028 8091 E800 		lds r24,232
 2617               	.LBE392:
 2618               	.LBE391:
  50:../../../../tmk_core/protocol/lufa/LUFA-git/LUFA/Drivers/USB/Core/AVR8/Template/Template_Endpoint_Control_R.c **** 		  return ENDPOINT_RWCSTREAM_HostAborted;
  51:../../../../tmk_core/protocol/lufa/LUFA-git/LUFA/Drivers/USB/Core/AVR8/Template/Template_Endpoint_Control_R.c **** 
  52:../../../../tmk_core/protocol/lufa/LUFA-git/LUFA/Drivers/USB/Core/AVR8/Template/Template_Endpoint_Control_R.c **** 		if (Endpoint_IsOUTReceived())
 2619               		.loc 5 52 0
 2620 002c 82FF      		sbrs r24,2
 2621 002e 00C0      		rjmp .L230
 2622 0030 F901      		movw r30,r18
 2623 0032 00C0      		rjmp .L216
 2624               	.LVL252:
 2625               	.L218:
 2626               	.LBB393:
 2627               	.LBB394:
 542:../../../../tmk_core/protocol/lufa/LUFA-git/LUFA/Drivers/USB/Core/AVR8/../AVR8/../AVR8/Endpoint_AVR8.h **** 				return UEDATX;
 2628               		.loc 2 542 0
 2629 0034 8091 F100 		lds r24,241
 2630               	.LBE394:
 2631               	.LBE393:
  53:../../../../tmk_core/protocol/lufa/LUFA-git/LUFA/Drivers/USB/Core/AVR8/Template/Template_Endpoint_Control_R.c **** 		{
  54:../../../../tmk_core/protocol/lufa/LUFA-git/LUFA/Drivers/USB/Core/AVR8/Template/Template_Endpoint_Control_R.c **** 			while (Length && Endpoint_BytesInEndpoint())
  55:../../../../tmk_core/protocol/lufa/LUFA-git/LUFA/Drivers/USB/Core/AVR8/Template/Template_Endpoint_Control_R.c **** 			{
  56:../../../../tmk_core/protocol/lufa/LUFA-git/LUFA/Drivers/USB/Core/AVR8/Template/Template_Endpoint_Control_R.c **** 				TEMPLATE_TRANSFER_BYTE(DataStream);
 2632               		.loc 5 56 0
 2633 0038 8193      		st Z+,r24
  57:../../../../tmk_core/protocol/lufa/LUFA-git/LUFA/Drivers/USB/Core/AVR8/Template/Template_Endpoint_Control_R.c **** 				TEMPLATE_BUFFER_MOVE(DataStream, 1);
 2634               		.loc 5 57 0
 2635 003a 9F01      		movw r18,r30
 2636               	.LVL253:
  58:../../../../tmk_core/protocol/lufa/LUFA-git/LUFA/Drivers/USB/Core/AVR8/Template/Template_Endpoint_Control_R.c **** 				Length--;
 2637               		.loc 5 58 0
 2638 003c 6150      		subi r22,1
 2639 003e 7109      		sbc r23,__zero_reg__
 2640               	.LVL254:
  54:../../../../tmk_core/protocol/lufa/LUFA-git/LUFA/Drivers/USB/Core/AVR8/Template/Template_Endpoint_Control_R.c **** 			while (Length && Endpoint_BytesInEndpoint())
 2641               		.loc 5 54 0
 2642 0040 01F0      		breq .L217
 2643               	.LVL255:
 2644               	.L216:
 2645 0042 9F01      		movw r18,r30
 2646               	.LBB395:
 2647               	.LBB396:
 225:../../../../tmk_core/protocol/lufa/LUFA-git/LUFA/Drivers/USB/Core/AVR8/../AVR8/../AVR8/Endpoint_AVR8.h **** 					return UEBCX;
 2648               		.loc 2 225 0
 2649 0044 8091 F200 		lds r24,242
 2650 0048 9091 F300 		lds r25,242+1
 2651               	.LBE396:
 2652               	.LBE395:
  54:../../../../tmk_core/protocol/lufa/LUFA-git/LUFA/Drivers/USB/Core/AVR8/Template/Template_Endpoint_Control_R.c **** 			while (Length && Endpoint_BytesInEndpoint())
 2653               		.loc 5 54 0
 2654 004c 892B      		or r24,r25
 2655 004e 01F4      		brne .L218
 2656               	.L217:
 2657               	.LBB397:
 2658               	.LBB398:
 471:../../../../tmk_core/protocol/lufa/LUFA-git/LUFA/Drivers/USB/Core/AVR8/../AVR8/../AVR8/Endpoint_AVR8.h **** 					UEINTX &= ~((1 << RXOUTI) | (1 << FIFOCON));
 2659               		.loc 2 471 0
 2660 0050 8091 E800 		lds r24,232
 2661 0054 8B77      		andi r24,lo8(123)
 2662 0056 8093 E800 		sts 232,r24
 2663               	.L213:
 2664               	.LVL256:
 2665               	.LBE398:
 2666               	.LBE397:
 2667               	.LBE388:
  41:../../../../tmk_core/protocol/lufa/LUFA-git/LUFA/Drivers/USB/Core/AVR8/Template/Template_Endpoint_Control_R.c **** 	while (Length)
 2668               		.loc 5 41 0 discriminator 1
 2669 005a 6115      		cp r22,__zero_reg__
 2670 005c 7105      		cpc r23,__zero_reg__
 2671 005e 01F4      		brne .L230
 2672               	.L229:
 2673               	.LBB399:
 2674               	.LBB400:
 407:../../../../tmk_core/protocol/lufa/LUFA-git/LUFA/Drivers/USB/Core/AVR8/../AVR8/../AVR8/Endpoint_AVR8.h **** 				return ((UEINTX & (1 << TXINI)) ? true : false);
 2675               		.loc 2 407 0
 2676 0060 8091 E800 		lds r24,232
 2677               	.LBE400:
 2678               	.LBE399:
  59:../../../../tmk_core/protocol/lufa/LUFA-git/LUFA/Drivers/USB/Core/AVR8/Template/Template_Endpoint_Control_R.c **** 			}
  60:../../../../tmk_core/protocol/lufa/LUFA-git/LUFA/Drivers/USB/Core/AVR8/Template/Template_Endpoint_Control_R.c **** 
  61:../../../../tmk_core/protocol/lufa/LUFA-git/LUFA/Drivers/USB/Core/AVR8/Template/Template_Endpoint_Control_R.c **** 			Endpoint_ClearOUT();
  62:../../../../tmk_core/protocol/lufa/LUFA-git/LUFA/Drivers/USB/Core/AVR8/Template/Template_Endpoint_Control_R.c **** 		}
  63:../../../../tmk_core/protocol/lufa/LUFA-git/LUFA/Drivers/USB/Core/AVR8/Template/Template_Endpoint_Control_R.c **** 	}
  64:../../../../tmk_core/protocol/lufa/LUFA-git/LUFA/Drivers/USB/Core/AVR8/Template/Template_Endpoint_Control_R.c **** 
  65:../../../../tmk_core/protocol/lufa/LUFA-git/LUFA/Drivers/USB/Core/AVR8/Template/Template_Endpoint_Control_R.c **** 	while (!(Endpoint_IsINReady()))
 2679               		.loc 5 65 0
 2680 0064 80FD      		sbrc r24,0
 2681 0066 00C0      		rjmp .L223
 2682               	.LBB401:
  66:../../../../tmk_core/protocol/lufa/LUFA-git/LUFA/Drivers/USB/Core/AVR8/Template/Template_Endpoint_Control_R.c **** 	{
  67:../../../../tmk_core/protocol/lufa/LUFA-git/LUFA/Drivers/USB/Core/AVR8/Template/Template_Endpoint_Control_R.c **** 		uint8_t USB_DeviceState_LCL = USB_DeviceState;
 2683               		.loc 5 67 0
 2684 0068 8091 0000 		lds r24,USB_DeviceState
 2685               	.LVL257:
  68:../../../../tmk_core/protocol/lufa/LUFA-git/LUFA/Drivers/USB/Core/AVR8/Template/Template_Endpoint_Control_R.c **** 
  69:../../../../tmk_core/protocol/lufa/LUFA-git/LUFA/Drivers/USB/Core/AVR8/Template/Template_Endpoint_Control_R.c **** 		if (USB_DeviceState_LCL == DEVICE_STATE_Unattached)
 2686               		.loc 5 69 0
 2687 006c 8823      		tst r24
 2688 006e 01F0      		breq .L224
  70:../../../../tmk_core/protocol/lufa/LUFA-git/LUFA/Drivers/USB/Core/AVR8/Template/Template_Endpoint_Control_R.c **** 		  return ENDPOINT_RWCSTREAM_DeviceDisconnected;
  71:../../../../tmk_core/protocol/lufa/LUFA-git/LUFA/Drivers/USB/Core/AVR8/Template/Template_Endpoint_Control_R.c **** 		else if (USB_DeviceState_LCL == DEVICE_STATE_Suspended)
 2689               		.loc 5 71 0
 2690 0070 8530      		cpi r24,lo8(5)
 2691 0072 01F4      		brne .L229
 2692               	.LVL258:
 2693               	.L221:
 2694               	.LBE401:
 2695               	.LBB402:
  48:../../../../tmk_core/protocol/lufa/LUFA-git/LUFA/Drivers/USB/Core/AVR8/Template/Template_Endpoint_Control_R.c **** 		  return ENDPOINT_RWCSTREAM_BusSuspended;
 2696               		.loc 5 48 0
 2697 0074 83E0      		ldi r24,lo8(3)
 2698 0076 0895      		ret
 2699               	.L222:
  50:../../../../tmk_core/protocol/lufa/LUFA-git/LUFA/Drivers/USB/Core/AVR8/Template/Template_Endpoint_Control_R.c **** 		  return ENDPOINT_RWCSTREAM_HostAborted;
 2700               		.loc 5 50 0
 2701 0078 81E0      		ldi r24,lo8(1)
 2702 007a 0895      		ret
 2703               	.L223:
 2704               	.LBE402:
  72:../../../../tmk_core/protocol/lufa/LUFA-git/LUFA/Drivers/USB/Core/AVR8/Template/Template_Endpoint_Control_R.c **** 		  return ENDPOINT_RWCSTREAM_BusSuspended;
  73:../../../../tmk_core/protocol/lufa/LUFA-git/LUFA/Drivers/USB/Core/AVR8/Template/Template_Endpoint_Control_R.c **** 	}
  74:../../../../tmk_core/protocol/lufa/LUFA-git/LUFA/Drivers/USB/Core/AVR8/Template/Template_Endpoint_Control_R.c **** 
  75:../../../../tmk_core/protocol/lufa/LUFA-git/LUFA/Drivers/USB/Core/AVR8/Template/Template_Endpoint_Control_R.c **** 	return ENDPOINT_RWCSTREAM_NoError;
 2705               		.loc 5 75 0
 2706 007c 80E0      		ldi r24,0
 2707 007e 0895      		ret
 2708               	.L224:
 2709               	.LBB403:
  46:../../../../tmk_core/protocol/lufa/LUFA-git/LUFA/Drivers/USB/Core/AVR8/Template/Template_Endpoint_Control_R.c **** 		  return ENDPOINT_RWCSTREAM_DeviceDisconnected;
 2710               		.loc 5 46 0
 2711 0080 82E0      		ldi r24,lo8(2)
 2712               	.LBE403:
  76:../../../../tmk_core/protocol/lufa/LUFA-git/LUFA/Drivers/USB/Core/AVR8/Template/Template_Endpoint_Control_R.c **** }
 2713               		.loc 5 76 0
 2714 0082 0895      		ret
 2715               		.cfi_endproc
 2716               	.LFE99:
 2718               		.section	.text.Endpoint_Read_Control_Stream_BE,"ax",@progbits
 2719               	.global	Endpoint_Read_Control_Stream_BE
 2721               	Endpoint_Read_Control_Stream_BE:
 2722               	.LFB100:
  35:../../../../tmk_core/protocol/lufa/LUFA-git/LUFA/Drivers/USB/Core/AVR8/Template/Template_Endpoint_Control_R.c **** {
 2723               		.loc 5 35 0
 2724               		.cfi_startproc
 2725               	.LVL259:
 2726               	/* prologue: function */
 2727               	/* frame size = 0 */
 2728               	/* stack size = 0 */
 2729               	.L__stack_usage = 0
  36:../../../../tmk_core/protocol/lufa/LUFA-git/LUFA/Drivers/USB/Core/AVR8/Template/Template_Endpoint_Control_R.c **** 	uint8_t* DataStream = ((uint8_t*)Buffer + TEMPLATE_BUFFER_OFFSET(Length));
 2730               		.loc 5 36 0
 2731 0000 FB01      		movw r30,r22
 2732 0002 3197      		sbiw r30,1
 2733 0004 E80F      		add r30,r24
 2734 0006 F91F      		adc r31,r25
 2735               	.LVL260:
  38:../../../../tmk_core/protocol/lufa/LUFA-git/LUFA/Drivers/USB/Core/AVR8/Template/Template_Endpoint_Control_R.c **** 	if (!(Length))
 2736               		.loc 5 38 0
 2737 0008 6115      		cp r22,__zero_reg__
 2738 000a 7105      		cpc r23,__zero_reg__
 2739 000c 01F4      		brne .L254
 2740 000e 00C0      		rjmp .L242
 2741               	.LVL261:
 2742               	.L255:
 2743               	.LBB404:
  43:../../../../tmk_core/protocol/lufa/LUFA-git/LUFA/Drivers/USB/Core/AVR8/Template/Template_Endpoint_Control_R.c **** 		uint8_t USB_DeviceState_LCL = USB_DeviceState;
 2744               		.loc 5 43 0
 2745 0010 8091 0000 		lds r24,USB_DeviceState
 2746               	.LVL262:
  45:../../../../tmk_core/protocol/lufa/LUFA-git/LUFA/Drivers/USB/Core/AVR8/Template/Template_Endpoint_Control_R.c **** 		if (USB_DeviceState_LCL == DEVICE_STATE_Unattached)
 2747               		.loc 5 45 0
 2748 0014 8823      		tst r24
 2749 0016 01F0      		breq .L249
  47:../../../../tmk_core/protocol/lufa/LUFA-git/LUFA/Drivers/USB/Core/AVR8/Template/Template_Endpoint_Control_R.c **** 		else if (USB_DeviceState_LCL == DEVICE_STATE_Suspended)
 2750               		.loc 5 47 0
 2751 0018 8530      		cpi r24,lo8(5)
 2752 001a 01F0      		breq .L246
 2753               	.LBB405:
 2754               	.LBB406:
 431:../../../../tmk_core/protocol/lufa/LUFA-git/LUFA/Drivers/USB/Core/AVR8/../AVR8/../AVR8/Endpoint_AVR8.h **** 				return ((UEINTX & (1 << RXSTPI)) ? true : false);
 2755               		.loc 2 431 0
 2756 001c 8091 E800 		lds r24,232
 2757               	.LVL263:
 2758               	.LBE406:
 2759               	.LBE405:
  49:../../../../tmk_core/protocol/lufa/LUFA-git/LUFA/Drivers/USB/Core/AVR8/Template/Template_Endpoint_Control_R.c **** 		else if (Endpoint_IsSETUPReceived())
 2760               		.loc 5 49 0
 2761 0020 83FD      		sbrc r24,3
 2762 0022 00C0      		rjmp .L247
 2763               	.LBB407:
 2764               	.LBB408:
 419:../../../../tmk_core/protocol/lufa/LUFA-git/LUFA/Drivers/USB/Core/AVR8/../AVR8/../AVR8/Endpoint_AVR8.h **** 				return ((UEINTX & (1 << RXOUTI)) ? true : false);
 2765               		.loc 2 419 0
 2766 0024 8091 E800 		lds r24,232
 2767               	.LBE408:
 2768               	.LBE407:
  52:../../../../tmk_core/protocol/lufa/LUFA-git/LUFA/Drivers/USB/Core/AVR8/Template/Template_Endpoint_Control_R.c **** 		if (Endpoint_IsOUTReceived())
 2769               		.loc 5 52 0
 2770 0028 82FF      		sbrs r24,2
 2771 002a 00C0      		rjmp .L255
 2772 002c 00C0      		rjmp .L251
 2773               	.L243:
 2774               	.LBB409:
 2775               	.LBB410:
 542:../../../../tmk_core/protocol/lufa/LUFA-git/LUFA/Drivers/USB/Core/AVR8/../AVR8/../AVR8/Endpoint_AVR8.h **** 				return UEDATX;
 2776               		.loc 2 542 0
 2777 002e 8091 F100 		lds r24,241
 2778               	.LBE410:
 2779               	.LBE409:
  56:../../../../tmk_core/protocol/lufa/LUFA-git/LUFA/Drivers/USB/Core/AVR8/Template/Template_Endpoint_Control_R.c **** 				TEMPLATE_TRANSFER_BYTE(DataStream);
 2780               		.loc 5 56 0
 2781 0032 8083      		st Z,r24
  57:../../../../tmk_core/protocol/lufa/LUFA-git/LUFA/Drivers/USB/Core/AVR8/Template/Template_Endpoint_Control_R.c **** 				TEMPLATE_BUFFER_MOVE(DataStream, 1);
 2782               		.loc 5 57 0
 2783 0034 3197      		sbiw r30,1
 2784               	.LVL264:
  58:../../../../tmk_core/protocol/lufa/LUFA-git/LUFA/Drivers/USB/Core/AVR8/Template/Template_Endpoint_Control_R.c **** 				Length--;
 2785               		.loc 5 58 0
 2786 0036 6150      		subi r22,1
 2787 0038 7109      		sbc r23,__zero_reg__
 2788               	.LVL265:
  54:../../../../tmk_core/protocol/lufa/LUFA-git/LUFA/Drivers/USB/Core/AVR8/Template/Template_Endpoint_Control_R.c **** 			while (Length && Endpoint_BytesInEndpoint())
 2789               		.loc 5 54 0
 2790 003a 01F0      		breq .L242
 2791               	.L251:
 2792               	.LBB411:
 2793               	.LBB412:
 225:../../../../tmk_core/protocol/lufa/LUFA-git/LUFA/Drivers/USB/Core/AVR8/../AVR8/../AVR8/Endpoint_AVR8.h **** 					return UEBCX;
 2794               		.loc 2 225 0
 2795 003c 8091 F200 		lds r24,242
 2796 0040 9091 F300 		lds r25,242+1
 2797               	.LBE412:
 2798               	.LBE411:
  54:../../../../tmk_core/protocol/lufa/LUFA-git/LUFA/Drivers/USB/Core/AVR8/Template/Template_Endpoint_Control_R.c **** 			while (Length && Endpoint_BytesInEndpoint())
 2799               		.loc 5 54 0
 2800 0044 892B      		or r24,r25
 2801 0046 01F4      		brne .L243
 2802               	.L242:
 2803               	.LBB413:
 2804               	.LBB414:
 471:../../../../tmk_core/protocol/lufa/LUFA-git/LUFA/Drivers/USB/Core/AVR8/../AVR8/../AVR8/Endpoint_AVR8.h **** 					UEINTX &= ~((1 << RXOUTI) | (1 << FIFOCON));
 2805               		.loc 2 471 0
 2806 0048 8091 E800 		lds r24,232
 2807 004c 8B77      		andi r24,lo8(123)
 2808 004e 8093 E800 		sts 232,r24
 2809               	.L254:
 2810               	.LBE414:
 2811               	.LBE413:
 2812               	.LBE404:
  41:../../../../tmk_core/protocol/lufa/LUFA-git/LUFA/Drivers/USB/Core/AVR8/Template/Template_Endpoint_Control_R.c **** 	while (Length)
 2813               		.loc 5 41 0 discriminator 1
 2814 0052 6115      		cp r22,__zero_reg__
 2815 0054 7105      		cpc r23,__zero_reg__
 2816 0056 01F4      		brne .L255
 2817               	.L250:
 2818               	.LBB415:
 2819               	.LBB416:
 407:../../../../tmk_core/protocol/lufa/LUFA-git/LUFA/Drivers/USB/Core/AVR8/../AVR8/../AVR8/Endpoint_AVR8.h **** 				return ((UEINTX & (1 << TXINI)) ? true : false);
 2820               		.loc 2 407 0
 2821 0058 8091 E800 		lds r24,232
 2822               	.LBE416:
 2823               	.LBE415:
  65:../../../../tmk_core/protocol/lufa/LUFA-git/LUFA/Drivers/USB/Core/AVR8/Template/Template_Endpoint_Control_R.c **** 	while (!(Endpoint_IsINReady()))
 2824               		.loc 5 65 0
 2825 005c 80FD      		sbrc r24,0
 2826 005e 00C0      		rjmp .L248
 2827               	.LBB417:
  67:../../../../tmk_core/protocol/lufa/LUFA-git/LUFA/Drivers/USB/Core/AVR8/Template/Template_Endpoint_Control_R.c **** 		uint8_t USB_DeviceState_LCL = USB_DeviceState;
 2828               		.loc 5 67 0
 2829 0060 8091 0000 		lds r24,USB_DeviceState
 2830               	.LVL266:
  69:../../../../tmk_core/protocol/lufa/LUFA-git/LUFA/Drivers/USB/Core/AVR8/Template/Template_Endpoint_Control_R.c **** 		if (USB_DeviceState_LCL == DEVICE_STATE_Unattached)
 2831               		.loc 5 69 0
 2832 0064 8823      		tst r24
 2833 0066 01F0      		breq .L249
  71:../../../../tmk_core/protocol/lufa/LUFA-git/LUFA/Drivers/USB/Core/AVR8/Template/Template_Endpoint_Control_R.c **** 		else if (USB_DeviceState_LCL == DEVICE_STATE_Suspended)
 2834               		.loc 5 71 0
 2835 0068 8530      		cpi r24,lo8(5)
 2836 006a 01F4      		brne .L250
 2837               	.LVL267:
 2838               	.L246:
 2839               	.LBE417:
 2840               	.LBB418:
  48:../../../../tmk_core/protocol/lufa/LUFA-git/LUFA/Drivers/USB/Core/AVR8/Template/Template_Endpoint_Control_R.c **** 		  return ENDPOINT_RWCSTREAM_BusSuspended;
 2841               		.loc 5 48 0
 2842 006c 83E0      		ldi r24,lo8(3)
 2843 006e 0895      		ret
 2844               	.L247:
  50:../../../../tmk_core/protocol/lufa/LUFA-git/LUFA/Drivers/USB/Core/AVR8/Template/Template_Endpoint_Control_R.c **** 		  return ENDPOINT_RWCSTREAM_HostAborted;
 2845               		.loc 5 50 0
 2846 0070 81E0      		ldi r24,lo8(1)
 2847 0072 0895      		ret
 2848               	.L248:
 2849               	.LBE418:
  75:../../../../tmk_core/protocol/lufa/LUFA-git/LUFA/Drivers/USB/Core/AVR8/Template/Template_Endpoint_Control_R.c **** 	return ENDPOINT_RWCSTREAM_NoError;
 2850               		.loc 5 75 0
 2851 0074 80E0      		ldi r24,0
 2852 0076 0895      		ret
 2853               	.L249:
 2854               	.LBB419:
  46:../../../../tmk_core/protocol/lufa/LUFA-git/LUFA/Drivers/USB/Core/AVR8/Template/Template_Endpoint_Control_R.c **** 		  return ENDPOINT_RWCSTREAM_DeviceDisconnected;
 2855               		.loc 5 46 0
 2856 0078 82E0      		ldi r24,lo8(2)
 2857               	.LBE419:
 2858               		.loc 5 76 0
 2859 007a 0895      		ret
 2860               		.cfi_endproc
 2861               	.LFE100:
 2863               		.section	.text.Endpoint_Write_Control_PStream_LE,"ax",@progbits
 2864               	.global	Endpoint_Write_Control_PStream_LE
 2866               	Endpoint_Write_Control_PStream_LE:
 2867               	.LFB101:
  35:../../../../tmk_core/protocol/lufa/LUFA-git/LUFA/Drivers/USB/Core/AVR8/Template/Template_Endpoint_Control_W.c **** {
 2868               		.loc 4 35 0
 2869               		.cfi_startproc
 2870               	.LVL268:
 2871               	/* prologue: function */
 2872               	/* frame size = 0 */
 2873               	/* stack size = 0 */
 2874               	.L__stack_usage = 0
  39:../../../../tmk_core/protocol/lufa/LUFA-git/LUFA/Drivers/USB/Core/AVR8/Template/Template_Endpoint_Control_W.c **** 	if (Length > USB_ControlRequest.wLength)
 2875               		.loc 4 39 0
 2876 0000 2091 0000 		lds r18,USB_ControlRequest+6
 2877 0004 3091 0000 		lds r19,USB_ControlRequest+6+1
 2878 0008 2617      		cp r18,r22
 2879 000a 3707      		cpc r19,r23
 2880 000c 00F0      		brlo .L268
  41:../../../../tmk_core/protocol/lufa/LUFA-git/LUFA/Drivers/USB/Core/AVR8/Template/Template_Endpoint_Control_W.c **** 	else if (!(Length))
 2881               		.loc 4 41 0
 2882 000e 6115      		cp r22,__zero_reg__
 2883 0010 7105      		cpc r23,__zero_reg__
 2884 0012 01F4      		brne .L257
 2885               	.LBB420:
 2886               	.LBB421:
 456:../../../../tmk_core/protocol/lufa/LUFA-git/LUFA/Drivers/USB/Core/AVR8/../AVR8/../AVR8/Endpoint_AVR8.h **** 					UEINTX &= ~((1 << TXINI) | (1 << FIFOCON));
 2887               		.loc 2 456 0
 2888 0014 2091 E800 		lds r18,232
 2889 0018 2E77      		andi r18,lo8(126)
 2890 001a 2093 E800 		sts 232,r18
 2891 001e 00C0      		rjmp .L257
 2892               	.L268:
 2893               	.LBE421:
 2894               	.LBE420:
  39:../../../../tmk_core/protocol/lufa/LUFA-git/LUFA/Drivers/USB/Core/AVR8/Template/Template_Endpoint_Control_W.c **** 	if (Length > USB_ControlRequest.wLength)
 2895               		.loc 4 39 0
 2896 0020 B901      		movw r22,r18
 2897               	.LVL269:
 2898               	.L257:
  39:../../../../tmk_core/protocol/lufa/LUFA-git/LUFA/Drivers/USB/Core/AVR8/Template/Template_Endpoint_Control_W.c **** 	if (Length > USB_ControlRequest.wLength)
 2899               		.loc 4 39 0 is_stmt 0 discriminator 1
 2900 0022 FC01      		movw r30,r24
 2901 0024 20E0      		ldi r18,0
 2902 0026 00C0      		rjmp .L287
 2903               	.LVL270:
 2904               	.L266:
 2905               	.LBB422:
  46:../../../../tmk_core/protocol/lufa/LUFA-git/LUFA/Drivers/USB/Core/AVR8/Template/Template_Endpoint_Control_W.c **** 		uint8_t USB_DeviceState_LCL = USB_DeviceState;
 2906               		.loc 4 46 0 is_stmt 1
 2907 0028 8091 0000 		lds r24,USB_DeviceState
 2908               	.LVL271:
  48:../../../../tmk_core/protocol/lufa/LUFA-git/LUFA/Drivers/USB/Core/AVR8/Template/Template_Endpoint_Control_W.c **** 		if (USB_DeviceState_LCL == DEVICE_STATE_Unattached)
 2909               		.loc 4 48 0
 2910 002c 8823      		tst r24
 2911 002e 01F4      		brne .+2
 2912 0030 00C0      		rjmp .L272
  50:../../../../tmk_core/protocol/lufa/LUFA-git/LUFA/Drivers/USB/Core/AVR8/Template/Template_Endpoint_Control_W.c **** 		else if (USB_DeviceState_LCL == DEVICE_STATE_Suspended)
 2913               		.loc 4 50 0
 2914 0032 8530      		cpi r24,lo8(5)
 2915 0034 01F4      		brne .+2
 2916 0036 00C0      		rjmp .L273
 2917               	.LBB423:
 2918               	.LBB424:
 431:../../../../tmk_core/protocol/lufa/LUFA-git/LUFA/Drivers/USB/Core/AVR8/../AVR8/../AVR8/Endpoint_AVR8.h **** 				return ((UEINTX & (1 << RXSTPI)) ? true : false);
 2919               		.loc 2 431 0
 2920 0038 8091 E800 		lds r24,232
 2921               	.LVL272:
 2922               	.LBE424:
 2923               	.LBE423:
  52:../../../../tmk_core/protocol/lufa/LUFA-git/LUFA/Drivers/USB/Core/AVR8/Template/Template_Endpoint_Control_W.c **** 		else if (Endpoint_IsSETUPReceived())
 2924               		.loc 4 52 0
 2925 003c 83FD      		sbrc r24,3
 2926 003e 00C0      		rjmp .L274
 2927               	.LBB425:
 2928               	.LBB426:
 419:../../../../tmk_core/protocol/lufa/LUFA-git/LUFA/Drivers/USB/Core/AVR8/../AVR8/../AVR8/Endpoint_AVR8.h **** 				return ((UEINTX & (1 << RXOUTI)) ? true : false);
 2929               		.loc 2 419 0
 2930 0040 8091 E800 		lds r24,232
 2931               	.LBE426:
 2932               	.LBE425:
  54:../../../../tmk_core/protocol/lufa/LUFA-git/LUFA/Drivers/USB/Core/AVR8/Template/Template_Endpoint_Control_W.c **** 		else if (Endpoint_IsOUTReceived())
 2933               		.loc 4 54 0
 2934 0044 82FD      		sbrc r24,2
 2935 0046 00C0      		rjmp .L282
 2936               	.LBB427:
 2937               	.LBB428:
 407:../../../../tmk_core/protocol/lufa/LUFA-git/LUFA/Drivers/USB/Core/AVR8/../AVR8/../AVR8/Endpoint_AVR8.h **** 				return ((UEINTX & (1 << TXINI)) ? true : false);
 2938               		.loc 2 407 0
 2939 0048 8091 E800 		lds r24,232
 2940               	.LBE428:
 2941               	.LBE427:
  57:../../../../tmk_core/protocol/lufa/LUFA-git/LUFA/Drivers/USB/Core/AVR8/Template/Template_Endpoint_Control_W.c **** 		if (Endpoint_IsINReady())
 2942               		.loc 4 57 0
 2943 004c 80FF      		sbrs r24,0
 2944 004e 00C0      		rjmp .L287
 2945               	.LBB429:
 2946               	.LBB430:
 2947               	.LBB431:
 225:../../../../tmk_core/protocol/lufa/LUFA-git/LUFA/Drivers/USB/Core/AVR8/../AVR8/../AVR8/Endpoint_AVR8.h **** 					return UEBCX;
 2948               		.loc 2 225 0
 2949 0050 8091 F200 		lds r24,242
 2950 0054 9091 F300 		lds r25,242+1
 2951               	.LBE431:
 2952               	.LBE430:
  61:../../../../tmk_core/protocol/lufa/LUFA-git/LUFA/Drivers/USB/Core/AVR8/Template/Template_Endpoint_Control_W.c **** 			while (Length && (BytesInEndpoint < USB_Device_ControlEndpointSize))
 2953               		.loc 4 61 0
 2954 0058 00C0      		rjmp .L262
 2955               	.LVL273:
 2956               	.L264:
 2957               	.LBB432:
  63:../../../../tmk_core/protocol/lufa/LUFA-git/LUFA/Drivers/USB/Core/AVR8/Template/Template_Endpoint_Control_W.c **** 				TEMPLATE_TRANSFER_BYTE(DataStream);
 2958               		.loc 4 63 0
 2959               	/* #APP */
 2960               	 ;  63 "../../../../tmk_core/protocol/lufa/LUFA-git/LUFA/Drivers/USB/Core/AVR8/Template/Template_En
 2961 005a 2491      		lpm r18, Z
 2962               		
 2963               	 ;  0 "" 2
 2964               	.LVL274:
 2965               	/* #NOAPP */
 2966               	.LBE432:
 2967               	.LBB433:
 2968               	.LBB434:
 554:../../../../tmk_core/protocol/lufa/LUFA-git/LUFA/Drivers/USB/Core/AVR8/../AVR8/../AVR8/Endpoint_AVR8.h **** 				UEDATX = Data;
 2969               		.loc 2 554 0
 2970 005c 2093 F100 		sts 241,r18
 2971               	.LBE434:
 2972               	.LBE433:
  64:../../../../tmk_core/protocol/lufa/LUFA-git/LUFA/Drivers/USB/Core/AVR8/Template/Template_Endpoint_Control_W.c **** 				TEMPLATE_BUFFER_MOVE(DataStream, 1);
 2973               		.loc 4 64 0
 2974 0060 3196      		adiw r30,1
 2975               	.LVL275:
  65:../../../../tmk_core/protocol/lufa/LUFA-git/LUFA/Drivers/USB/Core/AVR8/Template/Template_Endpoint_Control_W.c **** 				Length--;
 2976               		.loc 4 65 0
 2977 0062 6150      		subi r22,1
 2978 0064 7109      		sbc r23,__zero_reg__
 2979               	.LVL276:
  66:../../../../tmk_core/protocol/lufa/LUFA-git/LUFA/Drivers/USB/Core/AVR8/Template/Template_Endpoint_Control_W.c **** 				BytesInEndpoint++;
 2980               		.loc 4 66 0
 2981 0066 0196      		adiw r24,1
 2982               	.LVL277:
 2983               	.L262:
  61:../../../../tmk_core/protocol/lufa/LUFA-git/LUFA/Drivers/USB/Core/AVR8/Template/Template_Endpoint_Control_W.c **** 			while (Length && (BytesInEndpoint < USB_Device_ControlEndpointSize))
 2984               		.loc 4 61 0 discriminator 1
 2985 0068 6115      		cp r22,__zero_reg__
 2986 006a 7105      		cpc r23,__zero_reg__
 2987 006c 01F0      		breq .L263
  61:../../../../tmk_core/protocol/lufa/LUFA-git/LUFA/Drivers/USB/Core/AVR8/Template/Template_Endpoint_Control_W.c **** 			while (Length && (BytesInEndpoint < USB_Device_ControlEndpointSize))
 2988               		.loc 4 61 0 is_stmt 0 discriminator 2
 2989 006e 8830      		cpi r24,8
 2990 0070 9105      		cpc r25,__zero_reg__
 2991 0072 00F0      		brlo .L264
 2992               	.L263:
  69:../../../../tmk_core/protocol/lufa/LUFA-git/LUFA/Drivers/USB/Core/AVR8/Template/Template_Endpoint_Control_W.c **** 			LastPacketFull = (BytesInEndpoint == USB_Device_ControlEndpointSize);
 2993               		.loc 4 69 0 is_stmt 1
 2994 0074 21E0      		ldi r18,lo8(1)
 2995 0076 0897      		sbiw r24,8
 2996 0078 01F0      		breq .L265
 2997 007a 20E0      		ldi r18,0
 2998               	.L265:
 2999               	.LVL278:
 3000               	.LBB435:
 3001               	.LBB436:
 456:../../../../tmk_core/protocol/lufa/LUFA-git/LUFA/Drivers/USB/Core/AVR8/../AVR8/../AVR8/Endpoint_AVR8.h **** 					UEINTX &= ~((1 << TXINI) | (1 << FIFOCON));
 3002               		.loc 2 456 0
 3003 007c 8091 E800 		lds r24,232
 3004               	.LVL279:
 3005 0080 8E77      		andi r24,lo8(126)
 3006 0082 8093 E800 		sts 232,r24
 3007               	.LVL280:
 3008               	.L287:
 3009               	.LBE436:
 3010               	.LBE435:
 3011               	.LBE429:
 3012               	.LBE422:
  44:../../../../tmk_core/protocol/lufa/LUFA-git/LUFA/Drivers/USB/Core/AVR8/Template/Template_Endpoint_Control_W.c **** 	while (Length || LastPacketFull)
 3013               		.loc 4 44 0 discriminator 1
 3014 0086 6115      		cp r22,__zero_reg__
 3015 0088 7105      		cpc r23,__zero_reg__
 3016 008a 01F4      		brne .L266
  44:../../../../tmk_core/protocol/lufa/LUFA-git/LUFA/Drivers/USB/Core/AVR8/Template/Template_Endpoint_Control_W.c **** 	while (Length || LastPacketFull)
 3017               		.loc 4 44 0 is_stmt 0 discriminator 2
 3018 008c 2111      		cpse r18,__zero_reg__
 3019 008e 00C0      		rjmp .L266
 3020 0090 00C0      		rjmp .L282
 3021               	.L267:
 3022               	.LBB437:
  76:../../../../tmk_core/protocol/lufa/LUFA-git/LUFA/Drivers/USB/Core/AVR8/Template/Template_Endpoint_Control_W.c **** 		uint8_t USB_DeviceState_LCL = USB_DeviceState;
 3023               		.loc 4 76 0 is_stmt 1
 3024 0092 8091 0000 		lds r24,USB_DeviceState
 3025               	.LVL281:
  78:../../../../tmk_core/protocol/lufa/LUFA-git/LUFA/Drivers/USB/Core/AVR8/Template/Template_Endpoint_Control_W.c **** 		if (USB_DeviceState_LCL == DEVICE_STATE_Unattached)
 3026               		.loc 4 78 0
 3027 0096 8823      		tst r24
 3028 0098 01F0      		breq .L272
  80:../../../../tmk_core/protocol/lufa/LUFA-git/LUFA/Drivers/USB/Core/AVR8/Template/Template_Endpoint_Control_W.c **** 		else if (USB_DeviceState_LCL == DEVICE_STATE_Suspended)
 3029               		.loc 4 80 0
 3030 009a 8530      		cpi r24,lo8(5)
 3031 009c 01F0      		breq .L273
 3032               	.LBB438:
 3033               	.LBB439:
 431:../../../../tmk_core/protocol/lufa/LUFA-git/LUFA/Drivers/USB/Core/AVR8/../AVR8/../AVR8/Endpoint_AVR8.h **** 				return ((UEINTX & (1 << RXSTPI)) ? true : false);
 3034               		.loc 2 431 0
 3035 009e 8091 E800 		lds r24,232
 3036               	.LVL282:
 3037               	.LBE439:
 3038               	.LBE438:
  82:../../../../tmk_core/protocol/lufa/LUFA-git/LUFA/Drivers/USB/Core/AVR8/Template/Template_Endpoint_Control_W.c **** 		else if (Endpoint_IsSETUPReceived())
 3039               		.loc 4 82 0
 3040 00a2 83FD      		sbrc r24,3
 3041 00a4 00C0      		rjmp .L274
 3042               	.L282:
 3043               	.LBE437:
 3044               	.LBB440:
 3045               	.LBB441:
 419:../../../../tmk_core/protocol/lufa/LUFA-git/LUFA/Drivers/USB/Core/AVR8/../AVR8/../AVR8/Endpoint_AVR8.h **** 				return ((UEINTX & (1 << RXOUTI)) ? true : false);
 3046               		.loc 2 419 0 discriminator 1
 3047 00a6 8091 E800 		lds r24,232
 3048               	.LBE441:
 3049               	.LBE440:
  74:../../../../tmk_core/protocol/lufa/LUFA-git/LUFA/Drivers/USB/Core/AVR8/Template/Template_Endpoint_Control_W.c **** 	while (!(Endpoint_IsOUTReceived()))
 3050               		.loc 4 74 0 discriminator 1
 3051 00aa 82FF      		sbrs r24,2
 3052 00ac 00C0      		rjmp .L267
  86:../../../../tmk_core/protocol/lufa/LUFA-git/LUFA/Drivers/USB/Core/AVR8/Template/Template_Endpoint_Control_W.c **** 	return ENDPOINT_RWCSTREAM_NoError;
 3053               		.loc 4 86 0
 3054 00ae 80E0      		ldi r24,0
 3055 00b0 0895      		ret
 3056               	.L272:
 3057               	.LBB442:
  49:../../../../tmk_core/protocol/lufa/LUFA-git/LUFA/Drivers/USB/Core/AVR8/Template/Template_Endpoint_Control_W.c **** 		  return ENDPOINT_RWCSTREAM_DeviceDisconnected;
 3058               		.loc 4 49 0
 3059 00b2 82E0      		ldi r24,lo8(2)
 3060 00b4 0895      		ret
 3061               	.L273:
  51:../../../../tmk_core/protocol/lufa/LUFA-git/LUFA/Drivers/USB/Core/AVR8/Template/Template_Endpoint_Control_W.c **** 		  return ENDPOINT_RWCSTREAM_BusSuspended;
 3062               		.loc 4 51 0
 3063 00b6 83E0      		ldi r24,lo8(3)
 3064 00b8 0895      		ret
 3065               	.L274:
  53:../../../../tmk_core/protocol/lufa/LUFA-git/LUFA/Drivers/USB/Core/AVR8/Template/Template_Endpoint_Control_W.c **** 		  return ENDPOINT_RWCSTREAM_HostAborted;
 3066               		.loc 4 53 0
 3067 00ba 81E0      		ldi r24,lo8(1)
 3068               	.LBE442:
 3069               		.loc 4 87 0
 3070 00bc 0895      		ret
 3071               		.cfi_endproc
 3072               	.LFE101:
 3074               		.section	.text.Endpoint_Write_Control_PStream_BE,"ax",@progbits
 3075               	.global	Endpoint_Write_Control_PStream_BE
 3077               	Endpoint_Write_Control_PStream_BE:
 3078               	.LFB102:
  35:../../../../tmk_core/protocol/lufa/LUFA-git/LUFA/Drivers/USB/Core/AVR8/Template/Template_Endpoint_Control_W.c **** {
 3079               		.loc 4 35 0
 3080               		.cfi_startproc
 3081               	.LVL283:
 3082               	/* prologue: function */
 3083               	/* frame size = 0 */
 3084               	/* stack size = 0 */
 3085               	.L__stack_usage = 0
  36:../../../../tmk_core/protocol/lufa/LUFA-git/LUFA/Drivers/USB/Core/AVR8/Template/Template_Endpoint_Control_W.c **** 	uint8_t* DataStream     = ((uint8_t*)Buffer + TEMPLATE_BUFFER_OFFSET(Length));
 3086               		.loc 4 36 0
 3087 0000 FB01      		movw r30,r22
 3088 0002 3197      		sbiw r30,1
 3089 0004 E80F      		add r30,r24
 3090 0006 F91F      		adc r31,r25
 3091               	.LVL284:
  39:../../../../tmk_core/protocol/lufa/LUFA-git/LUFA/Drivers/USB/Core/AVR8/Template/Template_Endpoint_Control_W.c **** 	if (Length > USB_ControlRequest.wLength)
 3092               		.loc 4 39 0
 3093 0008 8091 0000 		lds r24,USB_ControlRequest+6
 3094 000c 9091 0000 		lds r25,USB_ControlRequest+6+1
 3095               	.LVL285:
 3096 0010 8617      		cp r24,r22
 3097 0012 9707      		cpc r25,r23
 3098 0014 00F0      		brlo .L300
  41:../../../../tmk_core/protocol/lufa/LUFA-git/LUFA/Drivers/USB/Core/AVR8/Template/Template_Endpoint_Control_W.c **** 	else if (!(Length))
 3099               		.loc 4 41 0
 3100 0016 6115      		cp r22,__zero_reg__
 3101 0018 7105      		cpc r23,__zero_reg__
 3102 001a 01F4      		brne .L289
 3103               	.LBB443:
 3104               	.LBB444:
 456:../../../../tmk_core/protocol/lufa/LUFA-git/LUFA/Drivers/USB/Core/AVR8/../AVR8/../AVR8/Endpoint_AVR8.h **** 					UEINTX &= ~((1 << TXINI) | (1 << FIFOCON));
 3105               		.loc 2 456 0
 3106 001c 8091 E800 		lds r24,232
 3107 0020 8E77      		andi r24,lo8(126)
 3108 0022 8093 E800 		sts 232,r24
 3109 0026 00C0      		rjmp .L289
 3110               	.L300:
 3111               	.LBE444:
 3112               	.LBE443:
  39:../../../../tmk_core/protocol/lufa/LUFA-git/LUFA/Drivers/USB/Core/AVR8/Template/Template_Endpoint_Control_W.c **** 	if (Length > USB_ControlRequest.wLength)
 3113               		.loc 4 39 0
 3114 0028 BC01      		movw r22,r24
 3115               	.LVL286:
 3116               	.L289:
  39:../../../../tmk_core/protocol/lufa/LUFA-git/LUFA/Drivers/USB/Core/AVR8/Template/Template_Endpoint_Control_W.c **** 	if (Length > USB_ControlRequest.wLength)
 3117               		.loc 4 39 0 is_stmt 0 discriminator 1
 3118 002a 20E0      		ldi r18,0
 3119 002c 00C0      		rjmp .L319
 3120               	.LVL287:
 3121               	.L298:
 3122               	.LBB445:
  46:../../../../tmk_core/protocol/lufa/LUFA-git/LUFA/Drivers/USB/Core/AVR8/Template/Template_Endpoint_Control_W.c **** 		uint8_t USB_DeviceState_LCL = USB_DeviceState;
 3123               		.loc 4 46 0 is_stmt 1
 3124 002e 8091 0000 		lds r24,USB_DeviceState
 3125               	.LVL288:
  48:../../../../tmk_core/protocol/lufa/LUFA-git/LUFA/Drivers/USB/Core/AVR8/Template/Template_Endpoint_Control_W.c **** 		if (USB_DeviceState_LCL == DEVICE_STATE_Unattached)
 3126               		.loc 4 48 0
 3127 0032 8823      		tst r24
 3128 0034 01F4      		brne .+2
 3129 0036 00C0      		rjmp .L304
  50:../../../../tmk_core/protocol/lufa/LUFA-git/LUFA/Drivers/USB/Core/AVR8/Template/Template_Endpoint_Control_W.c **** 		else if (USB_DeviceState_LCL == DEVICE_STATE_Suspended)
 3130               		.loc 4 50 0
 3131 0038 8530      		cpi r24,lo8(5)
 3132 003a 01F4      		brne .+2
 3133 003c 00C0      		rjmp .L305
 3134               	.LBB446:
 3135               	.LBB447:
 431:../../../../tmk_core/protocol/lufa/LUFA-git/LUFA/Drivers/USB/Core/AVR8/../AVR8/../AVR8/Endpoint_AVR8.h **** 				return ((UEINTX & (1 << RXSTPI)) ? true : false);
 3136               		.loc 2 431 0
 3137 003e 8091 E800 		lds r24,232
 3138               	.LVL289:
 3139               	.LBE447:
 3140               	.LBE446:
  52:../../../../tmk_core/protocol/lufa/LUFA-git/LUFA/Drivers/USB/Core/AVR8/Template/Template_Endpoint_Control_W.c **** 		else if (Endpoint_IsSETUPReceived())
 3141               		.loc 4 52 0
 3142 0042 83FD      		sbrc r24,3
 3143 0044 00C0      		rjmp .L306
 3144               	.LBB448:
 3145               	.LBB449:
 419:../../../../tmk_core/protocol/lufa/LUFA-git/LUFA/Drivers/USB/Core/AVR8/../AVR8/../AVR8/Endpoint_AVR8.h **** 				return ((UEINTX & (1 << RXOUTI)) ? true : false);
 3146               		.loc 2 419 0
 3147 0046 8091 E800 		lds r24,232
 3148               	.LBE449:
 3149               	.LBE448:
  54:../../../../tmk_core/protocol/lufa/LUFA-git/LUFA/Drivers/USB/Core/AVR8/Template/Template_Endpoint_Control_W.c **** 		else if (Endpoint_IsOUTReceived())
 3150               		.loc 4 54 0
 3151 004a 82FD      		sbrc r24,2
 3152 004c 00C0      		rjmp .L314
 3153               	.LBB450:
 3154               	.LBB451:
 407:../../../../tmk_core/protocol/lufa/LUFA-git/LUFA/Drivers/USB/Core/AVR8/../AVR8/../AVR8/Endpoint_AVR8.h **** 				return ((UEINTX & (1 << TXINI)) ? true : false);
 3155               		.loc 2 407 0
 3156 004e 8091 E800 		lds r24,232
 3157               	.LBE451:
 3158               	.LBE450:
  57:../../../../tmk_core/protocol/lufa/LUFA-git/LUFA/Drivers/USB/Core/AVR8/Template/Template_Endpoint_Control_W.c **** 		if (Endpoint_IsINReady())
 3159               		.loc 4 57 0
 3160 0052 80FF      		sbrs r24,0
 3161 0054 00C0      		rjmp .L319
 3162               	.LBB452:
 3163               	.LBB453:
 3164               	.LBB454:
 225:../../../../tmk_core/protocol/lufa/LUFA-git/LUFA/Drivers/USB/Core/AVR8/../AVR8/../AVR8/Endpoint_AVR8.h **** 					return UEBCX;
 3165               		.loc 2 225 0
 3166 0056 8091 F200 		lds r24,242
 3167 005a 9091 F300 		lds r25,242+1
 3168               	.LBE454:
 3169               	.LBE453:
  61:../../../../tmk_core/protocol/lufa/LUFA-git/LUFA/Drivers/USB/Core/AVR8/Template/Template_Endpoint_Control_W.c **** 			while (Length && (BytesInEndpoint < USB_Device_ControlEndpointSize))
 3170               		.loc 4 61 0
 3171 005e 00C0      		rjmp .L294
 3172               	.LVL290:
 3173               	.L296:
 3174               	.LBB455:
  63:../../../../tmk_core/protocol/lufa/LUFA-git/LUFA/Drivers/USB/Core/AVR8/Template/Template_Endpoint_Control_W.c **** 				TEMPLATE_TRANSFER_BYTE(DataStream);
 3175               		.loc 4 63 0
 3176               	/* #APP */
 3177               	 ;  63 "../../../../tmk_core/protocol/lufa/LUFA-git/LUFA/Drivers/USB/Core/AVR8/Template/Template_En
 3178 0060 2491      		lpm r18, Z
 3179               		
 3180               	 ;  0 "" 2
 3181               	.LVL291:
 3182               	/* #NOAPP */
 3183               	.LBE455:
 3184               	.LBB456:
 3185               	.LBB457:
 554:../../../../tmk_core/protocol/lufa/LUFA-git/LUFA/Drivers/USB/Core/AVR8/../AVR8/../AVR8/Endpoint_AVR8.h **** 				UEDATX = Data;
 3186               		.loc 2 554 0
 3187 0062 2093 F100 		sts 241,r18
 3188               	.LBE457:
 3189               	.LBE456:
  64:../../../../tmk_core/protocol/lufa/LUFA-git/LUFA/Drivers/USB/Core/AVR8/Template/Template_Endpoint_Control_W.c **** 				TEMPLATE_BUFFER_MOVE(DataStream, 1);
 3190               		.loc 4 64 0
 3191 0066 3197      		sbiw r30,1
 3192               	.LVL292:
  65:../../../../tmk_core/protocol/lufa/LUFA-git/LUFA/Drivers/USB/Core/AVR8/Template/Template_Endpoint_Control_W.c **** 				Length--;
 3193               		.loc 4 65 0
 3194 0068 6150      		subi r22,1
 3195 006a 7109      		sbc r23,__zero_reg__
 3196               	.LVL293:
  66:../../../../tmk_core/protocol/lufa/LUFA-git/LUFA/Drivers/USB/Core/AVR8/Template/Template_Endpoint_Control_W.c **** 				BytesInEndpoint++;
 3197               		.loc 4 66 0
 3198 006c 0196      		adiw r24,1
 3199               	.LVL294:
 3200               	.L294:
  61:../../../../tmk_core/protocol/lufa/LUFA-git/LUFA/Drivers/USB/Core/AVR8/Template/Template_Endpoint_Control_W.c **** 			while (Length && (BytesInEndpoint < USB_Device_ControlEndpointSize))
 3201               		.loc 4 61 0 discriminator 1
 3202 006e 6115      		cp r22,__zero_reg__
 3203 0070 7105      		cpc r23,__zero_reg__
 3204 0072 01F0      		breq .L295
  61:../../../../tmk_core/protocol/lufa/LUFA-git/LUFA/Drivers/USB/Core/AVR8/Template/Template_Endpoint_Control_W.c **** 			while (Length && (BytesInEndpoint < USB_Device_ControlEndpointSize))
 3205               		.loc 4 61 0 is_stmt 0 discriminator 2
 3206 0074 8830      		cpi r24,8
 3207 0076 9105      		cpc r25,__zero_reg__
 3208 0078 00F0      		brlo .L296
 3209               	.L295:
  69:../../../../tmk_core/protocol/lufa/LUFA-git/LUFA/Drivers/USB/Core/AVR8/Template/Template_Endpoint_Control_W.c **** 			LastPacketFull = (BytesInEndpoint == USB_Device_ControlEndpointSize);
 3210               		.loc 4 69 0 is_stmt 1
 3211 007a 21E0      		ldi r18,lo8(1)
 3212 007c 0897      		sbiw r24,8
 3213 007e 01F0      		breq .L297
 3214 0080 20E0      		ldi r18,0
 3215               	.L297:
 3216               	.LVL295:
 3217               	.LBB458:
 3218               	.LBB459:
 456:../../../../tmk_core/protocol/lufa/LUFA-git/LUFA/Drivers/USB/Core/AVR8/../AVR8/../AVR8/Endpoint_AVR8.h **** 					UEINTX &= ~((1 << TXINI) | (1 << FIFOCON));
 3219               		.loc 2 456 0
 3220 0082 8091 E800 		lds r24,232
 3221               	.LVL296:
 3222 0086 8E77      		andi r24,lo8(126)
 3223 0088 8093 E800 		sts 232,r24
 3224               	.LVL297:
 3225               	.L319:
 3226               	.LBE459:
 3227               	.LBE458:
 3228               	.LBE452:
 3229               	.LBE445:
  44:../../../../tmk_core/protocol/lufa/LUFA-git/LUFA/Drivers/USB/Core/AVR8/Template/Template_Endpoint_Control_W.c **** 	while (Length || LastPacketFull)
 3230               		.loc 4 44 0 discriminator 1
 3231 008c 6115      		cp r22,__zero_reg__
 3232 008e 7105      		cpc r23,__zero_reg__
 3233 0090 01F4      		brne .L298
  44:../../../../tmk_core/protocol/lufa/LUFA-git/LUFA/Drivers/USB/Core/AVR8/Template/Template_Endpoint_Control_W.c **** 	while (Length || LastPacketFull)
 3234               		.loc 4 44 0 is_stmt 0 discriminator 2
 3235 0092 2111      		cpse r18,__zero_reg__
 3236 0094 00C0      		rjmp .L298
 3237 0096 00C0      		rjmp .L314
 3238               	.L299:
 3239               	.LBB460:
  76:../../../../tmk_core/protocol/lufa/LUFA-git/LUFA/Drivers/USB/Core/AVR8/Template/Template_Endpoint_Control_W.c **** 		uint8_t USB_DeviceState_LCL = USB_DeviceState;
 3240               		.loc 4 76 0 is_stmt 1
 3241 0098 8091 0000 		lds r24,USB_DeviceState
 3242               	.LVL298:
  78:../../../../tmk_core/protocol/lufa/LUFA-git/LUFA/Drivers/USB/Core/AVR8/Template/Template_Endpoint_Control_W.c **** 		if (USB_DeviceState_LCL == DEVICE_STATE_Unattached)
 3243               		.loc 4 78 0
 3244 009c 8823      		tst r24
 3245 009e 01F0      		breq .L304
  80:../../../../tmk_core/protocol/lufa/LUFA-git/LUFA/Drivers/USB/Core/AVR8/Template/Template_Endpoint_Control_W.c **** 		else if (USB_DeviceState_LCL == DEVICE_STATE_Suspended)
 3246               		.loc 4 80 0
 3247 00a0 8530      		cpi r24,lo8(5)
 3248 00a2 01F0      		breq .L305
 3249               	.LBB461:
 3250               	.LBB462:
 431:../../../../tmk_core/protocol/lufa/LUFA-git/LUFA/Drivers/USB/Core/AVR8/../AVR8/../AVR8/Endpoint_AVR8.h **** 				return ((UEINTX & (1 << RXSTPI)) ? true : false);
 3251               		.loc 2 431 0
 3252 00a4 8091 E800 		lds r24,232
 3253               	.LVL299:
 3254               	.LBE462:
 3255               	.LBE461:
  82:../../../../tmk_core/protocol/lufa/LUFA-git/LUFA/Drivers/USB/Core/AVR8/Template/Template_Endpoint_Control_W.c **** 		else if (Endpoint_IsSETUPReceived())
 3256               		.loc 4 82 0
 3257 00a8 83FD      		sbrc r24,3
 3258 00aa 00C0      		rjmp .L306
 3259               	.L314:
 3260               	.LBE460:
 3261               	.LBB463:
 3262               	.LBB464:
 419:../../../../tmk_core/protocol/lufa/LUFA-git/LUFA/Drivers/USB/Core/AVR8/../AVR8/../AVR8/Endpoint_AVR8.h **** 				return ((UEINTX & (1 << RXOUTI)) ? true : false);
 3263               		.loc 2 419 0 discriminator 1
 3264 00ac 8091 E800 		lds r24,232
 3265               	.LBE464:
 3266               	.LBE463:
  74:../../../../tmk_core/protocol/lufa/LUFA-git/LUFA/Drivers/USB/Core/AVR8/Template/Template_Endpoint_Control_W.c **** 	while (!(Endpoint_IsOUTReceived()))
 3267               		.loc 4 74 0 discriminator 1
 3268 00b0 82FF      		sbrs r24,2
 3269 00b2 00C0      		rjmp .L299
  86:../../../../tmk_core/protocol/lufa/LUFA-git/LUFA/Drivers/USB/Core/AVR8/Template/Template_Endpoint_Control_W.c **** 	return ENDPOINT_RWCSTREAM_NoError;
 3270               		.loc 4 86 0
 3271 00b4 80E0      		ldi r24,0
 3272 00b6 0895      		ret
 3273               	.L304:
 3274               	.LBB465:
  49:../../../../tmk_core/protocol/lufa/LUFA-git/LUFA/Drivers/USB/Core/AVR8/Template/Template_Endpoint_Control_W.c **** 		  return ENDPOINT_RWCSTREAM_DeviceDisconnected;
 3275               		.loc 4 49 0
 3276 00b8 82E0      		ldi r24,lo8(2)
 3277 00ba 0895      		ret
 3278               	.L305:
  51:../../../../tmk_core/protocol/lufa/LUFA-git/LUFA/Drivers/USB/Core/AVR8/Template/Template_Endpoint_Control_W.c **** 		  return ENDPOINT_RWCSTREAM_BusSuspended;
 3279               		.loc 4 51 0
 3280 00bc 83E0      		ldi r24,lo8(3)
 3281 00be 0895      		ret
 3282               	.L306:
  53:../../../../tmk_core/protocol/lufa/LUFA-git/LUFA/Drivers/USB/Core/AVR8/Template/Template_Endpoint_Control_W.c **** 		  return ENDPOINT_RWCSTREAM_HostAborted;
 3283               		.loc 4 53 0
 3284 00c0 81E0      		ldi r24,lo8(1)
 3285               	.LBE465:
 3286               		.loc 4 87 0
 3287 00c2 0895      		ret
 3288               		.cfi_endproc
 3289               	.LFE102:
 3291               		.section	.text.Endpoint_Write_Control_EStream_LE,"ax",@progbits
 3292               	.global	Endpoint_Write_Control_EStream_LE
 3294               	Endpoint_Write_Control_EStream_LE:
 3295               	.LFB103:
  35:../../../../tmk_core/protocol/lufa/LUFA-git/LUFA/Drivers/USB/Core/AVR8/Template/Template_Endpoint_Control_W.c **** {
 3296               		.loc 4 35 0
 3297               		.cfi_startproc
 3298               	.LVL300:
 3299 0000 AF92      		push r10
 3300               	.LCFI104:
 3301               		.cfi_def_cfa_offset 3
 3302               		.cfi_offset 10, -2
 3303 0002 BF92      		push r11
 3304               	.LCFI105:
 3305               		.cfi_def_cfa_offset 4
 3306               		.cfi_offset 11, -3
 3307 0004 CF92      		push r12
 3308               	.LCFI106:
 3309               		.cfi_def_cfa_offset 5
 3310               		.cfi_offset 12, -4
 3311 0006 DF92      		push r13
 3312               	.LCFI107:
 3313               		.cfi_def_cfa_offset 6
 3314               		.cfi_offset 13, -5
 3315 0008 EF92      		push r14
 3316               	.LCFI108:
 3317               		.cfi_def_cfa_offset 7
 3318               		.cfi_offset 14, -6
 3319 000a FF92      		push r15
 3320               	.LCFI109:
 3321               		.cfi_def_cfa_offset 8
 3322               		.cfi_offset 15, -7
 3323               	/* prologue: function */
 3324               	/* frame size = 0 */
 3325               	/* stack size = 6 */
 3326               	.L__stack_usage = 6
 3327 000c 7B01      		movw r14,r22
 3328               	.LVL301:
  39:../../../../tmk_core/protocol/lufa/LUFA-git/LUFA/Drivers/USB/Core/AVR8/Template/Template_Endpoint_Control_W.c **** 	if (Length > USB_ControlRequest.wLength)
 3329               		.loc 4 39 0
 3330 000e 2091 0000 		lds r18,USB_ControlRequest+6
 3331 0012 3091 0000 		lds r19,USB_ControlRequest+6+1
 3332 0016 2617      		cp r18,r22
 3333 0018 3707      		cpc r19,r23
 3334 001a 00F0      		brlo .L332
  41:../../../../tmk_core/protocol/lufa/LUFA-git/LUFA/Drivers/USB/Core/AVR8/Template/Template_Endpoint_Control_W.c **** 	else if (!(Length))
 3335               		.loc 4 41 0
 3336 001c 6115      		cp r22,__zero_reg__
 3337 001e 7105      		cpc r23,__zero_reg__
 3338 0020 01F4      		brne .L321
 3339               	.LBB466:
 3340               	.LBB467:
 456:../../../../tmk_core/protocol/lufa/LUFA-git/LUFA/Drivers/USB/Core/AVR8/../AVR8/../AVR8/Endpoint_AVR8.h **** 					UEINTX &= ~((1 << TXINI) | (1 << FIFOCON));
 3341               		.loc 2 456 0
 3342 0022 2091 E800 		lds r18,232
 3343 0026 2E77      		andi r18,lo8(126)
 3344 0028 2093 E800 		sts 232,r18
 3345 002c 00C0      		rjmp .L321
 3346               	.L332:
 3347               	.LBE467:
 3348               	.LBE466:
  39:../../../../tmk_core/protocol/lufa/LUFA-git/LUFA/Drivers/USB/Core/AVR8/Template/Template_Endpoint_Control_W.c **** 	if (Length > USB_ControlRequest.wLength)
 3349               		.loc 4 39 0
 3350 002e 7901      		movw r14,r18
 3351               	.L321:
 3352               	.LBB468:
 3353               	.LBB469:
  59:../../../../tmk_core/protocol/lufa/LUFA-git/LUFA/Drivers/USB/Core/AVR8/Template/Template_Endpoint_Control_W.c **** 			uint16_t BytesInEndpoint = Endpoint_BytesInEndpoint();
 3354               		.loc 4 59 0 discriminator 1
 3355 0030 9C01      		movw r18,r24
 3356 0032 80E0      		ldi r24,0
 3357               	.LVL302:
 3358 0034 00C0      		rjmp .L351
 3359               	.LVL303:
 3360               	.L330:
 3361               	.LBE469:
  46:../../../../tmk_core/protocol/lufa/LUFA-git/LUFA/Drivers/USB/Core/AVR8/Template/Template_Endpoint_Control_W.c **** 		uint8_t USB_DeviceState_LCL = USB_DeviceState;
 3362               		.loc 4 46 0
 3363 0036 9091 0000 		lds r25,USB_DeviceState
 3364               	.LVL304:
  48:../../../../tmk_core/protocol/lufa/LUFA-git/LUFA/Drivers/USB/Core/AVR8/Template/Template_Endpoint_Control_W.c **** 		if (USB_DeviceState_LCL == DEVICE_STATE_Unattached)
 3365               		.loc 4 48 0
 3366 003a 9923      		tst r25
 3367 003c 01F4      		brne .+2
 3368 003e 00C0      		rjmp .L336
  50:../../../../tmk_core/protocol/lufa/LUFA-git/LUFA/Drivers/USB/Core/AVR8/Template/Template_Endpoint_Control_W.c **** 		else if (USB_DeviceState_LCL == DEVICE_STATE_Suspended)
 3369               		.loc 4 50 0
 3370 0040 9530      		cpi r25,lo8(5)
 3371 0042 01F4      		brne .+2
 3372 0044 00C0      		rjmp .L337
 3373               	.LBB476:
 3374               	.LBB477:
 431:../../../../tmk_core/protocol/lufa/LUFA-git/LUFA/Drivers/USB/Core/AVR8/../AVR8/../AVR8/Endpoint_AVR8.h **** 				return ((UEINTX & (1 << RXSTPI)) ? true : false);
 3375               		.loc 2 431 0
 3376 0046 9091 E800 		lds r25,232
 3377               	.LVL305:
 3378               	.LBE477:
 3379               	.LBE476:
  52:../../../../tmk_core/protocol/lufa/LUFA-git/LUFA/Drivers/USB/Core/AVR8/Template/Template_Endpoint_Control_W.c **** 		else if (Endpoint_IsSETUPReceived())
 3380               		.loc 4 52 0
 3381 004a 93FD      		sbrc r25,3
 3382 004c 00C0      		rjmp .L338
 3383               	.LBB478:
 3384               	.LBB479:
 419:../../../../tmk_core/protocol/lufa/LUFA-git/LUFA/Drivers/USB/Core/AVR8/../AVR8/../AVR8/Endpoint_AVR8.h **** 				return ((UEINTX & (1 << RXOUTI)) ? true : false);
 3385               		.loc 2 419 0
 3386 004e 9091 E800 		lds r25,232
 3387               	.LBE479:
 3388               	.LBE478:
  54:../../../../tmk_core/protocol/lufa/LUFA-git/LUFA/Drivers/USB/Core/AVR8/Template/Template_Endpoint_Control_W.c **** 		else if (Endpoint_IsOUTReceived())
 3389               		.loc 4 54 0
 3390 0052 92FD      		sbrc r25,2
 3391 0054 00C0      		rjmp .L346
 3392               	.LBB480:
 3393               	.LBB481:
 407:../../../../tmk_core/protocol/lufa/LUFA-git/LUFA/Drivers/USB/Core/AVR8/../AVR8/../AVR8/Endpoint_AVR8.h **** 				return ((UEINTX & (1 << TXINI)) ? true : false);
 3394               		.loc 2 407 0
 3395 0056 9091 E800 		lds r25,232
 3396               	.LBE481:
 3397               	.LBE480:
  57:../../../../tmk_core/protocol/lufa/LUFA-git/LUFA/Drivers/USB/Core/AVR8/Template/Template_Endpoint_Control_W.c **** 		if (Endpoint_IsINReady())
 3398               		.loc 4 57 0
 3399 005a 90FF      		sbrs r25,0
 3400 005c 00C0      		rjmp .L351
 3401               	.LBB482:
 3402               	.LBB470:
 3403               	.LBB471:
 225:../../../../tmk_core/protocol/lufa/LUFA-git/LUFA/Drivers/USB/Core/AVR8/../AVR8/../AVR8/Endpoint_AVR8.h **** 					return UEBCX;
 3404               		.loc 2 225 0
 3405 005e C090 F200 		lds r12,242
 3406 0062 D090 F300 		lds r13,242+1
 3407               	.LBE471:
 3408               	.LBE470:
  33:../../../../tmk_core/protocol/lufa/LUFA-git/LUFA/Drivers/USB/Core/AVR8/Template/Template_Endpoint_Control_W.c **** uint8_t TEMPLATE_FUNC_NAME (const void* const Buffer,
 3409               		.loc 4 33 0
 3410 0066 5901      		movw r10,r18
 3411 0068 AC18      		sub r10,r12
 3412 006a BD08      		sbc r11,r13
  61:../../../../tmk_core/protocol/lufa/LUFA-git/LUFA/Drivers/USB/Core/AVR8/Template/Template_Endpoint_Control_W.c **** 			while (Length && (BytesInEndpoint < USB_Device_ControlEndpointSize))
 3413               		.loc 4 61 0
 3414 006c 00C0      		rjmp .L326
 3415               	.LVL306:
 3416               	.L328:
  63:../../../../tmk_core/protocol/lufa/LUFA-git/LUFA/Drivers/USB/Core/AVR8/Template/Template_Endpoint_Control_W.c **** 				TEMPLATE_TRANSFER_BYTE(DataStream);
 3417               		.loc 4 63 0
 3418 006e CA01      		movw r24,r20
 3419 0070 0E94 0000 		call __eerd_byte_usb1286
 3420               	.LVL307:
 3421               	.LBB472:
 3422               	.LBB473:
 554:../../../../tmk_core/protocol/lufa/LUFA-git/LUFA/Drivers/USB/Core/AVR8/../AVR8/../AVR8/Endpoint_AVR8.h **** 				UEDATX = Data;
 3423               		.loc 2 554 0
 3424 0074 8093 F100 		sts 241,r24
 3425               	.LBE473:
 3426               	.LBE472:
  65:../../../../tmk_core/protocol/lufa/LUFA-git/LUFA/Drivers/USB/Core/AVR8/Template/Template_Endpoint_Control_W.c **** 				Length--;
 3427               		.loc 4 65 0
 3428 0078 81E0      		ldi r24,1
 3429 007a E81A      		sub r14,r24
 3430 007c F108      		sbc r15,__zero_reg__
 3431               	.LVL308:
  66:../../../../tmk_core/protocol/lufa/LUFA-git/LUFA/Drivers/USB/Core/AVR8/Template/Template_Endpoint_Control_W.c **** 				BytesInEndpoint++;
 3432               		.loc 4 66 0
 3433 007e 9FEF      		ldi r25,-1
 3434 0080 C91A      		sub r12,r25
 3435 0082 D90A      		sbc r13,r25
 3436               	.LVL309:
 3437               	.L326:
  33:../../../../tmk_core/protocol/lufa/LUFA-git/LUFA/Drivers/USB/Core/AVR8/Template/Template_Endpoint_Control_W.c **** uint8_t TEMPLATE_FUNC_NAME (const void* const Buffer,
 3438               		.loc 4 33 0 discriminator 1
 3439 0084 A501      		movw r20,r10
 3440 0086 4C0D      		add r20,r12
 3441 0088 5D1D      		adc r21,r13
 3442 008a 742F      		mov r23,r20
 3443 008c 652F      		mov r22,r21
 3444               	.LVL310:
  61:../../../../tmk_core/protocol/lufa/LUFA-git/LUFA/Drivers/USB/Core/AVR8/Template/Template_Endpoint_Control_W.c **** 			while (Length && (BytesInEndpoint < USB_Device_ControlEndpointSize))
 3445               		.loc 4 61 0 discriminator 1
 3446 008e E114      		cp r14,__zero_reg__
 3447 0090 F104      		cpc r15,__zero_reg__
 3448 0092 01F0      		breq .L327
  61:../../../../tmk_core/protocol/lufa/LUFA-git/LUFA/Drivers/USB/Core/AVR8/Template/Template_Endpoint_Control_W.c **** 			while (Length && (BytesInEndpoint < USB_Device_ControlEndpointSize))
 3449               		.loc 4 61 0 is_stmt 0 discriminator 2
 3450 0094 88E0      		ldi r24,8
 3451 0096 C816      		cp r12,r24
 3452 0098 D104      		cpc r13,__zero_reg__
 3453 009a 00F0      		brlo .L328
 3454               	.L327:
  69:../../../../tmk_core/protocol/lufa/LUFA-git/LUFA/Drivers/USB/Core/AVR8/Template/Template_Endpoint_Control_W.c **** 			LastPacketFull = (BytesInEndpoint == USB_Device_ControlEndpointSize);
 3455               		.loc 4 69 0 is_stmt 1
 3456 009c 81E0      		ldi r24,lo8(1)
 3457 009e 98E0      		ldi r25,8
 3458 00a0 C916      		cp r12,r25
 3459 00a2 D104      		cpc r13,__zero_reg__
 3460 00a4 01F0      		breq .L329
 3461 00a6 80E0      		ldi r24,0
 3462               	.L329:
 3463               	.LVL311:
 3464               	.LBB474:
 3465               	.LBB475:
 456:../../../../tmk_core/protocol/lufa/LUFA-git/LUFA/Drivers/USB/Core/AVR8/../AVR8/../AVR8/Endpoint_AVR8.h **** 					UEINTX &= ~((1 << TXINI) | (1 << FIFOCON));
 3466               		.loc 2 456 0
 3467 00a8 9091 E800 		lds r25,232
 3468 00ac 9E77      		andi r25,lo8(126)
 3469 00ae 9093 E800 		sts 232,r25
 3470 00b2 272F      		mov r18,r23
 3471 00b4 362F      		mov r19,r22
 3472               	.LVL312:
 3473               	.L351:
 3474               	.LBE475:
 3475               	.LBE474:
 3476               	.LBE482:
 3477               	.LBE468:
  44:../../../../tmk_core/protocol/lufa/LUFA-git/LUFA/Drivers/USB/Core/AVR8/Template/Template_Endpoint_Control_W.c **** 	while (Length || LastPacketFull)
 3478               		.loc 4 44 0 discriminator 1
 3479 00b6 E114      		cp r14,__zero_reg__
 3480 00b8 F104      		cpc r15,__zero_reg__
 3481 00ba 01F0      		breq .+2
 3482 00bc 00C0      		rjmp .L330
  44:../../../../tmk_core/protocol/lufa/LUFA-git/LUFA/Drivers/USB/Core/AVR8/Template/Template_Endpoint_Control_W.c **** 	while (Length || LastPacketFull)
 3483               		.loc 4 44 0 is_stmt 0 discriminator 2
 3484 00be 8111      		cpse r24,__zero_reg__
 3485 00c0 00C0      		rjmp .L330
 3486 00c2 00C0      		rjmp .L346
 3487               	.LVL313:
 3488               	.L331:
 3489               	.LBB483:
  76:../../../../tmk_core/protocol/lufa/LUFA-git/LUFA/Drivers/USB/Core/AVR8/Template/Template_Endpoint_Control_W.c **** 		uint8_t USB_DeviceState_LCL = USB_DeviceState;
 3490               		.loc 4 76 0 is_stmt 1
 3491 00c4 8091 0000 		lds r24,USB_DeviceState
 3492               	.LVL314:
  78:../../../../tmk_core/protocol/lufa/LUFA-git/LUFA/Drivers/USB/Core/AVR8/Template/Template_Endpoint_Control_W.c **** 		if (USB_DeviceState_LCL == DEVICE_STATE_Unattached)
 3493               		.loc 4 78 0
 3494 00c8 8823      		tst r24
 3495 00ca 01F0      		breq .L336
  80:../../../../tmk_core/protocol/lufa/LUFA-git/LUFA/Drivers/USB/Core/AVR8/Template/Template_Endpoint_Control_W.c **** 		else if (USB_DeviceState_LCL == DEVICE_STATE_Suspended)
 3496               		.loc 4 80 0
 3497 00cc 8530      		cpi r24,lo8(5)
 3498 00ce 01F0      		breq .L337
 3499               	.LBB484:
 3500               	.LBB485:
 431:../../../../tmk_core/protocol/lufa/LUFA-git/LUFA/Drivers/USB/Core/AVR8/../AVR8/../AVR8/Endpoint_AVR8.h **** 				return ((UEINTX & (1 << RXSTPI)) ? true : false);
 3501               		.loc 2 431 0
 3502 00d0 8091 E800 		lds r24,232
 3503               	.LVL315:
 3504               	.LBE485:
 3505               	.LBE484:
  82:../../../../tmk_core/protocol/lufa/LUFA-git/LUFA/Drivers/USB/Core/AVR8/Template/Template_Endpoint_Control_W.c **** 		else if (Endpoint_IsSETUPReceived())
 3506               		.loc 4 82 0
 3507 00d4 83FD      		sbrc r24,3
 3508 00d6 00C0      		rjmp .L338
 3509               	.L346:
 3510               	.LBE483:
 3511               	.LBB486:
 3512               	.LBB487:
 419:../../../../tmk_core/protocol/lufa/LUFA-git/LUFA/Drivers/USB/Core/AVR8/../AVR8/../AVR8/Endpoint_AVR8.h **** 				return ((UEINTX & (1 << RXOUTI)) ? true : false);
 3513               		.loc 2 419 0 discriminator 1
 3514 00d8 8091 E800 		lds r24,232
 3515               	.LBE487:
 3516               	.LBE486:
  74:../../../../tmk_core/protocol/lufa/LUFA-git/LUFA/Drivers/USB/Core/AVR8/Template/Template_Endpoint_Control_W.c **** 	while (!(Endpoint_IsOUTReceived()))
 3517               		.loc 4 74 0 discriminator 1
 3518 00dc 82FF      		sbrs r24,2
 3519 00de 00C0      		rjmp .L331
  86:../../../../tmk_core/protocol/lufa/LUFA-git/LUFA/Drivers/USB/Core/AVR8/Template/Template_Endpoint_Control_W.c **** 	return ENDPOINT_RWCSTREAM_NoError;
 3520               		.loc 4 86 0
 3521 00e0 80E0      		ldi r24,0
 3522 00e2 00C0      		rjmp .L323
 3523               	.L336:
 3524               	.LBB488:
  49:../../../../tmk_core/protocol/lufa/LUFA-git/LUFA/Drivers/USB/Core/AVR8/Template/Template_Endpoint_Control_W.c **** 		  return ENDPOINT_RWCSTREAM_DeviceDisconnected;
 3525               		.loc 4 49 0
 3526 00e4 82E0      		ldi r24,lo8(2)
 3527 00e6 00C0      		rjmp .L323
 3528               	.L337:
  51:../../../../tmk_core/protocol/lufa/LUFA-git/LUFA/Drivers/USB/Core/AVR8/Template/Template_Endpoint_Control_W.c **** 		  return ENDPOINT_RWCSTREAM_BusSuspended;
 3529               		.loc 4 51 0
 3530 00e8 83E0      		ldi r24,lo8(3)
 3531 00ea 00C0      		rjmp .L323
 3532               	.L338:
  53:../../../../tmk_core/protocol/lufa/LUFA-git/LUFA/Drivers/USB/Core/AVR8/Template/Template_Endpoint_Control_W.c **** 		  return ENDPOINT_RWCSTREAM_HostAborted;
 3533               		.loc 4 53 0
 3534 00ec 81E0      		ldi r24,lo8(1)
 3535               	.L323:
 3536               	/* epilogue start */
 3537               	.LBE488:
 3538               		.loc 4 87 0
 3539 00ee FF90      		pop r15
 3540 00f0 EF90      		pop r14
 3541               	.LVL316:
 3542 00f2 DF90      		pop r13
 3543 00f4 CF90      		pop r12
 3544 00f6 BF90      		pop r11
 3545 00f8 AF90      		pop r10
 3546 00fa 0895      		ret
 3547               		.cfi_endproc
 3548               	.LFE103:
 3550               		.section	.text.Endpoint_Write_Control_EStream_BE,"ax",@progbits
 3551               	.global	Endpoint_Write_Control_EStream_BE
 3553               	Endpoint_Write_Control_EStream_BE:
 3554               	.LFB104:
  35:../../../../tmk_core/protocol/lufa/LUFA-git/LUFA/Drivers/USB/Core/AVR8/Template/Template_Endpoint_Control_W.c **** {
 3555               		.loc 4 35 0
 3556               		.cfi_startproc
 3557               	.LVL317:
 3558 0000 AF92      		push r10
 3559               	.LCFI110:
 3560               		.cfi_def_cfa_offset 3
 3561               		.cfi_offset 10, -2
 3562 0002 BF92      		push r11
 3563               	.LCFI111:
 3564               		.cfi_def_cfa_offset 4
 3565               		.cfi_offset 11, -3
 3566 0004 CF92      		push r12
 3567               	.LCFI112:
 3568               		.cfi_def_cfa_offset 5
 3569               		.cfi_offset 12, -4
 3570 0006 DF92      		push r13
 3571               	.LCFI113:
 3572               		.cfi_def_cfa_offset 6
 3573               		.cfi_offset 13, -5
 3574 0008 EF92      		push r14
 3575               	.LCFI114:
 3576               		.cfi_def_cfa_offset 7
 3577               		.cfi_offset 14, -6
 3578 000a FF92      		push r15
 3579               	.LCFI115:
 3580               		.cfi_def_cfa_offset 8
 3581               		.cfi_offset 15, -7
 3582               	/* prologue: function */
 3583               	/* frame size = 0 */
 3584               	/* stack size = 6 */
 3585               	.L__stack_usage = 6
  36:../../../../tmk_core/protocol/lufa/LUFA-git/LUFA/Drivers/USB/Core/AVR8/Template/Template_Endpoint_Control_W.c **** 	uint8_t* DataStream     = ((uint8_t*)Buffer + TEMPLATE_BUFFER_OFFSET(Length));
 3586               		.loc 4 36 0
 3587 000c 9B01      		movw r18,r22
 3588 000e 2150      		subi r18,1
 3589 0010 3109      		sbc r19,__zero_reg__
 3590 0012 280F      		add r18,r24
 3591 0014 391F      		adc r19,r25
 3592               	.LVL318:
  39:../../../../tmk_core/protocol/lufa/LUFA-git/LUFA/Drivers/USB/Core/AVR8/Template/Template_Endpoint_Control_W.c **** 	if (Length > USB_ControlRequest.wLength)
 3593               		.loc 4 39 0
 3594 0016 8091 0000 		lds r24,USB_ControlRequest+6
 3595 001a 9091 0000 		lds r25,USB_ControlRequest+6+1
 3596               	.LVL319:
 3597 001e 8617      		cp r24,r22
 3598 0020 9707      		cpc r25,r23
 3599 0022 00F0      		brlo .L364
  41:../../../../tmk_core/protocol/lufa/LUFA-git/LUFA/Drivers/USB/Core/AVR8/Template/Template_Endpoint_Control_W.c **** 	else if (!(Length))
 3600               		.loc 4 41 0
 3601 0024 6115      		cp r22,__zero_reg__
 3602 0026 7105      		cpc r23,__zero_reg__
 3603 0028 01F4      		brne .L353
 3604               	.LBB489:
 3605               	.LBB490:
 456:../../../../tmk_core/protocol/lufa/LUFA-git/LUFA/Drivers/USB/Core/AVR8/../AVR8/../AVR8/Endpoint_AVR8.h **** 					UEINTX &= ~((1 << TXINI) | (1 << FIFOCON));
 3606               		.loc 2 456 0
 3607 002a 8091 E800 		lds r24,232
 3608 002e 8E77      		andi r24,lo8(126)
 3609 0030 8093 E800 		sts 232,r24
 3610 0034 00C0      		rjmp .L353
 3611               	.L364:
 3612               	.LBE490:
 3613               	.LBE489:
  39:../../../../tmk_core/protocol/lufa/LUFA-git/LUFA/Drivers/USB/Core/AVR8/Template/Template_Endpoint_Control_W.c **** 	if (Length > USB_ControlRequest.wLength)
 3614               		.loc 4 39 0
 3615 0036 BC01      		movw r22,r24
 3616               	.LVL320:
 3617               	.L353:
 3618               	.LBB491:
 3619               	.LBB492:
  61:../../../../tmk_core/protocol/lufa/LUFA-git/LUFA/Drivers/USB/Core/AVR8/Template/Template_Endpoint_Control_W.c **** 			while (Length && (BytesInEndpoint < USB_Device_ControlEndpointSize))
 3620               		.loc 4 61 0 discriminator 1
 3621 0038 80E0      		ldi r24,0
 3622 003a 00C0      		rjmp .L383
 3623               	.LVL321:
 3624               	.L362:
 3625               	.LBE492:
  46:../../../../tmk_core/protocol/lufa/LUFA-git/LUFA/Drivers/USB/Core/AVR8/Template/Template_Endpoint_Control_W.c **** 		uint8_t USB_DeviceState_LCL = USB_DeviceState;
 3626               		.loc 4 46 0
 3627 003c 9091 0000 		lds r25,USB_DeviceState
 3628               	.LVL322:
  48:../../../../tmk_core/protocol/lufa/LUFA-git/LUFA/Drivers/USB/Core/AVR8/Template/Template_Endpoint_Control_W.c **** 		if (USB_DeviceState_LCL == DEVICE_STATE_Unattached)
 3629               		.loc 4 48 0
 3630 0040 9923      		tst r25
 3631 0042 01F4      		brne .+2
 3632 0044 00C0      		rjmp .L368
  50:../../../../tmk_core/protocol/lufa/LUFA-git/LUFA/Drivers/USB/Core/AVR8/Template/Template_Endpoint_Control_W.c **** 		else if (USB_DeviceState_LCL == DEVICE_STATE_Suspended)
 3633               		.loc 4 50 0
 3634 0046 9530      		cpi r25,lo8(5)
 3635 0048 01F4      		brne .+2
 3636 004a 00C0      		rjmp .L369
 3637               	.LBB499:
 3638               	.LBB500:
 431:../../../../tmk_core/protocol/lufa/LUFA-git/LUFA/Drivers/USB/Core/AVR8/../AVR8/../AVR8/Endpoint_AVR8.h **** 				return ((UEINTX & (1 << RXSTPI)) ? true : false);
 3639               		.loc 2 431 0
 3640 004c 9091 E800 		lds r25,232
 3641               	.LVL323:
 3642               	.LBE500:
 3643               	.LBE499:
  52:../../../../tmk_core/protocol/lufa/LUFA-git/LUFA/Drivers/USB/Core/AVR8/Template/Template_Endpoint_Control_W.c **** 		else if (Endpoint_IsSETUPReceived())
 3644               		.loc 4 52 0
 3645 0050 93FD      		sbrc r25,3
 3646 0052 00C0      		rjmp .L370
 3647               	.LBB501:
 3648               	.LBB502:
 419:../../../../tmk_core/protocol/lufa/LUFA-git/LUFA/Drivers/USB/Core/AVR8/../AVR8/../AVR8/Endpoint_AVR8.h **** 				return ((UEINTX & (1 << RXOUTI)) ? true : false);
 3649               		.loc 2 419 0
 3650 0054 9091 E800 		lds r25,232
 3651               	.LBE502:
 3652               	.LBE501:
  54:../../../../tmk_core/protocol/lufa/LUFA-git/LUFA/Drivers/USB/Core/AVR8/Template/Template_Endpoint_Control_W.c **** 		else if (Endpoint_IsOUTReceived())
 3653               		.loc 4 54 0
 3654 0058 92FD      		sbrc r25,2
 3655 005a 00C0      		rjmp .L378
 3656               	.LBB503:
 3657               	.LBB504:
 407:../../../../tmk_core/protocol/lufa/LUFA-git/LUFA/Drivers/USB/Core/AVR8/../AVR8/../AVR8/Endpoint_AVR8.h **** 				return ((UEINTX & (1 << TXINI)) ? true : false);
 3658               		.loc 2 407 0
 3659 005c 9091 E800 		lds r25,232
 3660               	.LBE504:
 3661               	.LBE503:
  57:../../../../tmk_core/protocol/lufa/LUFA-git/LUFA/Drivers/USB/Core/AVR8/Template/Template_Endpoint_Control_W.c **** 		if (Endpoint_IsINReady())
 3662               		.loc 4 57 0
 3663 0060 90FF      		sbrs r25,0
 3664 0062 00C0      		rjmp .L383
 3665               	.LBB505:
 3666               	.LBB493:
 3667               	.LBB494:
 225:../../../../tmk_core/protocol/lufa/LUFA-git/LUFA/Drivers/USB/Core/AVR8/../AVR8/../AVR8/Endpoint_AVR8.h **** 					return UEBCX;
 3668               		.loc 2 225 0
 3669 0064 C090 F200 		lds r12,242
 3670 0068 D090 F300 		lds r13,242+1
 3671               	.LBE494:
 3672               	.LBE493:
  61:../../../../tmk_core/protocol/lufa/LUFA-git/LUFA/Drivers/USB/Core/AVR8/Template/Template_Endpoint_Control_W.c **** 			while (Length && (BytesInEndpoint < USB_Device_ControlEndpointSize))
 3673               		.loc 4 61 0
 3674 006c 7B01      		movw r14,r22
  33:../../../../tmk_core/protocol/lufa/LUFA-git/LUFA/Drivers/USB/Core/AVR8/Template/Template_Endpoint_Control_W.c **** uint8_t TEMPLATE_FUNC_NAME (const void* const Buffer,
 3675               		.loc 4 33 0
 3676 006e 5901      		movw r10,r18
 3677 0070 A61A      		sub r10,r22
 3678 0072 B70A      		sbc r11,r23
  61:../../../../tmk_core/protocol/lufa/LUFA-git/LUFA/Drivers/USB/Core/AVR8/Template/Template_Endpoint_Control_W.c **** 			while (Length && (BytesInEndpoint < USB_Device_ControlEndpointSize))
 3679               		.loc 4 61 0
 3680 0074 00C0      		rjmp .L358
 3681               	.LVL324:
 3682               	.L360:
  63:../../../../tmk_core/protocol/lufa/LUFA-git/LUFA/Drivers/USB/Core/AVR8/Template/Template_Endpoint_Control_W.c **** 				TEMPLATE_TRANSFER_BYTE(DataStream);
 3683               		.loc 4 63 0
 3684 0076 CA01      		movw r24,r20
 3685 0078 0E94 0000 		call __eerd_byte_usb1286
 3686               	.LVL325:
 3687               	.LBB495:
 3688               	.LBB496:
 554:../../../../tmk_core/protocol/lufa/LUFA-git/LUFA/Drivers/USB/Core/AVR8/../AVR8/../AVR8/Endpoint_AVR8.h **** 				UEDATX = Data;
 3689               		.loc 2 554 0
 3690 007c 8093 F100 		sts 241,r24
 3691               	.LBE496:
 3692               	.LBE495:
  65:../../../../tmk_core/protocol/lufa/LUFA-git/LUFA/Drivers/USB/Core/AVR8/Template/Template_Endpoint_Control_W.c **** 				Length--;
 3693               		.loc 4 65 0
 3694 0080 81E0      		ldi r24,1
 3695 0082 E81A      		sub r14,r24
 3696 0084 F108      		sbc r15,__zero_reg__
 3697               	.LVL326:
  66:../../../../tmk_core/protocol/lufa/LUFA-git/LUFA/Drivers/USB/Core/AVR8/Template/Template_Endpoint_Control_W.c **** 				BytesInEndpoint++;
 3698               		.loc 4 66 0
 3699 0086 9FEF      		ldi r25,-1
 3700 0088 C91A      		sub r12,r25
 3701 008a D90A      		sbc r13,r25
 3702               	.LVL327:
 3703               	.L358:
  33:../../../../tmk_core/protocol/lufa/LUFA-git/LUFA/Drivers/USB/Core/AVR8/Template/Template_Endpoint_Control_W.c **** uint8_t TEMPLATE_FUNC_NAME (const void* const Buffer,
 3704               		.loc 4 33 0 discriminator 1
 3705 008c A501      		movw r20,r10
 3706 008e 4E0D      		add r20,r14
 3707 0090 5F1D      		adc r21,r15
 3708 0092 742F      		mov r23,r20
 3709 0094 652F      		mov r22,r21
 3710               	.LVL328:
  61:../../../../tmk_core/protocol/lufa/LUFA-git/LUFA/Drivers/USB/Core/AVR8/Template/Template_Endpoint_Control_W.c **** 			while (Length && (BytesInEndpoint < USB_Device_ControlEndpointSize))
 3711               		.loc 4 61 0 discriminator 1
 3712 0096 E114      		cp r14,__zero_reg__
 3713 0098 F104      		cpc r15,__zero_reg__
 3714 009a 01F0      		breq .L359
  61:../../../../tmk_core/protocol/lufa/LUFA-git/LUFA/Drivers/USB/Core/AVR8/Template/Template_Endpoint_Control_W.c **** 			while (Length && (BytesInEndpoint < USB_Device_ControlEndpointSize))
 3715               		.loc 4 61 0 is_stmt 0 discriminator 2
 3716 009c 88E0      		ldi r24,8
 3717 009e C816      		cp r12,r24
 3718 00a0 D104      		cpc r13,__zero_reg__
 3719 00a2 00F0      		brlo .L360
 3720               	.L359:
  69:../../../../tmk_core/protocol/lufa/LUFA-git/LUFA/Drivers/USB/Core/AVR8/Template/Template_Endpoint_Control_W.c **** 			LastPacketFull = (BytesInEndpoint == USB_Device_ControlEndpointSize);
 3721               		.loc 4 69 0 is_stmt 1
 3722 00a4 81E0      		ldi r24,lo8(1)
 3723 00a6 98E0      		ldi r25,8
 3724 00a8 C916      		cp r12,r25
 3725 00aa D104      		cpc r13,__zero_reg__
 3726 00ac 01F0      		breq .L361
 3727 00ae 80E0      		ldi r24,0
 3728               	.L361:
 3729               	.LVL329:
 3730               	.LBB497:
 3731               	.LBB498:
 456:../../../../tmk_core/protocol/lufa/LUFA-git/LUFA/Drivers/USB/Core/AVR8/../AVR8/../AVR8/Endpoint_AVR8.h **** 					UEINTX &= ~((1 << TXINI) | (1 << FIFOCON));
 3732               		.loc 2 456 0
 3733 00b0 9091 E800 		lds r25,232
 3734 00b4 9E77      		andi r25,lo8(126)
 3735 00b6 9093 E800 		sts 232,r25
 3736 00ba 272F      		mov r18,r23
 3737 00bc 362F      		mov r19,r22
 3738 00be B701      		movw r22,r14
 3739               	.LVL330:
 3740               	.L383:
 3741               	.LBE498:
 3742               	.LBE497:
 3743               	.LBE505:
 3744               	.LBE491:
  44:../../../../tmk_core/protocol/lufa/LUFA-git/LUFA/Drivers/USB/Core/AVR8/Template/Template_Endpoint_Control_W.c **** 	while (Length || LastPacketFull)
 3745               		.loc 4 44 0 discriminator 1
 3746 00c0 6115      		cp r22,__zero_reg__
 3747 00c2 7105      		cpc r23,__zero_reg__
 3748 00c4 01F0      		breq .+2
 3749 00c6 00C0      		rjmp .L362
  44:../../../../tmk_core/protocol/lufa/LUFA-git/LUFA/Drivers/USB/Core/AVR8/Template/Template_Endpoint_Control_W.c **** 	while (Length || LastPacketFull)
 3750               		.loc 4 44 0 is_stmt 0 discriminator 2
 3751 00c8 8111      		cpse r24,__zero_reg__
 3752 00ca 00C0      		rjmp .L362
 3753 00cc 00C0      		rjmp .L378
 3754               	.LVL331:
 3755               	.L363:
 3756               	.LBB506:
  76:../../../../tmk_core/protocol/lufa/LUFA-git/LUFA/Drivers/USB/Core/AVR8/Template/Template_Endpoint_Control_W.c **** 		uint8_t USB_DeviceState_LCL = USB_DeviceState;
 3757               		.loc 4 76 0 is_stmt 1
 3758 00ce 8091 0000 		lds r24,USB_DeviceState
 3759               	.LVL332:
  78:../../../../tmk_core/protocol/lufa/LUFA-git/LUFA/Drivers/USB/Core/AVR8/Template/Template_Endpoint_Control_W.c **** 		if (USB_DeviceState_LCL == DEVICE_STATE_Unattached)
 3760               		.loc 4 78 0
 3761 00d2 8823      		tst r24
 3762 00d4 01F0      		breq .L368
  80:../../../../tmk_core/protocol/lufa/LUFA-git/LUFA/Drivers/USB/Core/AVR8/Template/Template_Endpoint_Control_W.c **** 		else if (USB_DeviceState_LCL == DEVICE_STATE_Suspended)
 3763               		.loc 4 80 0
 3764 00d6 8530      		cpi r24,lo8(5)
 3765 00d8 01F0      		breq .L369
 3766               	.LBB507:
 3767               	.LBB508:
 431:../../../../tmk_core/protocol/lufa/LUFA-git/LUFA/Drivers/USB/Core/AVR8/../AVR8/../AVR8/Endpoint_AVR8.h **** 				return ((UEINTX & (1 << RXSTPI)) ? true : false);
 3768               		.loc 2 431 0
 3769 00da 8091 E800 		lds r24,232
 3770               	.LVL333:
 3771               	.LBE508:
 3772               	.LBE507:
  82:../../../../tmk_core/protocol/lufa/LUFA-git/LUFA/Drivers/USB/Core/AVR8/Template/Template_Endpoint_Control_W.c **** 		else if (Endpoint_IsSETUPReceived())
 3773               		.loc 4 82 0
 3774 00de 83FD      		sbrc r24,3
 3775 00e0 00C0      		rjmp .L370
 3776               	.L378:
 3777               	.LBE506:
 3778               	.LBB509:
 3779               	.LBB510:
 419:../../../../tmk_core/protocol/lufa/LUFA-git/LUFA/Drivers/USB/Core/AVR8/../AVR8/../AVR8/Endpoint_AVR8.h **** 				return ((UEINTX & (1 << RXOUTI)) ? true : false);
 3780               		.loc 2 419 0 discriminator 1
 3781 00e2 8091 E800 		lds r24,232
 3782               	.LBE510:
 3783               	.LBE509:
  74:../../../../tmk_core/protocol/lufa/LUFA-git/LUFA/Drivers/USB/Core/AVR8/Template/Template_Endpoint_Control_W.c **** 	while (!(Endpoint_IsOUTReceived()))
 3784               		.loc 4 74 0 discriminator 1
 3785 00e6 82FF      		sbrs r24,2
 3786 00e8 00C0      		rjmp .L363
  86:../../../../tmk_core/protocol/lufa/LUFA-git/LUFA/Drivers/USB/Core/AVR8/Template/Template_Endpoint_Control_W.c **** 	return ENDPOINT_RWCSTREAM_NoError;
 3787               		.loc 4 86 0
 3788 00ea 80E0      		ldi r24,0
 3789 00ec 00C0      		rjmp .L355
 3790               	.L368:
 3791               	.LBB511:
  49:../../../../tmk_core/protocol/lufa/LUFA-git/LUFA/Drivers/USB/Core/AVR8/Template/Template_Endpoint_Control_W.c **** 		  return ENDPOINT_RWCSTREAM_DeviceDisconnected;
 3792               		.loc 4 49 0
 3793 00ee 82E0      		ldi r24,lo8(2)
 3794 00f0 00C0      		rjmp .L355
 3795               	.L369:
  51:../../../../tmk_core/protocol/lufa/LUFA-git/LUFA/Drivers/USB/Core/AVR8/Template/Template_Endpoint_Control_W.c **** 		  return ENDPOINT_RWCSTREAM_BusSuspended;
 3796               		.loc 4 51 0
 3797 00f2 83E0      		ldi r24,lo8(3)
 3798 00f4 00C0      		rjmp .L355
 3799               	.L370:
  53:../../../../tmk_core/protocol/lufa/LUFA-git/LUFA/Drivers/USB/Core/AVR8/Template/Template_Endpoint_Control_W.c **** 		  return ENDPOINT_RWCSTREAM_HostAborted;
 3800               		.loc 4 53 0
 3801 00f6 81E0      		ldi r24,lo8(1)
 3802               	.L355:
 3803               	/* epilogue start */
 3804               	.LBE511:
 3805               		.loc 4 87 0
 3806 00f8 FF90      		pop r15
 3807 00fa EF90      		pop r14
 3808 00fc DF90      		pop r13
 3809 00fe CF90      		pop r12
 3810 0100 BF90      		pop r11
 3811 0102 AF90      		pop r10
 3812 0104 0895      		ret
 3813               		.cfi_endproc
 3814               	.LFE104:
 3816               		.section	.text.Endpoint_Read_Control_EStream_LE,"ax",@progbits
 3817               	.global	Endpoint_Read_Control_EStream_LE
 3819               	Endpoint_Read_Control_EStream_LE:
 3820               	.LFB105:
  35:../../../../tmk_core/protocol/lufa/LUFA-git/LUFA/Drivers/USB/Core/AVR8/Template/Template_Endpoint_Control_R.c **** {
 3821               		.loc 5 35 0
 3822               		.cfi_startproc
 3823               	.LVL334:
 3824 0000 CF92      		push r12
 3825               	.LCFI116:
 3826               		.cfi_def_cfa_offset 3
 3827               		.cfi_offset 12, -2
 3828 0002 DF92      		push r13
 3829               	.LCFI117:
 3830               		.cfi_def_cfa_offset 4
 3831               		.cfi_offset 13, -3
 3832 0004 EF92      		push r14
 3833               	.LCFI118:
 3834               		.cfi_def_cfa_offset 5
 3835               		.cfi_offset 14, -4
 3836 0006 FF92      		push r15
 3837               	.LCFI119:
 3838               		.cfi_def_cfa_offset 6
 3839               		.cfi_offset 15, -5
 3840               	/* prologue: function */
 3841               	/* frame size = 0 */
 3842               	/* stack size = 4 */
 3843               	.L__stack_usage = 4
 3844 0008 7B01      		movw r14,r22
 3845               	.LVL335:
  38:../../../../tmk_core/protocol/lufa/LUFA-git/LUFA/Drivers/USB/Core/AVR8/Template/Template_Endpoint_Control_R.c **** 	if (!(Length))
 3846               		.loc 5 38 0
 3847 000a 6115      		cp r22,__zero_reg__
 3848 000c 7105      		cpc r23,__zero_reg__
 3849 000e 01F4      		brne .L385
 3850               	.LBB512:
 3851               	.LBB513:
 471:../../../../tmk_core/protocol/lufa/LUFA-git/LUFA/Drivers/USB/Core/AVR8/../AVR8/../AVR8/Endpoint_AVR8.h **** 					UEINTX &= ~((1 << RXOUTI) | (1 << FIFOCON));
 3852               		.loc 2 471 0
 3853 0010 2091 E800 		lds r18,232
 3854 0014 2B77      		andi r18,lo8(123)
 3855 0016 2093 E800 		sts 232,r18
 3856               	.L385:
 3857               	.LBE513:
 3858               	.LBE512:
  35:../../../../tmk_core/protocol/lufa/LUFA-git/LUFA/Drivers/USB/Core/AVR8/Template/Template_Endpoint_Control_R.c **** {
 3859               		.loc 5 35 0 discriminator 1
 3860 001a 6C01      		movw r12,r24
 3861 001c 00C0      		rjmp .L386
 3862               	.LVL336:
 3863               	.L403:
 3864               	.LBB514:
  43:../../../../tmk_core/protocol/lufa/LUFA-git/LUFA/Drivers/USB/Core/AVR8/Template/Template_Endpoint_Control_R.c **** 		uint8_t USB_DeviceState_LCL = USB_DeviceState;
 3865               		.loc 5 43 0
 3866 001e 8091 0000 		lds r24,USB_DeviceState
 3867               	.LVL337:
  45:../../../../tmk_core/protocol/lufa/LUFA-git/LUFA/Drivers/USB/Core/AVR8/Template/Template_Endpoint_Control_R.c **** 		if (USB_DeviceState_LCL == DEVICE_STATE_Unattached)
 3868               		.loc 5 45 0
 3869 0022 8823      		tst r24
 3870 0024 01F0      		breq .L398
  47:../../../../tmk_core/protocol/lufa/LUFA-git/LUFA/Drivers/USB/Core/AVR8/Template/Template_Endpoint_Control_R.c **** 		else if (USB_DeviceState_LCL == DEVICE_STATE_Suspended)
 3871               		.loc 5 47 0
 3872 0026 8530      		cpi r24,lo8(5)
 3873 0028 01F0      		breq .L395
 3874               	.LBB515:
 3875               	.LBB516:
 431:../../../../tmk_core/protocol/lufa/LUFA-git/LUFA/Drivers/USB/Core/AVR8/../AVR8/../AVR8/Endpoint_AVR8.h **** 				return ((UEINTX & (1 << RXSTPI)) ? true : false);
 3876               		.loc 2 431 0
 3877 002a 8091 E800 		lds r24,232
 3878               	.LVL338:
 3879               	.LBE516:
 3880               	.LBE515:
  49:../../../../tmk_core/protocol/lufa/LUFA-git/LUFA/Drivers/USB/Core/AVR8/Template/Template_Endpoint_Control_R.c **** 		else if (Endpoint_IsSETUPReceived())
 3881               		.loc 5 49 0
 3882 002e 83FD      		sbrc r24,3
 3883 0030 00C0      		rjmp .L396
 3884               	.LBB517:
 3885               	.LBB518:
 419:../../../../tmk_core/protocol/lufa/LUFA-git/LUFA/Drivers/USB/Core/AVR8/../AVR8/../AVR8/Endpoint_AVR8.h **** 				return ((UEINTX & (1 << RXOUTI)) ? true : false);
 3886               		.loc 2 419 0
 3887 0032 8091 E800 		lds r24,232
 3888               	.LBE518:
 3889               	.LBE517:
  52:../../../../tmk_core/protocol/lufa/LUFA-git/LUFA/Drivers/USB/Core/AVR8/Template/Template_Endpoint_Control_R.c **** 		if (Endpoint_IsOUTReceived())
 3890               		.loc 5 52 0
 3891 0036 82FF      		sbrs r24,2
 3892 0038 00C0      		rjmp .L403
 3893 003a 00C0      		rjmp .L400
 3894               	.L392:
 3895               	.LBB519:
 3896               	.LBB520:
 542:../../../../tmk_core/protocol/lufa/LUFA-git/LUFA/Drivers/USB/Core/AVR8/../AVR8/../AVR8/Endpoint_AVR8.h **** 				return UEDATX;
 3897               		.loc 2 542 0
 3898 003c 6091 F100 		lds r22,241
 3899               	.LBE520:
 3900               	.LBE519:
  56:../../../../tmk_core/protocol/lufa/LUFA-git/LUFA/Drivers/USB/Core/AVR8/Template/Template_Endpoint_Control_R.c **** 				TEMPLATE_TRANSFER_BYTE(DataStream);
 3901               		.loc 5 56 0
 3902 0040 C601      		movw r24,r12
 3903 0042 0E94 0000 		call __eeupd_byte_usb1286
 3904               	.LVL339:
  57:../../../../tmk_core/protocol/lufa/LUFA-git/LUFA/Drivers/USB/Core/AVR8/Template/Template_Endpoint_Control_R.c **** 				TEMPLATE_BUFFER_MOVE(DataStream, 1);
 3905               		.loc 5 57 0
 3906 0046 8FEF      		ldi r24,-1
 3907 0048 C81A      		sub r12,r24
 3908 004a D80A      		sbc r13,r24
 3909               	.LVL340:
  58:../../../../tmk_core/protocol/lufa/LUFA-git/LUFA/Drivers/USB/Core/AVR8/Template/Template_Endpoint_Control_R.c **** 				Length--;
 3910               		.loc 5 58 0
 3911 004c 81E0      		ldi r24,1
 3912 004e E81A      		sub r14,r24
 3913 0050 F108      		sbc r15,__zero_reg__
 3914               	.LVL341:
  54:../../../../tmk_core/protocol/lufa/LUFA-git/LUFA/Drivers/USB/Core/AVR8/Template/Template_Endpoint_Control_R.c **** 			while (Length && Endpoint_BytesInEndpoint())
 3915               		.loc 5 54 0
 3916 0052 01F0      		breq .L391
 3917               	.L400:
 3918               	.LBB521:
 3919               	.LBB522:
 225:../../../../tmk_core/protocol/lufa/LUFA-git/LUFA/Drivers/USB/Core/AVR8/../AVR8/../AVR8/Endpoint_AVR8.h **** 					return UEBCX;
 3920               		.loc 2 225 0
 3921 0054 8091 F200 		lds r24,242
 3922 0058 9091 F300 		lds r25,242+1
 3923               	.LBE522:
 3924               	.LBE521:
  54:../../../../tmk_core/protocol/lufa/LUFA-git/LUFA/Drivers/USB/Core/AVR8/Template/Template_Endpoint_Control_R.c **** 			while (Length && Endpoint_BytesInEndpoint())
 3925               		.loc 5 54 0
 3926 005c 892B      		or r24,r25
 3927 005e 01F4      		brne .L392
 3928               	.L391:
 3929               	.LBB523:
 3930               	.LBB524:
 471:../../../../tmk_core/protocol/lufa/LUFA-git/LUFA/Drivers/USB/Core/AVR8/../AVR8/../AVR8/Endpoint_AVR8.h **** 					UEINTX &= ~((1 << RXOUTI) | (1 << FIFOCON));
 3931               		.loc 2 471 0
 3932 0060 8091 E800 		lds r24,232
 3933 0064 8B77      		andi r24,lo8(123)
 3934 0066 8093 E800 		sts 232,r24
 3935               	.LVL342:
 3936               	.L386:
 3937               	.LBE524:
 3938               	.LBE523:
 3939               	.LBE514:
  41:../../../../tmk_core/protocol/lufa/LUFA-git/LUFA/Drivers/USB/Core/AVR8/Template/Template_Endpoint_Control_R.c **** 	while (Length)
 3940               		.loc 5 41 0 discriminator 1
 3941 006a E114      		cp r14,__zero_reg__
 3942 006c F104      		cpc r15,__zero_reg__
 3943 006e 01F4      		brne .L403
 3944               	.L399:
 3945               	.LBB525:
 3946               	.LBB526:
 407:../../../../tmk_core/protocol/lufa/LUFA-git/LUFA/Drivers/USB/Core/AVR8/../AVR8/../AVR8/Endpoint_AVR8.h **** 				return ((UEINTX & (1 << TXINI)) ? true : false);
 3947               		.loc 2 407 0
 3948 0070 8091 E800 		lds r24,232
 3949               	.LBE526:
 3950               	.LBE525:
  65:../../../../tmk_core/protocol/lufa/LUFA-git/LUFA/Drivers/USB/Core/AVR8/Template/Template_Endpoint_Control_R.c **** 	while (!(Endpoint_IsINReady()))
 3951               		.loc 5 65 0
 3952 0074 80FD      		sbrc r24,0
 3953 0076 00C0      		rjmp .L397
 3954               	.LBB527:
  67:../../../../tmk_core/protocol/lufa/LUFA-git/LUFA/Drivers/USB/Core/AVR8/Template/Template_Endpoint_Control_R.c **** 		uint8_t USB_DeviceState_LCL = USB_DeviceState;
 3955               		.loc 5 67 0
 3956 0078 8091 0000 		lds r24,USB_DeviceState
 3957               	.LVL343:
  69:../../../../tmk_core/protocol/lufa/LUFA-git/LUFA/Drivers/USB/Core/AVR8/Template/Template_Endpoint_Control_R.c **** 		if (USB_DeviceState_LCL == DEVICE_STATE_Unattached)
 3958               		.loc 5 69 0
 3959 007c 8823      		tst r24
 3960 007e 01F0      		breq .L398
  71:../../../../tmk_core/protocol/lufa/LUFA-git/LUFA/Drivers/USB/Core/AVR8/Template/Template_Endpoint_Control_R.c **** 		else if (USB_DeviceState_LCL == DEVICE_STATE_Suspended)
 3961               		.loc 5 71 0
 3962 0080 8530      		cpi r24,lo8(5)
 3963 0082 01F4      		brne .L399
 3964               	.LVL344:
 3965               	.L395:
 3966               	.LBE527:
 3967               	.LBB528:
  48:../../../../tmk_core/protocol/lufa/LUFA-git/LUFA/Drivers/USB/Core/AVR8/Template/Template_Endpoint_Control_R.c **** 		  return ENDPOINT_RWCSTREAM_BusSuspended;
 3968               		.loc 5 48 0
 3969 0084 83E0      		ldi r24,lo8(3)
 3970 0086 00C0      		rjmp .L387
 3971               	.L396:
  50:../../../../tmk_core/protocol/lufa/LUFA-git/LUFA/Drivers/USB/Core/AVR8/Template/Template_Endpoint_Control_R.c **** 		  return ENDPOINT_RWCSTREAM_HostAborted;
 3972               		.loc 5 50 0
 3973 0088 81E0      		ldi r24,lo8(1)
 3974 008a 00C0      		rjmp .L387
 3975               	.L397:
 3976               	.LBE528:
  75:../../../../tmk_core/protocol/lufa/LUFA-git/LUFA/Drivers/USB/Core/AVR8/Template/Template_Endpoint_Control_R.c **** 	return ENDPOINT_RWCSTREAM_NoError;
 3977               		.loc 5 75 0
 3978 008c 80E0      		ldi r24,0
 3979 008e 00C0      		rjmp .L387
 3980               	.L398:
 3981               	.LBB529:
  46:../../../../tmk_core/protocol/lufa/LUFA-git/LUFA/Drivers/USB/Core/AVR8/Template/Template_Endpoint_Control_R.c **** 		  return ENDPOINT_RWCSTREAM_DeviceDisconnected;
 3982               		.loc 5 46 0
 3983 0090 82E0      		ldi r24,lo8(2)
 3984               	.L387:
 3985               	/* epilogue start */
 3986               	.LBE529:
 3987               		.loc 5 76 0
 3988 0092 FF90      		pop r15
 3989 0094 EF90      		pop r14
 3990               	.LVL345:
 3991 0096 DF90      		pop r13
 3992 0098 CF90      		pop r12
 3993               	.LVL346:
 3994 009a 0895      		ret
 3995               		.cfi_endproc
 3996               	.LFE105:
 3998               		.section	.text.Endpoint_Read_Control_EStream_BE,"ax",@progbits
 3999               	.global	Endpoint_Read_Control_EStream_BE
 4001               	Endpoint_Read_Control_EStream_BE:
 4002               	.LFB106:
  35:../../../../tmk_core/protocol/lufa/LUFA-git/LUFA/Drivers/USB/Core/AVR8/Template/Template_Endpoint_Control_R.c **** {
 4003               		.loc 5 35 0
 4004               		.cfi_startproc
 4005               	.LVL347:
 4006 0000 CF92      		push r12
 4007               	.LCFI120:
 4008               		.cfi_def_cfa_offset 3
 4009               		.cfi_offset 12, -2
 4010 0002 DF92      		push r13
 4011               	.LCFI121:
 4012               		.cfi_def_cfa_offset 4
 4013               		.cfi_offset 13, -3
 4014 0004 EF92      		push r14
 4015               	.LCFI122:
 4016               		.cfi_def_cfa_offset 5
 4017               		.cfi_offset 14, -4
 4018 0006 FF92      		push r15
 4019               	.LCFI123:
 4020               		.cfi_def_cfa_offset 6
 4021               		.cfi_offset 15, -5
 4022               	/* prologue: function */
 4023               	/* frame size = 0 */
 4024               	/* stack size = 4 */
 4025               	.L__stack_usage = 4
 4026 0008 7B01      		movw r14,r22
  36:../../../../tmk_core/protocol/lufa/LUFA-git/LUFA/Drivers/USB/Core/AVR8/Template/Template_Endpoint_Control_R.c **** 	uint8_t* DataStream = ((uint8_t*)Buffer + TEMPLATE_BUFFER_OFFSET(Length));
 4027               		.loc 5 36 0
 4028 000a 6B01      		movw r12,r22
 4029 000c 21E0      		ldi r18,1
 4030 000e C21A      		sub r12,r18
 4031 0010 D108      		sbc r13,__zero_reg__
 4032 0012 C80E      		add r12,r24
 4033 0014 D91E      		adc r13,r25
 4034               	.LVL348:
  38:../../../../tmk_core/protocol/lufa/LUFA-git/LUFA/Drivers/USB/Core/AVR8/Template/Template_Endpoint_Control_R.c **** 	if (!(Length))
 4035               		.loc 5 38 0
 4036 0016 6115      		cp r22,__zero_reg__
 4037 0018 7105      		cpc r23,__zero_reg__
 4038 001a 01F4      		brne .L423
 4039 001c 00C0      		rjmp .L411
 4040               	.LVL349:
 4041               	.L424:
 4042               	.LBB530:
  43:../../../../tmk_core/protocol/lufa/LUFA-git/LUFA/Drivers/USB/Core/AVR8/Template/Template_Endpoint_Control_R.c **** 		uint8_t USB_DeviceState_LCL = USB_DeviceState;
 4043               		.loc 5 43 0
 4044 001e 8091 0000 		lds r24,USB_DeviceState
 4045               	.LVL350:
  45:../../../../tmk_core/protocol/lufa/LUFA-git/LUFA/Drivers/USB/Core/AVR8/Template/Template_Endpoint_Control_R.c **** 		if (USB_DeviceState_LCL == DEVICE_STATE_Unattached)
 4046               		.loc 5 45 0
 4047 0022 8823      		tst r24
 4048 0024 01F0      		breq .L418
  47:../../../../tmk_core/protocol/lufa/LUFA-git/LUFA/Drivers/USB/Core/AVR8/Template/Template_Endpoint_Control_R.c **** 		else if (USB_DeviceState_LCL == DEVICE_STATE_Suspended)
 4049               		.loc 5 47 0
 4050 0026 8530      		cpi r24,lo8(5)
 4051 0028 01F0      		breq .L415
 4052               	.LBB531:
 4053               	.LBB532:
 431:../../../../tmk_core/protocol/lufa/LUFA-git/LUFA/Drivers/USB/Core/AVR8/../AVR8/../AVR8/Endpoint_AVR8.h **** 				return ((UEINTX & (1 << RXSTPI)) ? true : false);
 4054               		.loc 2 431 0
 4055 002a 8091 E800 		lds r24,232
 4056               	.LVL351:
 4057               	.LBE532:
 4058               	.LBE531:
  49:../../../../tmk_core/protocol/lufa/LUFA-git/LUFA/Drivers/USB/Core/AVR8/Template/Template_Endpoint_Control_R.c **** 		else if (Endpoint_IsSETUPReceived())
 4059               		.loc 5 49 0
 4060 002e 83FD      		sbrc r24,3
 4061 0030 00C0      		rjmp .L416
 4062               	.LBB533:
 4063               	.LBB534:
 419:../../../../tmk_core/protocol/lufa/LUFA-git/LUFA/Drivers/USB/Core/AVR8/../AVR8/../AVR8/Endpoint_AVR8.h **** 				return ((UEINTX & (1 << RXOUTI)) ? true : false);
 4064               		.loc 2 419 0
 4065 0032 8091 E800 		lds r24,232
 4066               	.LBE534:
 4067               	.LBE533:
  52:../../../../tmk_core/protocol/lufa/LUFA-git/LUFA/Drivers/USB/Core/AVR8/Template/Template_Endpoint_Control_R.c **** 		if (Endpoint_IsOUTReceived())
 4068               		.loc 5 52 0
 4069 0036 82FF      		sbrs r24,2
 4070 0038 00C0      		rjmp .L424
 4071 003a 00C0      		rjmp .L420
 4072               	.L412:
 4073               	.LBB535:
 4074               	.LBB536:
 542:../../../../tmk_core/protocol/lufa/LUFA-git/LUFA/Drivers/USB/Core/AVR8/../AVR8/../AVR8/Endpoint_AVR8.h **** 				return UEDATX;
 4075               		.loc 2 542 0
 4076 003c 6091 F100 		lds r22,241
 4077               	.LBE536:
 4078               	.LBE535:
  56:../../../../tmk_core/protocol/lufa/LUFA-git/LUFA/Drivers/USB/Core/AVR8/Template/Template_Endpoint_Control_R.c **** 				TEMPLATE_TRANSFER_BYTE(DataStream);
 4079               		.loc 5 56 0
 4080 0040 C601      		movw r24,r12
 4081 0042 0E94 0000 		call __eeupd_byte_usb1286
 4082               	.LVL352:
  57:../../../../tmk_core/protocol/lufa/LUFA-git/LUFA/Drivers/USB/Core/AVR8/Template/Template_Endpoint_Control_R.c **** 				TEMPLATE_BUFFER_MOVE(DataStream, 1);
 4083               		.loc 5 57 0
 4084 0046 81E0      		ldi r24,1
 4085 0048 C81A      		sub r12,r24
 4086 004a D108      		sbc r13,__zero_reg__
 4087               	.LVL353:
  58:../../../../tmk_core/protocol/lufa/LUFA-git/LUFA/Drivers/USB/Core/AVR8/Template/Template_Endpoint_Control_R.c **** 				Length--;
 4088               		.loc 5 58 0
 4089 004c 21E0      		ldi r18,1
 4090 004e E21A      		sub r14,r18
 4091 0050 F108      		sbc r15,__zero_reg__
 4092               	.LVL354:
  54:../../../../tmk_core/protocol/lufa/LUFA-git/LUFA/Drivers/USB/Core/AVR8/Template/Template_Endpoint_Control_R.c **** 			while (Length && Endpoint_BytesInEndpoint())
 4093               		.loc 5 54 0
 4094 0052 01F0      		breq .L411
 4095               	.L420:
 4096               	.LBB537:
 4097               	.LBB538:
 225:../../../../tmk_core/protocol/lufa/LUFA-git/LUFA/Drivers/USB/Core/AVR8/../AVR8/../AVR8/Endpoint_AVR8.h **** 					return UEBCX;
 4098               		.loc 2 225 0
 4099 0054 8091 F200 		lds r24,242
 4100 0058 9091 F300 		lds r25,242+1
 4101               	.LBE538:
 4102               	.LBE537:
  54:../../../../tmk_core/protocol/lufa/LUFA-git/LUFA/Drivers/USB/Core/AVR8/Template/Template_Endpoint_Control_R.c **** 			while (Length && Endpoint_BytesInEndpoint())
 4103               		.loc 5 54 0
 4104 005c 892B      		or r24,r25
 4105 005e 01F4      		brne .L412
 4106               	.L411:
 4107               	.LBB539:
 4108               	.LBB540:
 471:../../../../tmk_core/protocol/lufa/LUFA-git/LUFA/Drivers/USB/Core/AVR8/../AVR8/../AVR8/Endpoint_AVR8.h **** 					UEINTX &= ~((1 << RXOUTI) | (1 << FIFOCON));
 4109               		.loc 2 471 0
 4110 0060 8091 E800 		lds r24,232
 4111 0064 8B77      		andi r24,lo8(123)
 4112 0066 8093 E800 		sts 232,r24
 4113               	.L423:
 4114               	.LBE540:
 4115               	.LBE539:
 4116               	.LBE530:
  41:../../../../tmk_core/protocol/lufa/LUFA-git/LUFA/Drivers/USB/Core/AVR8/Template/Template_Endpoint_Control_R.c **** 	while (Length)
 4117               		.loc 5 41 0 discriminator 1
 4118 006a E114      		cp r14,__zero_reg__
 4119 006c F104      		cpc r15,__zero_reg__
 4120 006e 01F4      		brne .L424
 4121               	.L419:
 4122               	.LBB541:
 4123               	.LBB542:
 407:../../../../tmk_core/protocol/lufa/LUFA-git/LUFA/Drivers/USB/Core/AVR8/../AVR8/../AVR8/Endpoint_AVR8.h **** 				return ((UEINTX & (1 << TXINI)) ? true : false);
 4124               		.loc 2 407 0
 4125 0070 8091 E800 		lds r24,232
 4126               	.LBE542:
 4127               	.LBE541:
  65:../../../../tmk_core/protocol/lufa/LUFA-git/LUFA/Drivers/USB/Core/AVR8/Template/Template_Endpoint_Control_R.c **** 	while (!(Endpoint_IsINReady()))
 4128               		.loc 5 65 0
 4129 0074 80FD      		sbrc r24,0
 4130 0076 00C0      		rjmp .L417
 4131               	.LBB543:
  67:../../../../tmk_core/protocol/lufa/LUFA-git/LUFA/Drivers/USB/Core/AVR8/Template/Template_Endpoint_Control_R.c **** 		uint8_t USB_DeviceState_LCL = USB_DeviceState;
 4132               		.loc 5 67 0
 4133 0078 8091 0000 		lds r24,USB_DeviceState
 4134               	.LVL355:
  69:../../../../tmk_core/protocol/lufa/LUFA-git/LUFA/Drivers/USB/Core/AVR8/Template/Template_Endpoint_Control_R.c **** 		if (USB_DeviceState_LCL == DEVICE_STATE_Unattached)
 4135               		.loc 5 69 0
 4136 007c 8823      		tst r24
 4137 007e 01F0      		breq .L418
  71:../../../../tmk_core/protocol/lufa/LUFA-git/LUFA/Drivers/USB/Core/AVR8/Template/Template_Endpoint_Control_R.c **** 		else if (USB_DeviceState_LCL == DEVICE_STATE_Suspended)
 4138               		.loc 5 71 0
 4139 0080 8530      		cpi r24,lo8(5)
 4140 0082 01F4      		brne .L419
 4141               	.LVL356:
 4142               	.L415:
 4143               	.LBE543:
 4144               	.LBB544:
  48:../../../../tmk_core/protocol/lufa/LUFA-git/LUFA/Drivers/USB/Core/AVR8/Template/Template_Endpoint_Control_R.c **** 		  return ENDPOINT_RWCSTREAM_BusSuspended;
 4145               		.loc 5 48 0
 4146 0084 83E0      		ldi r24,lo8(3)
 4147 0086 00C0      		rjmp .L407
 4148               	.L416:
  50:../../../../tmk_core/protocol/lufa/LUFA-git/LUFA/Drivers/USB/Core/AVR8/Template/Template_Endpoint_Control_R.c **** 		  return ENDPOINT_RWCSTREAM_HostAborted;
 4149               		.loc 5 50 0
 4150 0088 81E0      		ldi r24,lo8(1)
 4151 008a 00C0      		rjmp .L407
 4152               	.L417:
 4153               	.LBE544:
  75:../../../../tmk_core/protocol/lufa/LUFA-git/LUFA/Drivers/USB/Core/AVR8/Template/Template_Endpoint_Control_R.c **** 	return ENDPOINT_RWCSTREAM_NoError;
 4154               		.loc 5 75 0
 4155 008c 80E0      		ldi r24,0
 4156 008e 00C0      		rjmp .L407
 4157               	.L418:
 4158               	.LBB545:
  46:../../../../tmk_core/protocol/lufa/LUFA-git/LUFA/Drivers/USB/Core/AVR8/Template/Template_Endpoint_Control_R.c **** 		  return ENDPOINT_RWCSTREAM_DeviceDisconnected;
 4159               		.loc 5 46 0
 4160 0090 82E0      		ldi r24,lo8(2)
 4161               	.L407:
 4162               	/* epilogue start */
 4163               	.LBE545:
 4164               		.loc 5 76 0
 4165 0092 FF90      		pop r15
 4166 0094 EF90      		pop r14
 4167               	.LVL357:
 4168 0096 DF90      		pop r13
 4169 0098 CF90      		pop r12
 4170               	.LVL358:
 4171 009a 0895      		ret
 4172               		.cfi_endproc
 4173               	.LFE106:
 4175               		.text
 4176               	.Letext0:
 4177               		.file 6 "/usr/lib64/gcc/avr/4.7.1/../../../../avr/include/stdint.h"
 4178               		.file 7 "../../../../tmk_core/protocol/lufa/LUFA-git/LUFA/Drivers/USB/Core/AVR8/../AVR8/../StdRequ
 4179               		.file 8 "../../../../tmk_core/protocol/lufa/LUFA-git/LUFA/Drivers/USB/Core/AVR8/../AVR8/../Device.
 4180               		.file 9 "../../../../tmk_core/protocol/lufa/LUFA-git/LUFA/Drivers/USB/Core/AVR8/../AVR8/../Endpoin
 4181               		.file 10 "../../../../tmk_core/protocol/lufa/LUFA-git/LUFA/Drivers/USB/Core/AVR8/../USBTask.h"
 4182               		.file 11 "/usr/lib64/gcc/avr/4.7.1/../../../../avr/include/avr/eeprom.h"
DEFINED SYMBOLS
                            *ABS*:0000000000000000 EndpointStream_AVR8.c
     /tmp/ccblPWxn.s:2      *ABS*:000000000000003e __SP_H__
     /tmp/ccblPWxn.s:3      *ABS*:000000000000003d __SP_L__
     /tmp/ccblPWxn.s:4      *ABS*:000000000000003f __SREG__
     /tmp/ccblPWxn.s:5      *ABS*:000000000000003b __RAMPZ__
     /tmp/ccblPWxn.s:6      *ABS*:0000000000000000 __tmp_reg__
     /tmp/ccblPWxn.s:7      *ABS*:0000000000000001 __zero_reg__
     /tmp/ccblPWxn.s:14     .text.Endpoint_Discard_Stream:0000000000000000 Endpoint_Discard_Stream
     /tmp/ccblPWxn.s:169    .text.Endpoint_Null_Stream:0000000000000000 Endpoint_Null_Stream
     /tmp/ccblPWxn.s:322    .text.Endpoint_Write_Stream_LE:0000000000000000 Endpoint_Write_Stream_LE
     /tmp/ccblPWxn.s:498    .text.Endpoint_Write_Stream_BE:0000000000000000 Endpoint_Write_Stream_BE
     /tmp/ccblPWxn.s:685    .text.Endpoint_Read_Stream_LE:0000000000000000 Endpoint_Read_Stream_LE
     /tmp/ccblPWxn.s:859    .text.Endpoint_Read_Stream_BE:0000000000000000 Endpoint_Read_Stream_BE
     /tmp/ccblPWxn.s:1045   .text.Endpoint_Write_PStream_LE:0000000000000000 Endpoint_Write_PStream_LE
     /tmp/ccblPWxn.s:1230   .text.Endpoint_Write_PStream_BE:0000000000000000 Endpoint_Write_PStream_BE
     /tmp/ccblPWxn.s:1424   .text.Endpoint_Write_EStream_LE:0000000000000000 Endpoint_Write_EStream_LE
     /tmp/ccblPWxn.s:1602   .text.Endpoint_Write_EStream_BE:0000000000000000 Endpoint_Write_EStream_BE
     /tmp/ccblPWxn.s:1789   .text.Endpoint_Read_EStream_LE:0000000000000000 Endpoint_Read_EStream_LE
     /tmp/ccblPWxn.s:1967   .text.Endpoint_Read_EStream_BE:0000000000000000 Endpoint_Read_EStream_BE
     /tmp/ccblPWxn.s:2154   .text.Endpoint_Write_Control_Stream_LE:0000000000000000 Endpoint_Write_Control_Stream_LE
     /tmp/ccblPWxn.s:2355   .text.Endpoint_Write_Control_Stream_BE:0000000000000000 Endpoint_Write_Control_Stream_BE
     /tmp/ccblPWxn.s:2565   .text.Endpoint_Read_Control_Stream_LE:0000000000000000 Endpoint_Read_Control_Stream_LE
     /tmp/ccblPWxn.s:2721   .text.Endpoint_Read_Control_Stream_BE:0000000000000000 Endpoint_Read_Control_Stream_BE
     /tmp/ccblPWxn.s:2866   .text.Endpoint_Write_Control_PStream_LE:0000000000000000 Endpoint_Write_Control_PStream_LE
     /tmp/ccblPWxn.s:3077   .text.Endpoint_Write_Control_PStream_BE:0000000000000000 Endpoint_Write_Control_PStream_BE
     /tmp/ccblPWxn.s:3294   .text.Endpoint_Write_Control_EStream_LE:0000000000000000 Endpoint_Write_Control_EStream_LE
     /tmp/ccblPWxn.s:3553   .text.Endpoint_Write_Control_EStream_BE:0000000000000000 Endpoint_Write_Control_EStream_BE
     /tmp/ccblPWxn.s:3819   .text.Endpoint_Read_Control_EStream_LE:0000000000000000 Endpoint_Read_Control_EStream_LE
     /tmp/ccblPWxn.s:4001   .text.Endpoint_Read_Control_EStream_BE:0000000000000000 Endpoint_Read_Control_EStream_BE

UNDEFINED SYMBOLS
Endpoint_WaitUntilReady
__eerd_byte_usb1286
__eeupd_byte_usb1286
USB_ControlRequest
USB_DeviceState
